
usb_kb.elf:     file format elf32-littlenios2
usb_kb.elf
architecture: nios2:r1, flags 0x00000112:
EXEC_P, HAS_SYMS, D_PAGED
start address 0x100001bc

Program Header:
    LOAD off    0x00001000 vaddr 0x10000000 paddr 0x10000000 align 2**12
         filesz 0x00000020 memsz 0x00000020 flags r-x
    LOAD off    0x00001020 vaddr 0x10000020 paddr 0x10000020 align 2**12
         filesz 0x00011e10 memsz 0x00011e10 flags r-x
    LOAD off    0x00012e30 vaddr 0x10011e30 paddr 0x10013920 align 2**12
         filesz 0x00001af0 memsz 0x00001af0 flags rw-
    LOAD off    0x00015410 vaddr 0x10015410 paddr 0x10015410 align 2**12
         filesz 0x00000000 memsz 0x00000160 flags rw-

Sections:
Idx Name          Size      VMA       LMA       File off  Algn
  0 .entry        00000020  10000000  10000000  00001000  2**5
                  CONTENTS, ALLOC, LOAD, READONLY, CODE
  1 .exceptions   0000019c  10000020  10000020  00001020  2**2
                  CONTENTS, ALLOC, LOAD, READONLY, CODE
  2 .text         000111d4  100001bc  100001bc  000011bc  2**2
                  CONTENTS, ALLOC, LOAD, READONLY, CODE
  3 .rodata       00000aa0  10011390  10011390  00012390  2**2
                  CONTENTS, ALLOC, LOAD, READONLY, DATA
  4 .rwdata       00001af0  10011e30  10013920  00012e30  2**2
                  CONTENTS, ALLOC, LOAD, DATA, SMALL_DATA
  5 .bss          00000160  10015410  10015410  00015410  2**2
                  ALLOC, SMALL_DATA
  6 .onchip_memory2_0 00000000  00000000  00000000  00014920  2**0
                  CONTENTS
  7 .sdram        00000000  10015570  10015570  00014920  2**0
                  CONTENTS
  8 .comment      00000023  00000000  00000000  00014920  2**0
                  CONTENTS, READONLY
  9 .debug_aranges 00000d28  00000000  00000000  00014948  2**3
                  CONTENTS, READONLY, DEBUGGING
 10 .debug_info   0002362b  00000000  00000000  00015670  2**0
                  CONTENTS, READONLY, DEBUGGING
 11 .debug_abbrev 00008f42  00000000  00000000  00038c9b  2**0
                  CONTENTS, READONLY, DEBUGGING
 12 .debug_line   0000b164  00000000  00000000  00041bdd  2**0
                  CONTENTS, READONLY, DEBUGGING
 13 .debug_frame  000022cc  00000000  00000000  0004cd44  2**2
                  CONTENTS, READONLY, DEBUGGING
 14 .debug_str    00003333  00000000  00000000  0004f010  2**0
                  CONTENTS, READONLY, DEBUGGING
 15 .debug_loc    00016d4c  00000000  00000000  00052343  2**0
                  CONTENTS, READONLY, DEBUGGING
 16 .debug_alt_sim_info 00000040  00000000  00000000  00069090  2**2
                  CONTENTS, READONLY, DEBUGGING
 17 .debug_ranges 00001370  00000000  00000000  000690d0  2**3
                  CONTENTS, READONLY, DEBUGGING
 18 .thread_model 00000003  00000000  00000000  0006d7ea  2**0
                  CONTENTS, READONLY
 19 .cpu          0000000c  00000000  00000000  0006d7ed  2**0
                  CONTENTS, READONLY
 20 .qsys         00000001  00000000  00000000  0006d7f9  2**0
                  CONTENTS, READONLY
 21 .simulation_enabled 00000001  00000000  00000000  0006d7fa  2**0
                  CONTENTS, READONLY
 22 .sysid_hash   00000004  00000000  00000000  0006d7fb  2**0
                  CONTENTS, READONLY
 23 .sysid_base   00000004  00000000  00000000  0006d7ff  2**0
                  CONTENTS, READONLY
 24 .sysid_time   00000004  00000000  00000000  0006d803  2**0
                  CONTENTS, READONLY
 25 .stderr_dev   0000000b  00000000  00000000  0006d807  2**0
                  CONTENTS, READONLY
 26 .stdin_dev    0000000b  00000000  00000000  0006d812  2**0
                  CONTENTS, READONLY
 27 .stdout_dev   0000000b  00000000  00000000  0006d81d  2**0
                  CONTENTS, READONLY
 28 .sopc_system_name 0000000b  00000000  00000000  0006d828  2**0
                  CONTENTS, READONLY
 29 .quartus_project_dir 0000001c  00000000  00000000  0006d833  2**0
                  CONTENTS, READONLY
 30 .jdi          00004442  00000000  00000000  0006d84f  2**0
                  CONTENTS, READONLY
 31 .sopcinfo     000731df  00000000  00000000  00071c91  2**0
                  CONTENTS, READONLY
SYMBOL TABLE:
10000000 l    d  .entry	00000000 .entry
10000020 l    d  .exceptions	00000000 .exceptions
100001bc l    d  .text	00000000 .text
10011390 l    d  .rodata	00000000 .rodata
10011e30 l    d  .rwdata	00000000 .rwdata
10015410 l    d  .bss	00000000 .bss
00000000 l    d  .onchip_memory2_0	00000000 .onchip_memory2_0
10015570 l    d  .sdram	00000000 .sdram
00000000 l    d  .comment	00000000 .comment
00000000 l    d  .debug_aranges	00000000 .debug_aranges
00000000 l    d  .debug_info	00000000 .debug_info
00000000 l    d  .debug_abbrev	00000000 .debug_abbrev
00000000 l    d  .debug_line	00000000 .debug_line
00000000 l    d  .debug_frame	00000000 .debug_frame
00000000 l    d  .debug_str	00000000 .debug_str
00000000 l    d  .debug_loc	00000000 .debug_loc
00000000 l    d  .debug_alt_sim_info	00000000 .debug_alt_sim_info
00000000 l    d  .debug_ranges	00000000 .debug_ranges
00000000 l    df *ABS*	00000000 ../usb_kb_bsp//obj/HAL/src/crt0.o
100001f4 l       .text	00000000 alt_after_alt_main
00000000 l    df *ABS*	00000000 alt_exception_entry.o
10000094 l       .exceptions	00000000 alt_exception_unknown
00000000 l    df *ABS*	00000000 alt_irq_handler.c
00000000 l    df *ABS*	00000000 io_handler.c
00000000 l    df *ABS*	00000000 main.c
10015410 l     O .bss	00000002 ctl_reg.3319
10015412 l     O .bss	00000002 no_device.3320
00000000 l    df *ABS*	00000000 usb.c
00000000 l    df *ABS*	00000000 printf.c
00000000 l    df *ABS*	00000000 puts.c
00000000 l    df *ABS*	00000000 strlen.c
00000000 l    df *ABS*	00000000 vfprintf.c
10011b76 l     O .rodata	00000010 zeroes.4181
10011b86 l     O .rodata	00000010 blanks.4180
00000000 l    df *ABS*	00000000 wsetup.c
00000000 l    df *ABS*	00000000 dtoa.c
10004604 l     F .text	00000228 quorem
00000000 l    df *ABS*	00000000 fflush.c
00000000 l    df *ABS*	00000000 findfp.c
100061ac l     F .text	00000008 __fp_lock
100061b4 l     F .text	00000008 __fp_unlock
100061c8 l     F .text	000001a0 __sinit.part.1
00000000 l    df *ABS*	00000000 mallocr.c
00000000 l    df *ABS*	00000000 fvwrite.c
00000000 l    df *ABS*	00000000 fwalk.c
00000000 l    df *ABS*	00000000 impure.c
10011e30 l     O .rwdata	00000424 impure_data
00000000 l    df *ABS*	00000000 locale.c
10012274 l     O .rwdata	00000020 lc_ctype_charset
10012254 l     O .rwdata	00000020 lc_message_charset
10012294 l     O .rwdata	00000038 lconv
00000000 l    df *ABS*	00000000 makebuf.c
00000000 l    df *ABS*	00000000 mallocr.c
00000000 l    df *ABS*	00000000 memchr.c
00000000 l    df *ABS*	00000000 memcpy.c
00000000 l    df *ABS*	00000000 memmove.c
00000000 l    df *ABS*	00000000 memset.c
00000000 l    df *ABS*	00000000 mprec.c
10011bb8 l     O .rodata	0000000c p05.2678
00000000 l    df *ABS*	00000000 mallocr.c
00000000 l    df *ABS*	00000000 s_fpclassify.c
00000000 l    df *ABS*	00000000 sbrkr.c
00000000 l    df *ABS*	00000000 stdio.c
00000000 l    df *ABS*	00000000 strcmp.c
00000000 l    df *ABS*	00000000 vfprintf.c
100096f8 l     F .text	000000fc __sprint_r.part.0
10011cec l     O .rodata	00000010 blanks.4125
10011cdc l     O .rodata	00000010 zeroes.4126
00000000 l    df *ABS*	00000000 writer.c
00000000 l    df *ABS*	00000000 closer.c
00000000 l    df *ABS*	00000000 mallocr.c
00000000 l    df *ABS*	00000000 fclose.c
00000000 l    df *ABS*	00000000 fputwc.c
00000000 l    df *ABS*	00000000 fstatr.c
00000000 l    df *ABS*	00000000 int_errno.c
00000000 l    df *ABS*	00000000 isattyr.c
00000000 l    df *ABS*	00000000 lseekr.c
00000000 l    df *ABS*	00000000 readr.c
00000000 l    df *ABS*	00000000 wbuf.c
00000000 l    df *ABS*	00000000 wcrtomb.c
00000000 l    df *ABS*	00000000 wctomb_r.c
00000000 l    df *ABS*	00000000 libgcc2.c
00000000 l    df *ABS*	00000000 libgcc2.c
00000000 l    df *ABS*	00000000 lib2-divmod.c
1000c1fc l     F .text	0000006c udivmodsi4
00000000 l    df *ABS*	00000000 lib2-mul.c
00000000 l    df *ABS*	00000000 adddf3.c
00000000 l    df *ABS*	00000000 divdf3.c
00000000 l    df *ABS*	00000000 eqdf2.c
00000000 l    df *ABS*	00000000 gedf2.c
00000000 l    df *ABS*	00000000 ledf2.c
00000000 l    df *ABS*	00000000 muldf3.c
00000000 l    df *ABS*	00000000 subdf3.c
00000000 l    df *ABS*	00000000 fixdfsi.c
00000000 l    df *ABS*	00000000 floatsidf.c
00000000 l    df *ABS*	00000000 floatunsidf.c
00000000 l    df *ABS*	00000000 libgcc2.c
00000000 l    df *ABS*	00000000 libgcc2.c
00000000 l    df *ABS*	00000000 alt_close.c
1000eb4c l     F .text	00000050 alt_get_errno
00000000 l    df *ABS*	00000000 alt_dev.c
1000ec74 l     F .text	0000002c alt_dev_null_write
00000000 l    df *ABS*	00000000 alt_errno.c
00000000 l    df *ABS*	00000000 alt_fstat.c
1000eca0 l     F .text	00000050 alt_get_errno
00000000 l    df *ABS*	00000000 alt_isatty.c
1000eda8 l     F .text	00000050 alt_get_errno
00000000 l    df *ABS*	00000000 alt_load.c
1000eea4 l     F .text	00000064 alt_load_section
00000000 l    df *ABS*	00000000 alt_lseek.c
1000ef88 l     F .text	00000050 alt_get_errno
00000000 l    df *ABS*	00000000 alt_main.c
00000000 l    df *ABS*	00000000 alt_malloc_lock.c
00000000 l    df *ABS*	00000000 alt_read.c
1000f16c l     F .text	00000050 alt_get_errno
00000000 l    df *ABS*	00000000 alt_release_fd.c
00000000 l    df *ABS*	00000000 alt_sbrk.c
10013910 l     O .rwdata	00000004 heap_end
00000000 l    df *ABS*	00000000 alt_usleep.c
00000000 l    df *ABS*	00000000 alt_write.c
1000f420 l     F .text	00000050 alt_get_errno
00000000 l    df *ABS*	00000000 alt_sys_init.c
1000f570 l     F .text	00000038 alt_dev_reg
1001287c l     O .rwdata	00001060 jtag_uart_0
00000000 l    df *ABS*	00000000 altera_avalon_jtag_uart_fd.c
00000000 l    df *ABS*	00000000 altera_avalon_jtag_uart_init.c
1000f84c l     F .text	00000204 altera_avalon_jtag_uart_irq
1000fa50 l     F .text	000000a8 altera_avalon_jtag_uart_timeout
00000000 l    df *ABS*	00000000 altera_avalon_jtag_uart_ioctl.c
00000000 l    df *ABS*	00000000 altera_avalon_jtag_uart_read.c
00000000 l    df *ABS*	00000000 altera_avalon_jtag_uart_write.c
00000000 l    df *ABS*	00000000 alt_alarm_start.c
00000000 l    df *ABS*	00000000 alt_busy_sleep.c
00000000 l    df *ABS*	00000000 alt_dcache_flush_all.c
00000000 l    df *ABS*	00000000 alt_dev_llist_insert.c
10010324 l     F .text	00000050 alt_get_errno
00000000 l    df *ABS*	00000000 alt_do_ctors.c
00000000 l    df *ABS*	00000000 alt_do_dtors.c
00000000 l    df *ABS*	00000000 alt_icache_flush_all.c
00000000 l    df *ABS*	00000000 alt_iic.c
00000000 l    df *ABS*	00000000 alt_iic_isr_register.c
00000000 l    df *ABS*	00000000 alt_io_redirect.c
100107bc l     F .text	000000e0 alt_open_fd
00000000 l    df *ABS*	00000000 alt_irq_vars.c
00000000 l    df *ABS*	00000000 alt_open.c
10010914 l     F .text	00000050 alt_get_errno
10010964 l     F .text	000000f4 alt_file_locked
00000000 l    df *ABS*	00000000 alt_tick.c
00000000 l    df *ABS*	00000000 altera_nios2_gen2_irq.c
00000000 l    df *ABS*	00000000 alt_find_dev.c
00000000 l    df *ABS*	00000000 alt_find_file.c
00000000 l    df *ABS*	00000000 alt_get_fd.c
00000000 l    df *ABS*	00000000 atexit.c
00000000 l    df *ABS*	00000000 exit.c
00000000 l    df *ABS*	00000000 memcmp.c
00000000 l    df *ABS*	00000000 __atexit.c
00000000 l    df *ABS*	00000000 __call_atexit.c
00000000 l    df *ABS*	00000000 alt_exit.c
10008d38 g     F .text	00000074 _mprec_log10
10008e24 g     F .text	0000008c __any_on
1000b124 g     F .text	00000054 _isatty_r
10011bc4 g     O .rodata	00000028 __mprec_tinytens
1000f0b4 g     F .text	00000078 alt_main
10002250 g     F .text	000000b8 _puts_r
10015470 g     O .bss	00000100 alt_irq
1000b178 g     F .text	0000005c _lseek_r
10013920 g       *ABS*	00000000 __flash_rwdata_start
1000d56c g     F .text	00000084 .hidden __eqdf2
10015570 g       *ABS*	00000000 __alt_heap_start
10002214 g     F .text	0000003c printf
1000b3a0 g     F .text	0000009c _wcrtomb_r
100095f0 g     F .text	0000005c __sseek
10006510 g     F .text	00000010 __sinit
1000b230 g     F .text	00000154 __swbuf_r
100138dc g     O .rwdata	00000004 KKK
10006f88 g     F .text	0000007c _setlocale_r
10006368 g     F .text	00000078 __sfmoreglue
1000f14c g     F .text	00000020 __malloc_unlock
100020ec g     F .text	00000080 UsbGetRetryCnt
10007be8 g     F .text	0000015c memmove
100001f8 g     F .text	00000050 IO_init
100064f8 g     F .text	00000018 _cleanup
10007e68 g     F .text	000000a8 _Balloc
1000d5f0 g     F .text	000000e0 .hidden __gtdf2
10010d54 g     F .text	00000020 altera_nios2_gen2_irq_init
00000000  w      *UND*	00000000 __errno
10000000 g     F .entry	0000000c __reset
10000020 g       *ABS*	00000000 __flash_exceptions_start
1000b0cc g     F .text	00000058 _fstat_r
1001542c g     O .bss	00000004 errno
1000956c g     F .text	00000008 __seofread
10015434 g     O .bss	00000004 alt_argv
1001b8dc g       *ABS*	00000000 _gp
1000f3f0 g     F .text	00000030 usleep
100126fc g     O .rwdata	00000180 alt_fd_list
10010d74 g     F .text	00000090 alt_find_dev
10007ab0 g     F .text	00000138 memcpy
100061bc g     F .text	0000000c _cleanup_r
1000e974 g     F .text	000000d0 .hidden __floatsidf
1001089c g     F .text	00000078 alt_io_redirect
1000d6d0 g     F .text	000000e0 .hidden __ltdf2
10011390 g       *ABS*	00000000 __DTOR_END__
10002308 g     F .text	00000014 puts
10009450 g     F .text	00000074 __fpclassifyd
10008c94 g     F .text	000000a4 __ratio
1000ac30 g     F .text	00000024 __vfiprintf_internal
1000fc4c g     F .text	0000020c altera_avalon_jtag_uart_read
00000000  w      *UND*	00000000 malloc
100021e8 g     F .text	0000002c _printf_r
00000000 g       *ABS*	00000000 __alt_mem_onchip_memory2_0
1000c318 g     F .text	00000008 .hidden __udivsi3
1000edf8 g     F .text	000000ac isatty
10011c14 g     O .rodata	000000c8 __mprec_tens
10007004 g     F .text	0000000c __locale_charset
10015428 g     O .bss	00000004 __malloc_top_pad
1000178c g     F .text	00000264 UsbGetConfigDesc2
100138e8 g     O .rwdata	00000004 __mb_cur_max
10007034 g     F .text	0000000c _localeconv_r
10008290 g     F .text	0000003c __i2b
10006974 g     F .text	000004a4 __sfvwrite_r
100094c4 g     F .text	00000054 _sbrk_r
1000b1d4 g     F .text	0000005c _read_r
10013908 g     O .rwdata	00000004 alt_max_fd
1000addc g     F .text	00000100 _fclose_r
1000617c g     F .text	00000030 fflush
10015424 g     O .bss	00000004 __malloc_max_sbrked_mem
1000c350 g     F .text	0000089c .hidden __adddf3
10008a3c g     F .text	0000011c __b2d
1000bbe0 g     F .text	0000061c .hidden __umoddi3
1000efd8 g     F .text	000000dc lseek
100138e0 g     O .rwdata	00000004 _global_impure_ptr
10008eb0 g     F .text	000005a0 _realloc_r
10015570 g       *ABS*	00000000 __bss_end
100106cc g     F .text	000000f0 alt_iic_isr_register
10010c50 g     F .text	00000104 alt_tick
1000b5a0 g     F .text	00000640 .hidden __udivdi3
1000aef0 g     F .text	00000184 _fputwc_r
10011bec g     O .rodata	00000028 __mprec_bigtens
10008074 g     F .text	00000104 __s2b
1000ea44 g     F .text	000000a4 .hidden __floatunsidf
100087e4 g     F .text	00000060 __mcmp
100011ec g     F .text	000000fc UsbSetAddress
10006530 g     F .text	00000018 __fp_lock_all
10010680 g     F .text	0000004c alt_ic_irq_enabled
10010bb8 g     F .text	00000098 alt_alarm_stop
1001543c g     O .bss	00000004 alt_irq_active
100000ec g     F .exceptions	000000d0 alt_irq_handler
100126d4 g     O .rwdata	00000028 alt_dev_null
10010308 g     F .text	0000001c alt_dcache_flush_all
10008178 g     F .text	00000068 __hi0bits
100002b4 g     F .text	00000068 IO_read
1000e8ec g     F .text	00000088 .hidden __fixdfsi
10013920 g       *ABS*	00000000 __ram_rwdata_end
10013900 g     O .rwdata	00000008 alt_dev_list
1000f470 g     F .text	00000100 write
10011e30 g       *ABS*	00000000 __ram_rodata_end
1000ecf0 g     F .text	000000b8 fstat
1000d6d0 g     F .text	000000e0 .hidden __ledf2
1000216c g     F .text	0000007c UsbPrintMem
1000855c g     F .text	00000140 __pow5mult
1000980c g     F .text	00001424 ___vfiprintf_internal_r
1001541c g     O .bss	00000004 __nlocale_changed
1000c320 g     F .text	00000008 .hidden __umodsi3
10015570 g       *ABS*	00000000 end
1000f788 g     F .text	000000c4 altera_avalon_jtag_uart_init
10011390 g       *ABS*	00000000 __CTOR_LIST__
18000000 g       *ABS*	00000000 __alt_stack_pointer
1000eae8 g     F .text	00000064 .hidden __clzsi2
1000fe58 g     F .text	00000218 altera_avalon_jtag_uart_write
10006520 g     F .text	00000004 __sfp_lock_acquire
100079c8 g     F .text	000000e8 memchr
100023b4 g     F .text	000020fc ___vfprintf_internal_r
10001aec g     F .text	000000fc UsbClassRequest
10006684 g     F .text	000002f0 _free_r
10007010 g     F .text	00000010 __locale_mb_cur_max
100111c8 g     F .text	00000194 __call_exitprocs
10015418 g     O .bss	00000004 __mlocale_changed
100138ec g     O .rwdata	00000004 __malloc_sbrk_base
100001bc g     F .text	0000003c _start
10015440 g     O .bss	00000004 _alt_tick_rate
1000869c g     F .text	00000148 __lshift
10015444 g     O .bss	00000004 _alt_nticks
1000f1bc g     F .text	00000104 read
1000f5dc g     F .text	00000048 alt_sys_init
100110b4 g     F .text	00000114 __register_exitproc
100082cc g     F .text	00000290 __multiply
1000faf8 g     F .text	00000068 altera_avalon_jtag_uart_close
1000c328 g     F .text	00000028 .hidden __mulsi3
10011e30 g       *ABS*	00000000 __ram_rwdata_start
10011390 g       *ABS*	00000000 __ram_rodata_start
10015448 g     O .bss	00000028 __malloc_current_mallinfo
10008b58 g     F .text	0000013c __d2b
100012e8 g     F .text	00000144 UsbGetDeviceDesc1
1000f624 g     F .text	00000060 altera_avalon_jtag_uart_read_fd
10010f18 g     F .text	000000d4 alt_get_fd
100101b0 g     F .text	00000158 alt_busy_sleep
1000acb0 g     F .text	00000054 _close_r
10011038 g     F .text	0000007c memcmp
1000f6e4 g     F .text	00000050 altera_avalon_jtag_uart_close_fd
10015570 g       *ABS*	00000000 __alt_stack_base
1000f734 g     F .text	00000054 altera_avalon_jtag_uart_ioctl_fd
100044d4 g     F .text	00000130 __swsetup_r
1000cbec g     F .text	00000980 .hidden __divdf3
100063e0 g     F .text	00000118 __sfp
10008dac g     F .text	00000078 __copybits
100122cc g     O .rwdata	00000408 __malloc_av_
1000652c g     F .text	00000004 __sinit_lock_release
1000d7b0 g     F .text	0000086c .hidden __muldf3
10009518 g     F .text	00000054 __sread
10002068 g     F .text	00000084 UsbWaitTDListDone
10010e04 g     F .text	00000114 alt_find_file
10010374 g     F .text	000000a4 alt_dev_llist_insert
1000f12c g     F .text	00000020 __malloc_lock
1000f340 g     F .text	000000b0 sbrk
10005f54 g     F .text	00000228 _fflush_r
1000ad04 g     F .text	000000d8 _calloc_r
10015410 g       *ABS*	00000000 __bss_start
10007d44 g     F .text	00000124 memset
1000031c g     F .text	00000d88 main
10015438 g     O .bss	00000004 alt_envp
10015420 g     O .bss	00000004 __malloc_max_total_mem
1000f684 g     F .text	00000060 altera_avalon_jtag_uart_write_fd
100019f0 g     F .text	000000fc UsbSetConfig
1000b384 g     F .text	0000001c __swbuf
1000964c g     F .text	00000008 __sclose
18000000 g       *ABS*	00000000 __alt_heap_limit
1000aedc g     F .text	00000014 fclose
1000482c g     F .text	00001728 _dtoa_r
10007220 g     F .text	000007a8 _malloc_r
1000b514 g     F .text	00000030 __ascii_wctomb
1001390c g     O .rwdata	00000004 alt_errno
10006e18 g     F .text	000000b8 _fwalk
1000c268 g     F .text	00000054 .hidden __divsi3
10006560 g     F .text	00000124 _malloc_trim_r
10001be8 g     F .text	00000144 UsbGetHidDesc
10011390 g       *ABS*	00000000 __CTOR_END__
10009654 g     F .text	000000a4 strcmp
10011390 g       *ABS*	00000000 __flash_rodata_start
10011390 g       *ABS*	00000000 __DTOR_LIST__
1000d56c g     F .text	00000084 .hidden __nedf2
100010f8 g     F .text	00000044 UsbRead
1000f5a8 g     F .text	00000034 alt_irq_init
1000f2c0 g     F .text	00000080 alt_release_fd
10011cfc g     O .rodata	00000100 .hidden __clz_tab
10015414 g     O .bss	00000004 _PathLocale
10010fec g     F .text	00000014 atexit
1000ac54 g     F .text	0000005c _write_r
10007040 g     F .text	0000001c setlocale
100138e4 g     O .rwdata	00000004 _impure_ptr
10015430 g     O .bss	00000004 alt_argc
10010474 g     F .text	0000005c _do_dtors
1000702c g     F .text	00000008 __locale_cjk_lang
10000020 g       .exceptions	00000000 alt_irq_entry
100089dc g     F .text	00000060 __ulp
10006548 g     F .text	00000018 __fp_unlock_all
100138f8 g     O .rwdata	00000008 alt_fs_list
10001d2c g     F .text	0000033c UsbGetReportDesc
10000020 g       *ABS*	00000000 __ram_exceptions_start
1000705c g     F .text	0000000c localeconv
100104ec g     F .text	00000050 alt_ic_isr_register
10013920 g       *ABS*	00000000 _edata
10015570 g       *ABS*	00000000 _end
100010a4 g     F .text	00000054 UsbWrite
100001bc g       *ABS*	00000000 __ram_exceptions_end
1000fb60 g     F .text	000000ec altera_avalon_jtag_uart_ioctl
100105dc g     F .text	000000a4 alt_ic_irq_disable
10009574 g     F .text	0000007c __swrite
100138f0 g     O .rwdata	00000004 __malloc_trim_threshold
10007020 g     F .text	0000000c __locale_msgcharset
10011000 g     F .text	00000038 exit
10006ed0 g     F .text	000000b8 _fwalk_reent
10008844 g     F .text	00000198 __mdiff
1000c2bc g     F .text	0000005c .hidden __modsi3
18000000 g       *ABS*	00000000 __alt_data_end
10000020 g     F .exceptions	00000000 alt_exception
10006524 g     F .text	00000004 __sfp_lock_release
10000000 g       *ABS*	00000000 __alt_mem_sdram
10000248 g     F .text	0000006c IO_write
1001135c g     F .text	00000034 _exit
10010070 g     F .text	00000140 alt_alarm_start
10007068 g     F .text	000001b8 __smakebuf_r
1000231c g     F .text	00000098 strlen
10010a58 g     F .text	00000160 open
1000d5f0 g     F .text	000000e0 .hidden __gedf2
100138f4 g     O .rwdata	00000004 __wctomb
100097f4 g     F .text	00000018 __sprint_r
100104d0 g     F .text	0000001c alt_icache_flush_all
10013914 g     O .rwdata	00000004 alt_priority_mask
1001053c g     F .text	000000a0 alt_ic_irq_enable
100044b0 g     F .text	00000024 __vfprintf_internal
1000b544 g     F .text	0000005c _wctomb_r
1000e01c g     F .text	000008d0 .hidden __subdf3
100081e0 g     F .text	000000b0 __lo0bits
10001600 g     F .text	0000018c UsbGetConfigDesc1
10013918 g     O .rwdata	00000008 alt_alarm_list
10010418 g     F .text	0000005c _do_ctors
1000113c g     F .text	000000b0 UsbSoftReset
1000b43c g     F .text	000000d8 wcrtomb
1000eb9c g     F .text	000000d8 close
1000142c g     F .text	000001d4 UsbGetDeviceDesc2
1000ef08 g     F .text	00000080 alt_load
1000b074 g     F .text	00000058 fputwc
00000000  w      *UND*	00000000 free
10006528 g     F .text	00000004 __sinit_lock_acquire
10007f38 g     F .text	0000013c __multadd
10007f10 g     F .text	00000028 _Bfree



Disassembly of section .entry:

10000000 <__reset>:
 * Jump to the _start entry point in the .text section if reset code
 * is allowed or if optimizing for RTL simulation.
 */
#if defined(ALT_ALLOW_CODE_AT_RESET) || defined(ALT_SIM_OPTIMIZE)
    /* Jump to the _start entry point in the .text section. */
    movhi r1, %hi(_start)
10000000:	00440034 	movhi	at,4096
    ori r1, r1, %lo(_start)
10000004:	08406f14 	ori	at,at,444
    jmp r1
10000008:	0800683a 	jmp	at
	...

Disassembly of section .exceptions:

10000020 <alt_exception>:

#else /* ALT_EXCEPTION_STACK disabled */
        /* 
         * Reserve space on normal stack for registers about to be pushed.
         */
        addi  sp, sp, -76
10000020:	deffed04 	addi	sp,sp,-76
         * documentation for details).
         *
         * Leave a gap in the stack frame at 4(sp) for the muldiv handler to
         * store zero into.
         */
        stw   ra,  0(sp)
10000024:	dfc00015 	stw	ra,0(sp)
        stw   r1,   8(sp)
10000028:	d8400215 	stw	at,8(sp)
        stw   r2,  12(sp)
1000002c:	d8800315 	stw	r2,12(sp)
        stw   r3,  16(sp)
10000030:	d8c00415 	stw	r3,16(sp)
        stw   r4,  20(sp)
10000034:	d9000515 	stw	r4,20(sp)
        stw   r5,  24(sp)
10000038:	d9400615 	stw	r5,24(sp)
        stw   r6,  28(sp)
1000003c:	d9800715 	stw	r6,28(sp)
        stw   r7,  32(sp)
10000040:	d9c00815 	stw	r7,32(sp)
        rdctl r5, estatus   /* Read early to avoid usage stall */
10000044:	000b307a 	rdctl	r5,estatus
        stw   r8,  36(sp)
10000048:	da000915 	stw	r8,36(sp)
        stw   r9,  40(sp)
1000004c:	da400a15 	stw	r9,40(sp)
        stw   r10, 44(sp)
10000050:	da800b15 	stw	r10,44(sp)
        stw   r11, 48(sp)
10000054:	dac00c15 	stw	r11,48(sp)
        stw   r12, 52(sp)
10000058:	db000d15 	stw	r12,52(sp)
        stw   r13, 56(sp)
1000005c:	db400e15 	stw	r13,56(sp)
        stw   r14, 60(sp)
10000060:	db800f15 	stw	r14,60(sp)
        stw   r15, 64(sp)
10000064:	dbc01015 	stw	r15,64(sp)
        /*
         * ea-4 contains the address of the instruction being executed
         * when the exception occured. For interrupt exceptions, we will
         * will be re-issue the isntruction. Store it in 72(sp)
         */
        stw   r5,  68(sp)  /* estatus */
10000068:	d9401115 	stw	r5,68(sp)
        addi  r15, ea, -4  /* instruction that caused exception */
1000006c:	ebffff04 	addi	r15,ea,-4
        stw   r15,  72(sp)
10000070:	dbc01215 	stw	r15,72(sp)
#else
        /*
         * Test to see if the exception was a software exception or caused 
         * by an external interrupt, and vector accordingly.
         */
        rdctl r4, ipending
10000074:	0009313a 	rdctl	r4,ipending
        andi  r2, r5, 1
10000078:	2880004c 	andi	r2,r5,1
        beq   r2, zero, .Lnot_irq
1000007c:	10000326 	beq	r2,zero,1000008c <alt_exception+0x6c>
        beq   r4, zero, .Lnot_irq
10000080:	20000226 	beq	r4,zero,1000008c <alt_exception+0x6c>
        /*
         * Now that all necessary registers have been preserved, call 
         * alt_irq_handler() to process the interrupts.
         */

        call alt_irq_handler
10000084:	00000ec0 	call	100000ec <alt_irq_handler>

        .section .exceptions.irqreturn, "xa"

        br    .Lexception_exit
10000088:	00000306 	br	10000098 <alt_exception_unknown+0x4>
         * upon completion, so we write ea (address of instruction *after*
         * the one where the exception occured) into 72(sp). The actual
         * instruction that caused the exception is written in r2, which these
         * handlers will utilize.
         */
        stw   ea,  72(sp)  /* Don't re-issue */
1000008c:	df401215 	stw	ea,72(sp)
        ldhu.n  r2, 0(r4)
        ldhu.n  r3, 2(r4)
        slli.n  r3, r3, 16
        or.n    r2, r2, r3 /* Instruction that caused exception */
#else
        ldw   r2, -4(ea)   /* Instruction that caused exception */
10000090:	e8bfff17 	ldw	r2,-4(ea)

10000094 <alt_exception_unknown>:
#ifdef NIOS2_HAS_DEBUG_STUB
       /*
        *  Either tell the user now (if there is a debugger attached) or go into
        *  the debug monitor which will loop until a debugger is attached.
        */
        break
10000094:	003da03a 	break	0
        /* 
         * Restore the saved registers, so that all general purpose registers 
         * have been restored to their state at the time the interrupt occured.
         */

        ldw   r5,  68(sp)
10000098:	d9401117 	ldw	r5,68(sp)
        ldw   ea,  72(sp)  /* This becomes the PC once eret is executed */
1000009c:	df401217 	ldw	ea,72(sp)
        ldw   ra,   0(sp)
100000a0:	dfc00017 	ldw	ra,0(sp)

        wrctl estatus, r5
100000a4:	2801707a 	wrctl	estatus,r5

        ldw   r1,   8(sp)
100000a8:	d8400217 	ldw	at,8(sp)
        ldw   r2,  12(sp)
100000ac:	d8800317 	ldw	r2,12(sp)
        ldw   r3,  16(sp)
100000b0:	d8c00417 	ldw	r3,16(sp)
        ldw   r4,  20(sp)
100000b4:	d9000517 	ldw	r4,20(sp)
        ldw   r5,  24(sp)
100000b8:	d9400617 	ldw	r5,24(sp)
        ldw   r6,  28(sp)
100000bc:	d9800717 	ldw	r6,28(sp)
        ldw   r7,  32(sp)
100000c0:	d9c00817 	ldw	r7,32(sp)

#if defined(ALT_EXCEPTION_STACK) && defined(ALT_STACK_CHECK)
        ldw   et, %gprel(alt_exception_old_stack_limit)(gp)
#endif

        ldw   r8,  36(sp)
100000c4:	da000917 	ldw	r8,36(sp)
        ldw   r9,  40(sp)
100000c8:	da400a17 	ldw	r9,40(sp)
        ldw   r10, 44(sp)
100000cc:	da800b17 	ldw	r10,44(sp)
        ldw   r11, 48(sp)
100000d0:	dac00c17 	ldw	r11,48(sp)
        ldw   r12, 52(sp)
100000d4:	db000d17 	ldw	r12,52(sp)
        ldw   r13, 56(sp)
100000d8:	db400e17 	ldw	r13,56(sp)
        ldw   r14, 60(sp)
100000dc:	db800f17 	ldw	r14,60(sp)
        ldw   r15, 64(sp)
100000e0:	dbc01017 	ldw	r15,64(sp)
        stw   et, %gprel(alt_stack_limit_value)(gp)
        stw   zero, %gprel(alt_exception_old_stack_limit)(gp)
#endif /* ALT_STACK_CHECK */
        ldw   sp,  76(sp)
#else /* ALT_EXCEPTION_STACK disabled */
        addi  sp, sp, 76
100000e4:	dec01304 	addi	sp,sp,76

        /*
         * Return to the interrupted instruction.
         */

        eret
100000e8:	ef80083a 	eret

100000ec <alt_irq_handler>:
 * instruction is present if the macro ALT_CI_INTERRUPT_VECTOR defined.
 */

void alt_irq_handler (void) __attribute__ ((section (".exceptions")));
void alt_irq_handler (void)
{
100000ec:	defff904 	addi	sp,sp,-28
100000f0:	dfc00615 	stw	ra,24(sp)
100000f4:	df000515 	stw	fp,20(sp)
100000f8:	df000504 	addi	fp,sp,20
  
  /*
   * Notify the operating system that we are at interrupt level.
   */ 
  
  ALT_OS_INT_ENTER();
100000fc:	0001883a 	nop
#ifndef NIOS2_EIC_PRESENT
static ALT_INLINE alt_u32 ALT_ALWAYS_INLINE alt_irq_pending (void)
{
  alt_u32 active;

  NIOS2_READ_IPENDING (active);
10000100:	0005313a 	rdctl	r2,ipending
10000104:	e0bffe15 	stw	r2,-8(fp)

  return active;
10000108:	e0bffe17 	ldw	r2,-8(fp)
   * Consider the case where the high priority interupt is asserted during
   * the interrupt entry sequence for a lower priority interrupt to see why
   * this is the case.
   */

  active = alt_irq_pending ();
1000010c:	e0bffb15 	stw	r2,-20(fp)

  do
  {
    i = 0;
10000110:	e03ffd15 	stw	zero,-12(fp)
    mask = 1;
10000114:	00800044 	movi	r2,1
10000118:	e0bffc15 	stw	r2,-16(fp)
     * called to clear the interrupt condition.
     */

    do
    {
      if (active & mask)
1000011c:	e0fffb17 	ldw	r3,-20(fp)
10000120:	e0bffc17 	ldw	r2,-16(fp)
10000124:	1884703a 	and	r2,r3,r2
10000128:	10001426 	beq	r2,zero,1000017c <alt_irq_handler+0x90>
      { 
#ifdef ALT_ENHANCED_INTERRUPT_API_PRESENT
        alt_irq[i].handler(alt_irq[i].context); 
1000012c:	00840074 	movhi	r2,4097
10000130:	10951c04 	addi	r2,r2,21616
10000134:	e0fffd17 	ldw	r3,-12(fp)
10000138:	180690fa 	slli	r3,r3,3
1000013c:	10c5883a 	add	r2,r2,r3
10000140:	10c00017 	ldw	r3,0(r2)
10000144:	00840074 	movhi	r2,4097
10000148:	10951c04 	addi	r2,r2,21616
1000014c:	e13ffd17 	ldw	r4,-12(fp)
10000150:	200890fa 	slli	r4,r4,3
10000154:	1105883a 	add	r2,r2,r4
10000158:	10800104 	addi	r2,r2,4
1000015c:	10800017 	ldw	r2,0(r2)
10000160:	1009883a 	mov	r4,r2
10000164:	183ee83a 	callr	r3
#else
        alt_irq[i].handler(alt_irq[i].context, i); 
#endif
        break;
10000168:	0001883a 	nop
#ifndef NIOS2_EIC_PRESENT
static ALT_INLINE alt_u32 ALT_ALWAYS_INLINE alt_irq_pending (void)
{
  alt_u32 active;

  NIOS2_READ_IPENDING (active);
1000016c:	0005313a 	rdctl	r2,ipending
10000170:	e0bfff15 	stw	r2,-4(fp)

  return active;
10000174:	e0bfff17 	ldw	r2,-4(fp)
10000178:	00000706 	br	10000198 <alt_irq_handler+0xac>
      }
      mask <<= 1;
1000017c:	e0bffc17 	ldw	r2,-16(fp)
10000180:	1085883a 	add	r2,r2,r2
10000184:	e0bffc15 	stw	r2,-16(fp)
      i++;
10000188:	e0bffd17 	ldw	r2,-12(fp)
1000018c:	10800044 	addi	r2,r2,1
10000190:	e0bffd15 	stw	r2,-12(fp)

    } while (1);
10000194:	003fe106 	br	1000011c <__alt_data_end+0xf800011c>

    active = alt_irq_pending ();
10000198:	e0bffb15 	stw	r2,-20(fp)
    
  } while (active);
1000019c:	e0bffb17 	ldw	r2,-20(fp)
100001a0:	103fdb1e 	bne	r2,zero,10000110 <__alt_data_end+0xf8000110>

  /*
   * Notify the operating system that interrupt processing is complete.
   */ 

  ALT_OS_INT_EXIT();
100001a4:	0001883a 	nop
}
100001a8:	e037883a 	mov	sp,fp
100001ac:	dfc00117 	ldw	ra,4(sp)
100001b0:	df000017 	ldw	fp,0(sp)
100001b4:	dec00204 	addi	sp,sp,8
100001b8:	f800283a 	ret

Disassembly of section .text:

100001bc <_start>:

    /*
     * Now that the caches are initialized, set up the stack pointer and global pointer.
     * The values provided by the linker are assumed to be correctly aligned.
     */
    movhi sp, %hi(__alt_stack_pointer)
100001bc:	06c60034 	movhi	sp,6144
    ori sp, sp, %lo(__alt_stack_pointer)
100001c0:	dec00014 	ori	sp,sp,0
    movhi gp, %hi(_gp)
100001c4:	06840074 	movhi	gp,4097
    ori gp, gp, %lo(_gp)
100001c8:	d6ae3714 	ori	gp,gp,47324
 */
#ifndef ALT_SIM_OPTIMIZE
    /* Log that the BSS is about to be cleared. */
    ALT_LOG_PUTS(alt_log_msg_bss)

    movhi r2, %hi(__bss_start)
100001cc:	00840074 	movhi	r2,4097
    ori r2, r2, %lo(__bss_start)
100001d0:	10950414 	ori	r2,r2,21520

    movhi r3, %hi(__bss_end)
100001d4:	00c40074 	movhi	r3,4097
    ori r3, r3, %lo(__bss_end)
100001d8:	18d55c14 	ori	r3,r3,21872

    beq r2, r3, 1f
100001dc:	10c00326 	beq	r2,r3,100001ec <_start+0x30>

0:
    stw zero, (r2)
100001e0:	10000015 	stw	zero,0(r2)
    addi r2, r2, 4
100001e4:	10800104 	addi	r2,r2,4
    bltu r2, r3, 0b
100001e8:	10fffd36 	bltu	r2,r3,100001e0 <__alt_data_end+0xf80001e0>
     * section aren't defined until alt_load() has been called).
     */
    mov   et, zero
#endif

    call alt_load
100001ec:	000ef080 	call	1000ef08 <alt_load>

    /* Log that alt_main is about to be called. */
    ALT_LOG_PUTS(alt_log_msg_alt_main)

    /* Call the C entry point. It should never return. */
    call alt_main
100001f0:	000f0b40 	call	1000f0b4 <alt_main>

100001f4 <alt_after_alt_main>:

    /* Wait in infinite loop in case alt_main does return. */
alt_after_alt_main:
    br alt_after_alt_main
100001f4:	003fff06 	br	100001f4 <__alt_data_end+0xf80001f4>

100001f8 <IO_init>:
#define otg_hpi_cs			(volatile char*)	OTG_HPI_CS_BASE //FOR SOME REASON CS BASE BEHAVES WEIRDLY MIGHT HAVE TO SET MANUALLY
#define otg_hpi_w			(volatile char*)	OTG_HPI_W_BASE


void IO_init(void)
{
100001f8:	deffff04 	addi	sp,sp,-4
100001fc:	df000015 	stw	fp,0(sp)
10000200:	d839883a 	mov	fp,sp
	*otg_hpi_cs = 1;
10000204:	00800c04 	movi	r2,48
10000208:	00c00044 	movi	r3,1
1000020c:	10c00005 	stb	r3,0(r2)
	*otg_hpi_r = 1;
10000210:	00801404 	movi	r2,80
10000214:	00c00044 	movi	r3,1
10000218:	10c00005 	stb	r3,0(r2)
	*otg_hpi_w = 1;
1000021c:	00801004 	movi	r2,64
10000220:	00c00044 	movi	r3,1
10000224:	10c00005 	stb	r3,0(r2)
	*otg_hpi_address = 0;
10000228:	00801c04 	movi	r2,112
1000022c:	10000015 	stw	zero,0(r2)
	*otg_hpi_data = 0;
10000230:	00801804 	movi	r2,96
10000234:	10000015 	stw	zero,0(r2)
}
10000238:	e037883a 	mov	sp,fp
1000023c:	df000017 	ldw	fp,0(sp)
10000240:	dec00104 	addi	sp,sp,4
10000244:	f800283a 	ret

10000248 <IO_write>:

void IO_write(alt_u8 Address, alt_u16 Data)
{
10000248:	defffd04 	addi	sp,sp,-12
1000024c:	df000215 	stw	fp,8(sp)
10000250:	df000204 	addi	fp,sp,8
10000254:	2007883a 	mov	r3,r4
10000258:	2805883a 	mov	r2,r5
1000025c:	e0fffe05 	stb	r3,-8(fp)
10000260:	e0bfff0d 	sth	r2,-4(fp)
//*************************************************************************//
//									TASK								   //
//*************************************************************************//
//							Write this function							   //
//*************************************************************************//
	*otg_hpi_address = Address;
10000264:	00801c04 	movi	r2,112
10000268:	e0fffe03 	ldbu	r3,-8(fp)
1000026c:	10c00015 	stw	r3,0(r2)
	*otg_hpi_data = Data;
10000270:	00801804 	movi	r2,96
10000274:	e0ffff0b 	ldhu	r3,-4(fp)
10000278:	10c00015 	stw	r3,0(r2)
	*otg_hpi_cs = 0;
1000027c:	00800c04 	movi	r2,48
10000280:	10000005 	stb	zero,0(r2)
	*otg_hpi_w = 0;
10000284:	00801004 	movi	r2,64
10000288:	10000005 	stb	zero,0(r2)
	*otg_hpi_w = 1;
1000028c:	00801004 	movi	r2,64
10000290:	00c00044 	movi	r3,1
10000294:	10c00005 	stb	r3,0(r2)
	*otg_hpi_cs = 1;
10000298:	00800c04 	movi	r2,48
1000029c:	00c00044 	movi	r3,1
100002a0:	10c00005 	stb	r3,0(r2)

}
100002a4:	e037883a 	mov	sp,fp
100002a8:	df000017 	ldw	fp,0(sp)
100002ac:	dec00104 	addi	sp,sp,4
100002b0:	f800283a 	ret

100002b4 <IO_read>:

alt_u16 IO_read(alt_u8 Address)
{
100002b4:	defffd04 	addi	sp,sp,-12
100002b8:	df000215 	stw	fp,8(sp)
100002bc:	df000204 	addi	fp,sp,8
100002c0:	2005883a 	mov	r2,r4
100002c4:	e0bfff05 	stb	r2,-4(fp)
//*************************************************************************//
//									TASK								   //
//*************************************************************************//
//							Write this function							   //
//*************************************************************************//
	*otg_hpi_address = Address;
100002c8:	00801c04 	movi	r2,112
100002cc:	e0ffff03 	ldbu	r3,-4(fp)
100002d0:	10c00015 	stw	r3,0(r2)
	*otg_hpi_cs = 0;
100002d4:	00800c04 	movi	r2,48
100002d8:	10000005 	stb	zero,0(r2)
	*otg_hpi_r = 0;
100002dc:	00801404 	movi	r2,80
100002e0:	10000005 	stb	zero,0(r2)
	temp = *otg_hpi_data;
100002e4:	00801804 	movi	r2,96
100002e8:	10800017 	ldw	r2,0(r2)
100002ec:	e0bffe0d 	sth	r2,-8(fp)
	*otg_hpi_r = 1;
100002f0:	00801404 	movi	r2,80
100002f4:	00c00044 	movi	r3,1
100002f8:	10c00005 	stb	r3,0(r2)
	*otg_hpi_cs = 1;
100002fc:	00800c04 	movi	r2,48
10000300:	00c00044 	movi	r3,1
10000304:	10c00005 	stb	r3,0(r2)


	//printf("%x\n",temp);
	return temp;
10000308:	e0bffe0b 	ldhu	r2,-8(fp)
}
1000030c:	e037883a 	mov	sp,fp
10000310:	df000017 	ldw	fp,0(sp)
10000314:	dec00104 	addi	sp,sp,4
10000318:	f800283a 	ret

1000031c <main>:
//                                Main function
//
//----------------------------------------------------------------------------------------//

int main(void)
{
1000031c:	defff804 	addi	sp,sp,-32
10000320:	dfc00715 	stw	ra,28(sp)
10000324:	df000615 	stw	fp,24(sp)
10000328:	df000604 	addi	fp,sp,24
	IO_init();
1000032c:	00001f80 	call	100001f8 <IO_init>

	alt_u16 intStat;
	alt_u16 usb_ctl_val;
	static alt_u16 ctl_reg = 0;
	static alt_u16 no_device = 0;
	alt_u16 fs_device = 0;
10000330:	e03ffb0d 	sth	zero,-20(fp)
	int keycode = 0;
10000334:	e03ffc15 	stw	zero,-16(fp)
	int keycode1 = 0;
10000338:	e03ffd15 	stw	zero,-12(fp)
	alt_u8 toggle = 0;
1000033c:	e03ffa85 	stb	zero,-22(fp)
	alt_u8 data_size;
	alt_u8 hot_plug_count;
	alt_u16 code;

	printf("USB keyboard setup...\n\n");
10000340:	01040074 	movhi	r4,4097
10000344:	2104e404 	addi	r4,r4,5008
10000348:	00023080 	call	10002308 <puts>

	//----------------------------------------SIE1 initial---------------------------------------------------//
	USB_HOT_PLUG:
	UsbSoftReset();
1000034c:	000113c0 	call	1000113c <UsbSoftReset>

	// STEP 1a:
	UsbWrite (HPI_SIE1_MSG_ADR, 0);
10000350:	01005104 	movi	r4,324
10000354:	000b883a 	mov	r5,zero
10000358:	00010a40 	call	100010a4 <UsbWrite>
	UsbWrite (HOST1_STAT_REG, 0xFFFF);
1000035c:	01302414 	movui	r4,49296
10000360:	017fffd4 	movui	r5,65535
10000364:	00010a40 	call	100010a4 <UsbWrite>

	/* Set HUSB_pEOT time */
	UsbWrite(HUSB_pEOT, 600); // adjust the according to your USB device speed
10000368:	01006d04 	movi	r4,436
1000036c:	01409604 	movi	r5,600
10000370:	00010a40 	call	100010a4 <UsbWrite>

	usb_ctl_val = SOFEOP1_TO_CPU_EN | RESUME1_TO_HPI_EN;// | SOFEOP1_TO_HPI_EN;
10000374:	00811004 	movi	r2,1088
10000378:	e0bffa0d 	sth	r2,-24(fp)
	UsbWrite(HPI_IRQ_ROUTING_REG, usb_ctl_val);
1000037c:	e0bffa0b 	ldhu	r2,-24(fp)
10000380:	01005084 	movi	r4,322
10000384:	100b883a 	mov	r5,r2
10000388:	00010a40 	call	100010a4 <UsbWrite>

	intStat = A_CHG_IRQ_EN | SOF_EOP_IRQ_EN ;
1000038c:	00808404 	movi	r2,528
10000390:	e0bffe0d 	sth	r2,-8(fp)
	UsbWrite(HOST1_IRQ_EN_REG, intStat);
10000394:	e0bffe0b 	ldhu	r2,-8(fp)
10000398:	01302314 	movui	r4,49292
1000039c:	100b883a 	mov	r5,r2
100003a0:	00010a40 	call	100010a4 <UsbWrite>
	// STEP 1a end

	// STEP 1b begin
	UsbWrite(COMM_R0,0x0000);//reset time
100003a4:	01007104 	movi	r4,452
100003a8:	000b883a 	mov	r5,zero
100003ac:	00010a40 	call	100010a4 <UsbWrite>
	UsbWrite(COMM_R1,0x0000);  //port number
100003b0:	01007184 	movi	r4,454
100003b4:	000b883a 	mov	r5,zero
100003b8:	00010a40 	call	100010a4 <UsbWrite>
	UsbWrite(COMM_R2,0x0000);  //r1
100003bc:	01007204 	movi	r4,456
100003c0:	000b883a 	mov	r5,zero
100003c4:	00010a40 	call	100010a4 <UsbWrite>
	UsbWrite(COMM_R3,0x0000);  //r1
100003c8:	01007284 	movi	r4,458
100003cc:	000b883a 	mov	r5,zero
100003d0:	00010a40 	call	100010a4 <UsbWrite>
	UsbWrite(COMM_R4,0x0000);  //r1
100003d4:	01007304 	movi	r4,460
100003d8:	000b883a 	mov	r5,zero
100003dc:	00010a40 	call	100010a4 <UsbWrite>
	UsbWrite(COMM_R5,0x0000);  //r1
100003e0:	01007384 	movi	r4,462
100003e4:	000b883a 	mov	r5,zero
100003e8:	00010a40 	call	100010a4 <UsbWrite>
	UsbWrite(COMM_R6,0x0000);  //r1
100003ec:	01007404 	movi	r4,464
100003f0:	000b883a 	mov	r5,zero
100003f4:	00010a40 	call	100010a4 <UsbWrite>
	UsbWrite(COMM_R7,0x0000);  //r1
100003f8:	01007484 	movi	r4,466
100003fc:	000b883a 	mov	r5,zero
10000400:	00010a40 	call	100010a4 <UsbWrite>
	UsbWrite(COMM_R8,0x0000);  //r1
10000404:	01007504 	movi	r4,468
10000408:	000b883a 	mov	r5,zero
1000040c:	00010a40 	call	100010a4 <UsbWrite>
	UsbWrite(COMM_R9,0x0000);  //r1
10000410:	01007584 	movi	r4,470
10000414:	000b883a 	mov	r5,zero
10000418:	00010a40 	call	100010a4 <UsbWrite>
	UsbWrite(COMM_R10,0x0000);  //r1
1000041c:	01007604 	movi	r4,472
10000420:	000b883a 	mov	r5,zero
10000424:	00010a40 	call	100010a4 <UsbWrite>
	UsbWrite(COMM_R11,0x0000);  //r1
10000428:	01007684 	movi	r4,474
1000042c:	000b883a 	mov	r5,zero
10000430:	00010a40 	call	100010a4 <UsbWrite>
	UsbWrite(COMM_R12,0x0000);  //r1
10000434:	01007704 	movi	r4,476
10000438:	000b883a 	mov	r5,zero
1000043c:	00010a40 	call	100010a4 <UsbWrite>
	UsbWrite(COMM_R13,0x0000);  //r1
10000440:	01007784 	movi	r4,478
10000444:	000b883a 	mov	r5,zero
10000448:	00010a40 	call	100010a4 <UsbWrite>
	UsbWrite(COMM_INT_NUM,HUSB_SIE1_INIT_INT); //HUSB_SIE1_INIT_INT
1000044c:	01007084 	movi	r4,450
10000450:	01401c84 	movi	r5,114
10000454:	00010a40 	call	100010a4 <UsbWrite>
	IO_write(HPI_MAILBOX,COMM_EXEC_INT);
10000458:	01000044 	movi	r4,1
1000045c:	01738054 	movui	r5,52737
10000460:	00002480 	call	10000248 <IO_write>

	while (!(IO_read(HPI_STATUS) & 0xFFFF) )  //read sie1 msg register
10000464:	0001883a 	nop
10000468:	010000c4 	movi	r4,3
1000046c:	00002b40 	call	100002b4 <IO_read>
10000470:	10bfffcc 	andi	r2,r2,65535
10000474:	103ffc26 	beq	r2,zero,10000468 <__alt_data_end+0xf8000468>
	{
	}
	while (IO_read(HPI_MAILBOX) != COMM_ACK)
10000478:	0001883a 	nop
1000047c:	01000044 	movi	r4,1
10000480:	00002b40 	call	100002b4 <IO_read>
10000484:	10bfffcc 	andi	r2,r2,65535
10000488:	1083fb58 	cmpnei	r2,r2,4077
1000048c:	10000826 	beq	r2,zero,100004b0 <main+0x194>
	{
		printf("[ERROR]:routine mailbox data is %x\n",IO_read(HPI_MAILBOX));
10000490:	01000044 	movi	r4,1
10000494:	00002b40 	call	100002b4 <IO_read>
10000498:	10bfffcc 	andi	r2,r2,65535
1000049c:	01040074 	movhi	r4,4097
100004a0:	2104ea04 	addi	r4,r4,5032
100004a4:	100b883a 	mov	r5,r2
100004a8:	00022140 	call	10002214 <printf>
		goto USB_HOT_PLUG;
100004ac:	003fa706 	br	1000034c <__alt_data_end+0xf800034c>
	}
	// STEP 1b end

	printf("STEP 1 Complete");
100004b0:	01040074 	movhi	r4,4097
100004b4:	2104f304 	addi	r4,r4,5068
100004b8:	00022140 	call	10002214 <printf>
	// STEP 2 begin
	UsbWrite(COMM_INT_NUM,HUSB_RESET_INT); //husb reset
100004bc:	01007084 	movi	r4,450
100004c0:	01401d04 	movi	r5,116
100004c4:	00010a40 	call	100010a4 <UsbWrite>
	UsbWrite(COMM_R0,0x003c);//reset time
100004c8:	01007104 	movi	r4,452
100004cc:	01400f04 	movi	r5,60
100004d0:	00010a40 	call	100010a4 <UsbWrite>
	UsbWrite(COMM_R1,0x0000);  //port number
100004d4:	01007184 	movi	r4,454
100004d8:	000b883a 	mov	r5,zero
100004dc:	00010a40 	call	100010a4 <UsbWrite>
	UsbWrite(COMM_R2,0x0000);  //r1
100004e0:	01007204 	movi	r4,456
100004e4:	000b883a 	mov	r5,zero
100004e8:	00010a40 	call	100010a4 <UsbWrite>
	UsbWrite(COMM_R3,0x0000);  //r1
100004ec:	01007284 	movi	r4,458
100004f0:	000b883a 	mov	r5,zero
100004f4:	00010a40 	call	100010a4 <UsbWrite>
	UsbWrite(COMM_R4,0x0000);  //r1
100004f8:	01007304 	movi	r4,460
100004fc:	000b883a 	mov	r5,zero
10000500:	00010a40 	call	100010a4 <UsbWrite>
	UsbWrite(COMM_R5,0x0000);  //r1
10000504:	01007384 	movi	r4,462
10000508:	000b883a 	mov	r5,zero
1000050c:	00010a40 	call	100010a4 <UsbWrite>
	UsbWrite(COMM_R6,0x0000);  //r1
10000510:	01007404 	movi	r4,464
10000514:	000b883a 	mov	r5,zero
10000518:	00010a40 	call	100010a4 <UsbWrite>
	UsbWrite(COMM_R7,0x0000);  //r1
1000051c:	01007484 	movi	r4,466
10000520:	000b883a 	mov	r5,zero
10000524:	00010a40 	call	100010a4 <UsbWrite>
	UsbWrite(COMM_R8,0x0000);  //r1
10000528:	01007504 	movi	r4,468
1000052c:	000b883a 	mov	r5,zero
10000530:	00010a40 	call	100010a4 <UsbWrite>
	UsbWrite(COMM_R9,0x0000);  //r1
10000534:	01007584 	movi	r4,470
10000538:	000b883a 	mov	r5,zero
1000053c:	00010a40 	call	100010a4 <UsbWrite>
	UsbWrite(COMM_R10,0x0000);  //r1
10000540:	01007604 	movi	r4,472
10000544:	000b883a 	mov	r5,zero
10000548:	00010a40 	call	100010a4 <UsbWrite>
	UsbWrite(COMM_R11,0x0000);  //r1
1000054c:	01007684 	movi	r4,474
10000550:	000b883a 	mov	r5,zero
10000554:	00010a40 	call	100010a4 <UsbWrite>
	UsbWrite(COMM_R12,0x0000);  //r1
10000558:	01007704 	movi	r4,476
1000055c:	000b883a 	mov	r5,zero
10000560:	00010a40 	call	100010a4 <UsbWrite>
	UsbWrite(COMM_R13,0x0000);  //r1
10000564:	01007784 	movi	r4,478
10000568:	000b883a 	mov	r5,zero
1000056c:	00010a40 	call	100010a4 <UsbWrite>

	IO_write(HPI_MAILBOX,COMM_EXEC_INT);
10000570:	01000044 	movi	r4,1
10000574:	01738054 	movui	r5,52737
10000578:	00002480 	call	10000248 <IO_write>

	while (IO_read(HPI_MAILBOX) != COMM_ACK)
1000057c:	0001883a 	nop
10000580:	01000044 	movi	r4,1
10000584:	00002b40 	call	100002b4 <IO_read>
10000588:	10bfffcc 	andi	r2,r2,65535
1000058c:	1083fb58 	cmpnei	r2,r2,4077
10000590:	10000826 	beq	r2,zero,100005b4 <main+0x298>
	{
		printf("[ERROR]:routine mailbox data is %x\n",IO_read(HPI_MAILBOX));
10000594:	01000044 	movi	r4,1
10000598:	00002b40 	call	100002b4 <IO_read>
1000059c:	10bfffcc 	andi	r2,r2,65535
100005a0:	01040074 	movhi	r4,4097
100005a4:	2104ea04 	addi	r4,r4,5032
100005a8:	100b883a 	mov	r5,r2
100005ac:	00022140 	call	10002214 <printf>
		goto USB_HOT_PLUG;
100005b0:	003f6606 	br	1000034c <__alt_data_end+0xf800034c>
	}
	// STEP 2 end

	ctl_reg = USB1_CTL_REG;
100005b4:	00b02284 	movi	r2,-16246
100005b8:	d0a6cd0d 	sth	r2,-25804(gp)
	no_device = (A_DP_STAT | A_DM_STAT);
100005bc:	008c0004 	movi	r2,12288
100005c0:	d0a6cd8d 	sth	r2,-25802(gp)
	fs_device = A_DP_STAT;
100005c4:	00880004 	movi	r2,8192
100005c8:	e0bffb0d 	sth	r2,-20(fp)
	usb_ctl_val = UsbRead(ctl_reg);
100005cc:	d0a6cd0b 	ldhu	r2,-25804(gp)
100005d0:	10bfffcc 	andi	r2,r2,65535
100005d4:	1009883a 	mov	r4,r2
100005d8:	00010f80 	call	100010f8 <UsbRead>
100005dc:	e0bffa0d 	sth	r2,-24(fp)

	if (!(usb_ctl_val & no_device))
100005e0:	d0a6cd8b 	ldhu	r2,-25802(gp)
100005e4:	e0fffa0b 	ldhu	r3,-24(fp)
100005e8:	1884703a 	and	r2,r3,r2
100005ec:	10bfffcc 	andi	r2,r2,65535
100005f0:	1000341e 	bne	r2,zero,100006c4 <main+0x3a8>
	{
		for(hot_plug_count = 0 ; hot_plug_count < 5 ; hot_plug_count++)
100005f4:	e03ffac5 	stb	zero,-21(fp)
100005f8:	00001006 	br	1000063c <main+0x320>
		{
			usleep(5*1000);
100005fc:	0104e204 	movi	r4,5000
10000600:	000f3f00 	call	1000f3f0 <usleep>
			usb_ctl_val = UsbRead(ctl_reg);
10000604:	d0a6cd0b 	ldhu	r2,-25804(gp)
10000608:	10bfffcc 	andi	r2,r2,65535
1000060c:	1009883a 	mov	r4,r2
10000610:	00010f80 	call	100010f8 <UsbRead>
10000614:	e0bffa0d 	sth	r2,-24(fp)
			if(usb_ctl_val & no_device) break;
10000618:	d0a6cd8b 	ldhu	r2,-25802(gp)
1000061c:	e0fffa0b 	ldhu	r3,-24(fp)
10000620:	1884703a 	and	r2,r3,r2
10000624:	10bfffcc 	andi	r2,r2,65535
10000628:	10000126 	beq	r2,zero,10000630 <main+0x314>
1000062c:	00000606 	br	10000648 <main+0x32c>
	fs_device = A_DP_STAT;
	usb_ctl_val = UsbRead(ctl_reg);

	if (!(usb_ctl_val & no_device))
	{
		for(hot_plug_count = 0 ; hot_plug_count < 5 ; hot_plug_count++)
10000630:	e0bffac3 	ldbu	r2,-21(fp)
10000634:	10800044 	addi	r2,r2,1
10000638:	e0bffac5 	stb	r2,-21(fp)
1000063c:	e0bffac3 	ldbu	r2,-21(fp)
10000640:	10800170 	cmpltui	r2,r2,5
10000644:	103fed1e 	bne	r2,zero,100005fc <__alt_data_end+0xf80005fc>
		{
			usleep(5*1000);
			usb_ctl_val = UsbRead(ctl_reg);
			if(usb_ctl_val & no_device) break;
		}
		if(!(usb_ctl_val & no_device))
10000648:	d0a6cd8b 	ldhu	r2,-25802(gp)
1000064c:	e0fffa0b 	ldhu	r3,-24(fp)
10000650:	1884703a 	and	r2,r3,r2
10000654:	10bfffcc 	andi	r2,r2,65535
10000658:	1000261e 	bne	r2,zero,100006f4 <main+0x3d8>
		{
			printf("\n[INFO]: no device is present in SIE1!\n");
1000065c:	01040074 	movhi	r4,4097
10000660:	2104f704 	addi	r4,r4,5084
10000664:	00023080 	call	10002308 <puts>
			printf("[INFO]: please insert a USB keyboard in SIE1!\n");
10000668:	01040074 	movhi	r4,4097
1000066c:	21050104 	addi	r4,r4,5124
10000670:	00023080 	call	10002308 <puts>
			while (!(usb_ctl_val & no_device))
10000674:	00000d06 	br	100006ac <main+0x390>
			{
				usb_ctl_val = UsbRead(ctl_reg);
10000678:	d0a6cd0b 	ldhu	r2,-25804(gp)
1000067c:	10bfffcc 	andi	r2,r2,65535
10000680:	1009883a 	mov	r4,r2
10000684:	00010f80 	call	100010f8 <UsbRead>
10000688:	e0bffa0d 	sth	r2,-24(fp)
				if(usb_ctl_val & no_device)
1000068c:	d0a6cd8b 	ldhu	r2,-25802(gp)
10000690:	e0fffa0b 	ldhu	r3,-24(fp)
10000694:	1884703a 	and	r2,r3,r2
10000698:	10bfffcc 	andi	r2,r2,65535
1000069c:	10000126 	beq	r2,zero,100006a4 <main+0x388>
					goto USB_HOT_PLUG;
100006a0:	003f2a06 	br	1000034c <__alt_data_end+0xf800034c>

				usleep(2000);
100006a4:	0101f404 	movi	r4,2000
100006a8:	000f3f00 	call	1000f3f0 <usleep>
		}
		if(!(usb_ctl_val & no_device))
		{
			printf("\n[INFO]: no device is present in SIE1!\n");
			printf("[INFO]: please insert a USB keyboard in SIE1!\n");
			while (!(usb_ctl_val & no_device))
100006ac:	d0a6cd8b 	ldhu	r2,-25802(gp)
100006b0:	e0fffa0b 	ldhu	r3,-24(fp)
100006b4:	1884703a 	and	r2,r3,r2
100006b8:	10bfffcc 	andi	r2,r2,65535
100006bc:	103fee26 	beq	r2,zero,10000678 <__alt_data_end+0xf8000678>
100006c0:	00000c06 	br	100006f4 <main+0x3d8>
		}
	}
	else
	{
		/* check for low speed or full speed by reading D+ and D- lines */
		if (usb_ctl_val & fs_device)
100006c4:	e0fffa0b 	ldhu	r3,-24(fp)
100006c8:	e0bffb0b 	ldhu	r2,-20(fp)
100006cc:	1884703a 	and	r2,r3,r2
100006d0:	10bfffcc 	andi	r2,r2,65535
100006d4:	10000426 	beq	r2,zero,100006e8 <main+0x3cc>
		{
			printf("[INFO]: full speed device\n");
100006d8:	01040074 	movhi	r4,4097
100006dc:	21050d04 	addi	r4,r4,5172
100006e0:	00023080 	call	10002308 <puts>
100006e4:	00000306 	br	100006f4 <main+0x3d8>
		}
		else
		{
			printf("[INFO]: low speed device\n");
100006e8:	01040074 	movhi	r4,4097
100006ec:	21051404 	addi	r4,r4,5200
100006f0:	00023080 	call	10002308 <puts>



	// STEP 3 begin
	//------------------------------------------------------set address -----------------------------------------------------------------
	UsbSetAddress();
100006f4:	00011ec0 	call	100011ec <UsbSetAddress>

	while (!(IO_read(HPI_STATUS) & HPI_STATUS_SIE1msg_FLAG) )  //read sie1 msg register
100006f8:	00000306 	br	10000708 <main+0x3ec>
	{
		UsbSetAddress();
100006fc:	00011ec0 	call	100011ec <UsbSetAddress>
		usleep(10*1000);
10000700:	0109c404 	movi	r4,10000
10000704:	000f3f00 	call	1000f3f0 <usleep>

	// STEP 3 begin
	//------------------------------------------------------set address -----------------------------------------------------------------
	UsbSetAddress();

	while (!(IO_read(HPI_STATUS) & HPI_STATUS_SIE1msg_FLAG) )  //read sie1 msg register
10000708:	010000c4 	movi	r4,3
1000070c:	00002b40 	call	100002b4 <IO_read>
10000710:	10bfffcc 	andi	r2,r2,65535
10000714:	1080040c 	andi	r2,r2,16
10000718:	103ff826 	beq	r2,zero,100006fc <__alt_data_end+0xf80006fc>
	{
		UsbSetAddress();
		usleep(10*1000);
	}

	UsbWaitTDListDone();
1000071c:	00020680 	call	10002068 <UsbWaitTDListDone>

	IO_write(HPI_ADDR,0x0506); // i
10000720:	01000084 	movi	r4,2
10000724:	01414184 	movi	r5,1286
10000728:	00002480 	call	10000248 <IO_write>
	printf("[ENUM PROCESS]:step 3 TD Status Byte is %x\n",IO_read(HPI_DATA));
1000072c:	0009883a 	mov	r4,zero
10000730:	00002b40 	call	100002b4 <IO_read>
10000734:	10bfffcc 	andi	r2,r2,65535
10000738:	01040074 	movhi	r4,4097
1000073c:	21051b04 	addi	r4,r4,5228
10000740:	100b883a 	mov	r5,r2
10000744:	00022140 	call	10002214 <printf>

	IO_write(HPI_ADDR,0x0508); // n
10000748:	01000084 	movi	r4,2
1000074c:	01414204 	movi	r5,1288
10000750:	00002480 	call	10000248 <IO_write>
	usb_ctl_val = IO_read(HPI_DATA);
10000754:	0009883a 	mov	r4,zero
10000758:	00002b40 	call	100002b4 <IO_read>
1000075c:	e0bffa0d 	sth	r2,-24(fp)
	printf("[ENUM PROCESS]:step 3 TD Control Byte is %x\n",usb_ctl_val);
10000760:	e0bffa0b 	ldhu	r2,-24(fp)
10000764:	01040074 	movhi	r4,4097
10000768:	21052604 	addi	r4,r4,5272
1000076c:	100b883a 	mov	r5,r2
10000770:	00022140 	call	10002214 <printf>
	while (usb_ctl_val != 0x03) // retries occurred
10000774:	e0bffa0b 	ldhu	r2,-24(fp)
10000778:	108000e0 	cmpeqi	r2,r2,3
1000077c:	1000031e 	bne	r2,zero,1000078c <main+0x470>
	{
		usb_ctl_val = UsbGetRetryCnt();
10000780:	00020ec0 	call	100020ec <UsbGetRetryCnt>
10000784:	e0bffa0d 	sth	r2,-24(fp)

		goto USB_HOT_PLUG;
10000788:	003ef006 	br	1000034c <__alt_data_end+0xf800034c>
	}

	printf("------------[ENUM PROCESS]:set address done!---------------\n");
1000078c:	01040074 	movhi	r4,4097
10000790:	21053204 	addi	r4,r4,5320
10000794:	00023080 	call	10002308 <puts>

	// STEP 4 begin
	//-------------------------------get device descriptor-1 -----------------------------------//
	// TASK: Call the appropriate function for this step.
	UsbGetDeviceDesc1(); 	// Get Device Descriptor -1
10000798:	00012e80 	call	100012e8 <UsbGetDeviceDesc1>

	//usleep(10*1000);
	while (!(IO_read(HPI_STATUS) & HPI_STATUS_SIE1msg_FLAG) )  //read sie1 msg register
1000079c:	00000306 	br	100007ac <main+0x490>
	{
		// TASK: Call the appropriate function again if it wasn't processed successfully.
		UsbGetDeviceDesc1();
100007a0:	00012e80 	call	100012e8 <UsbGetDeviceDesc1>
		usleep(10*1000);
100007a4:	0109c404 	movi	r4,10000
100007a8:	000f3f00 	call	1000f3f0 <usleep>
	//-------------------------------get device descriptor-1 -----------------------------------//
	// TASK: Call the appropriate function for this step.
	UsbGetDeviceDesc1(); 	// Get Device Descriptor -1

	//usleep(10*1000);
	while (!(IO_read(HPI_STATUS) & HPI_STATUS_SIE1msg_FLAG) )  //read sie1 msg register
100007ac:	010000c4 	movi	r4,3
100007b0:	00002b40 	call	100002b4 <IO_read>
100007b4:	10bfffcc 	andi	r2,r2,65535
100007b8:	1080040c 	andi	r2,r2,16
100007bc:	103ff826 	beq	r2,zero,100007a0 <__alt_data_end+0xf80007a0>
		// TASK: Call the appropriate function again if it wasn't processed successfully.
		UsbGetDeviceDesc1();
		usleep(10*1000);
	}

	UsbWaitTDListDone();
100007c0:	00020680 	call	10002068 <UsbWaitTDListDone>

	IO_write(HPI_ADDR,0x0506);
100007c4:	01000084 	movi	r4,2
100007c8:	01414184 	movi	r5,1286
100007cc:	00002480 	call	10000248 <IO_write>
	printf("[ENUM PROCESS]:step 4 TD Status Byte is %x\n",IO_read(HPI_DATA));
100007d0:	0009883a 	mov	r4,zero
100007d4:	00002b40 	call	100002b4 <IO_read>
100007d8:	10bfffcc 	andi	r2,r2,65535
100007dc:	01040074 	movhi	r4,4097
100007e0:	21054104 	addi	r4,r4,5380
100007e4:	100b883a 	mov	r5,r2
100007e8:	00022140 	call	10002214 <printf>

	IO_write(HPI_ADDR,0x0508);
100007ec:	01000084 	movi	r4,2
100007f0:	01414204 	movi	r5,1288
100007f4:	00002480 	call	10000248 <IO_write>
	usb_ctl_val = IO_read(HPI_DATA);
100007f8:	0009883a 	mov	r4,zero
100007fc:	00002b40 	call	100002b4 <IO_read>
10000800:	e0bffa0d 	sth	r2,-24(fp)
	printf("[ENUM PROCESS]:step 4 TD Control Byte is %x\n",usb_ctl_val);
10000804:	e0bffa0b 	ldhu	r2,-24(fp)
10000808:	01040074 	movhi	r4,4097
1000080c:	21054c04 	addi	r4,r4,5424
10000810:	100b883a 	mov	r5,r2
10000814:	00022140 	call	10002214 <printf>
	while (usb_ctl_val != 0x03)
10000818:	00000206 	br	10000824 <main+0x508>
	{
		usb_ctl_val = UsbGetRetryCnt();
1000081c:	00020ec0 	call	100020ec <UsbGetRetryCnt>
10000820:	e0bffa0d 	sth	r2,-24(fp)
	printf("[ENUM PROCESS]:step 4 TD Status Byte is %x\n",IO_read(HPI_DATA));

	IO_write(HPI_ADDR,0x0508);
	usb_ctl_val = IO_read(HPI_DATA);
	printf("[ENUM PROCESS]:step 4 TD Control Byte is %x\n",usb_ctl_val);
	while (usb_ctl_val != 0x03)
10000824:	e0bffa0b 	ldhu	r2,-24(fp)
10000828:	108000d8 	cmpnei	r2,r2,3
1000082c:	103ffb1e 	bne	r2,zero,1000081c <__alt_data_end+0xf800081c>
	{
		usb_ctl_val = UsbGetRetryCnt();
	}

	printf("---------------[ENUM PROCESS]:get device descriptor-1 done!-----------------\n");
10000830:	01040074 	movhi	r4,4097
10000834:	21055804 	addi	r4,r4,5472
10000838:	00023080 	call	10002308 <puts>


	//--------------------------------get device descriptor-2---------------------------------------------//
	//get device descriptor
	// TASK: Call the appropriate function for this step.
	UsbGetDeviceDesc2(); 	// Get Device Descriptor -2
1000083c:	000142c0 	call	1000142c <UsbGetDeviceDesc2>

	//if no message
	while (!(IO_read(HPI_STATUS) & HPI_STATUS_SIE1msg_FLAG) )  //read sie1 msg register
10000840:	00000306 	br	10000850 <main+0x534>
	{
		//resend the get device descriptor
		//get device descriptor
		// TASK: Call the appropriate function again if it wasn't processed successfully.
		UsbGetDeviceDesc2();
10000844:	000142c0 	call	1000142c <UsbGetDeviceDesc2>
		usleep(10*1000);
10000848:	0109c404 	movi	r4,10000
1000084c:	000f3f00 	call	1000f3f0 <usleep>
	//get device descriptor
	// TASK: Call the appropriate function for this step.
	UsbGetDeviceDesc2(); 	// Get Device Descriptor -2

	//if no message
	while (!(IO_read(HPI_STATUS) & HPI_STATUS_SIE1msg_FLAG) )  //read sie1 msg register
10000850:	010000c4 	movi	r4,3
10000854:	00002b40 	call	100002b4 <IO_read>
10000858:	10bfffcc 	andi	r2,r2,65535
1000085c:	1080040c 	andi	r2,r2,16
10000860:	103ff826 	beq	r2,zero,10000844 <__alt_data_end+0xf8000844>
		// TASK: Call the appropriate function again if it wasn't processed successfully.
		UsbGetDeviceDesc2();
		usleep(10*1000);
	}

	UsbWaitTDListDone();
10000864:	00020680 	call	10002068 <UsbWaitTDListDone>

	IO_write(HPI_ADDR,0x0506);
10000868:	01000084 	movi	r4,2
1000086c:	01414184 	movi	r5,1286
10000870:	00002480 	call	10000248 <IO_write>
	printf("[ENUM PROCESS]:step 4 TD Status Byte is %x\n",IO_read(HPI_DATA));
10000874:	0009883a 	mov	r4,zero
10000878:	00002b40 	call	100002b4 <IO_read>
1000087c:	10bfffcc 	andi	r2,r2,65535
10000880:	01040074 	movhi	r4,4097
10000884:	21054104 	addi	r4,r4,5380
10000888:	100b883a 	mov	r5,r2
1000088c:	00022140 	call	10002214 <printf>

	IO_write(HPI_ADDR,0x0508);
10000890:	01000084 	movi	r4,2
10000894:	01414204 	movi	r5,1288
10000898:	00002480 	call	10000248 <IO_write>
	usb_ctl_val = IO_read(HPI_DATA);
1000089c:	0009883a 	mov	r4,zero
100008a0:	00002b40 	call	100002b4 <IO_read>
100008a4:	e0bffa0d 	sth	r2,-24(fp)
	printf("[ENUM PROCESS]:step 4 TD Control Byte is %x\n",usb_ctl_val);
100008a8:	e0bffa0b 	ldhu	r2,-24(fp)
100008ac:	01040074 	movhi	r4,4097
100008b0:	21054c04 	addi	r4,r4,5424
100008b4:	100b883a 	mov	r5,r2
100008b8:	00022140 	call	10002214 <printf>
	while (usb_ctl_val != 0x03)
100008bc:	00000206 	br	100008c8 <main+0x5ac>
	{
		usb_ctl_val = UsbGetRetryCnt();
100008c0:	00020ec0 	call	100020ec <UsbGetRetryCnt>
100008c4:	e0bffa0d 	sth	r2,-24(fp)
	printf("[ENUM PROCESS]:step 4 TD Status Byte is %x\n",IO_read(HPI_DATA));

	IO_write(HPI_ADDR,0x0508);
	usb_ctl_val = IO_read(HPI_DATA);
	printf("[ENUM PROCESS]:step 4 TD Control Byte is %x\n",usb_ctl_val);
	while (usb_ctl_val != 0x03)
100008c8:	e0bffa0b 	ldhu	r2,-24(fp)
100008cc:	108000d8 	cmpnei	r2,r2,3
100008d0:	103ffb1e 	bne	r2,zero,100008c0 <__alt_data_end+0xf80008c0>
	{
		usb_ctl_val = UsbGetRetryCnt();
	}

	printf("------------[ENUM PROCESS]:get device descriptor-2 done!--------------\n");
100008d4:	01040074 	movhi	r4,4097
100008d8:	21056c04 	addi	r4,r4,5552
100008dc:	00023080 	call	10002308 <puts>


	// STEP 5 begin
	//-----------------------------------get configuration descriptor -1 ----------------------------------//
	// TASK: Call the appropriate function for this step.
	UsbGetConfigDesc1(); 	// Get Configuration Descriptor -1
100008e0:	00016000 	call	10001600 <UsbGetConfigDesc1>

	//if no message
	while (!(IO_read(HPI_STATUS) & HPI_STATUS_SIE1msg_FLAG) )  //read sie1 msg register
100008e4:	00000306 	br	100008f4 <main+0x5d8>
	{
		//resend the get device descriptor
		//get device descriptor

		// TASK: Call the appropriate function again if it wasn't processed successfully.
		UsbGetConfigDesc1();
100008e8:	00016000 	call	10001600 <UsbGetConfigDesc1>
		usleep(10*1000);
100008ec:	0109c404 	movi	r4,10000
100008f0:	000f3f00 	call	1000f3f0 <usleep>
	//-----------------------------------get configuration descriptor -1 ----------------------------------//
	// TASK: Call the appropriate function for this step.
	UsbGetConfigDesc1(); 	// Get Configuration Descriptor -1

	//if no message
	while (!(IO_read(HPI_STATUS) & HPI_STATUS_SIE1msg_FLAG) )  //read sie1 msg register
100008f4:	010000c4 	movi	r4,3
100008f8:	00002b40 	call	100002b4 <IO_read>
100008fc:	10bfffcc 	andi	r2,r2,65535
10000900:	1080040c 	andi	r2,r2,16
10000904:	103ff826 	beq	r2,zero,100008e8 <__alt_data_end+0xf80008e8>
		// TASK: Call the appropriate function again if it wasn't processed successfully.
		UsbGetConfigDesc1();
		usleep(10*1000);
	}

	UsbWaitTDListDone();
10000908:	00020680 	call	10002068 <UsbWaitTDListDone>

	IO_write(HPI_ADDR,0x0506);
1000090c:	01000084 	movi	r4,2
10000910:	01414184 	movi	r5,1286
10000914:	00002480 	call	10000248 <IO_write>
	printf("[ENUM PROCESS]:step 5 TD Status Byte is %x\n",IO_read(HPI_DATA));
10000918:	0009883a 	mov	r4,zero
1000091c:	00002b40 	call	100002b4 <IO_read>
10000920:	10bfffcc 	andi	r2,r2,65535
10000924:	01040074 	movhi	r4,4097
10000928:	21057e04 	addi	r4,r4,5624
1000092c:	100b883a 	mov	r5,r2
10000930:	00022140 	call	10002214 <printf>

	IO_write(HPI_ADDR,0x0508);
10000934:	01000084 	movi	r4,2
10000938:	01414204 	movi	r5,1288
1000093c:	00002480 	call	10000248 <IO_write>
	usb_ctl_val = IO_read(HPI_DATA);
10000940:	0009883a 	mov	r4,zero
10000944:	00002b40 	call	100002b4 <IO_read>
10000948:	e0bffa0d 	sth	r2,-24(fp)
	printf("[ENUM PROCESS]:step 5 TD Control Byte is %x\n",usb_ctl_val);
1000094c:	e0bffa0b 	ldhu	r2,-24(fp)
10000950:	01040074 	movhi	r4,4097
10000954:	21058904 	addi	r4,r4,5668
10000958:	100b883a 	mov	r5,r2
1000095c:	00022140 	call	10002214 <printf>
	while (usb_ctl_val != 0x03)
10000960:	00000206 	br	1000096c <main+0x650>
	{
		usb_ctl_val = UsbGetRetryCnt();
10000964:	00020ec0 	call	100020ec <UsbGetRetryCnt>
10000968:	e0bffa0d 	sth	r2,-24(fp)
	printf("[ENUM PROCESS]:step 5 TD Status Byte is %x\n",IO_read(HPI_DATA));

	IO_write(HPI_ADDR,0x0508);
	usb_ctl_val = IO_read(HPI_DATA);
	printf("[ENUM PROCESS]:step 5 TD Control Byte is %x\n",usb_ctl_val);
	while (usb_ctl_val != 0x03)
1000096c:	e0bffa0b 	ldhu	r2,-24(fp)
10000970:	108000d8 	cmpnei	r2,r2,3
10000974:	103ffb1e 	bne	r2,zero,10000964 <__alt_data_end+0xf8000964>
	{
		usb_ctl_val = UsbGetRetryCnt();
	}
	printf("------------[ENUM PROCESS]:get configuration descriptor-1 pass------------\n");
10000978:	01040074 	movhi	r4,4097
1000097c:	21059504 	addi	r4,r4,5716
10000980:	00023080 	call	10002308 <puts>

	// STEP 6 begin
	//-----------------------------------get configuration descriptor-2------------------------------------//
	//get device descriptor
	// TASK: Call the appropriate function for this step.
	UsbGetConfigDesc2(); 	// Get Configuration Descriptor -2
10000984:	000178c0 	call	1000178c <UsbGetConfigDesc2>

	usleep(100*1000);
10000988:	010000b4 	movhi	r4,2
1000098c:	2121a804 	addi	r4,r4,-31072
10000990:	000f3f00 	call	1000f3f0 <usleep>
	//if no message
	while (!(IO_read(HPI_STATUS) & HPI_STATUS_SIE1msg_FLAG) )  //read sie1 msg register
10000994:	00000306 	br	100009a4 <main+0x688>
	{
		// TASK: Call the appropriate function again if it wasn't processed successfully.
		UsbGetConfigDesc2();
10000998:	000178c0 	call	1000178c <UsbGetConfigDesc2>
		usleep(10*1000);
1000099c:	0109c404 	movi	r4,10000
100009a0:	000f3f00 	call	1000f3f0 <usleep>
	// TASK: Call the appropriate function for this step.
	UsbGetConfigDesc2(); 	// Get Configuration Descriptor -2

	usleep(100*1000);
	//if no message
	while (!(IO_read(HPI_STATUS) & HPI_STATUS_SIE1msg_FLAG) )  //read sie1 msg register
100009a4:	010000c4 	movi	r4,3
100009a8:	00002b40 	call	100002b4 <IO_read>
100009ac:	10bfffcc 	andi	r2,r2,65535
100009b0:	1080040c 	andi	r2,r2,16
100009b4:	103ff826 	beq	r2,zero,10000998 <__alt_data_end+0xf8000998>
		// TASK: Call the appropriate function again if it wasn't processed successfully.
		UsbGetConfigDesc2();
		usleep(10*1000);
	}

	UsbWaitTDListDone();
100009b8:	00020680 	call	10002068 <UsbWaitTDListDone>

	IO_write(HPI_ADDR,0x0506);
100009bc:	01000084 	movi	r4,2
100009c0:	01414184 	movi	r5,1286
100009c4:	00002480 	call	10000248 <IO_write>
	printf("[ENUM PROCESS]:step 6 TD Status Byte is %x\n",IO_read(HPI_DATA));
100009c8:	0009883a 	mov	r4,zero
100009cc:	00002b40 	call	100002b4 <IO_read>
100009d0:	10bfffcc 	andi	r2,r2,65535
100009d4:	01040074 	movhi	r4,4097
100009d8:	2105a804 	addi	r4,r4,5792
100009dc:	100b883a 	mov	r5,r2
100009e0:	00022140 	call	10002214 <printf>

	IO_write(HPI_ADDR,0x0508);
100009e4:	01000084 	movi	r4,2
100009e8:	01414204 	movi	r5,1288
100009ec:	00002480 	call	10000248 <IO_write>
	usb_ctl_val = IO_read(HPI_DATA);
100009f0:	0009883a 	mov	r4,zero
100009f4:	00002b40 	call	100002b4 <IO_read>
100009f8:	e0bffa0d 	sth	r2,-24(fp)
	printf("[ENUM PROCESS]:step 6 TD Control Byte is %x\n",usb_ctl_val);
100009fc:	e0bffa0b 	ldhu	r2,-24(fp)
10000a00:	01040074 	movhi	r4,4097
10000a04:	2105b304 	addi	r4,r4,5836
10000a08:	100b883a 	mov	r5,r2
10000a0c:	00022140 	call	10002214 <printf>
	while (usb_ctl_val != 0x03)
10000a10:	00000206 	br	10000a1c <main+0x700>
	{
		usb_ctl_val = UsbGetRetryCnt();
10000a14:	00020ec0 	call	100020ec <UsbGetRetryCnt>
10000a18:	e0bffa0d 	sth	r2,-24(fp)
	printf("[ENUM PROCESS]:step 6 TD Status Byte is %x\n",IO_read(HPI_DATA));

	IO_write(HPI_ADDR,0x0508);
	usb_ctl_val = IO_read(HPI_DATA);
	printf("[ENUM PROCESS]:step 6 TD Control Byte is %x\n",usb_ctl_val);
	while (usb_ctl_val != 0x03)
10000a1c:	e0bffa0b 	ldhu	r2,-24(fp)
10000a20:	108000d8 	cmpnei	r2,r2,3
10000a24:	103ffb1e 	bne	r2,zero,10000a14 <__alt_data_end+0xf8000a14>
	{
		usb_ctl_val = UsbGetRetryCnt();
	}


	printf("-----------[ENUM PROCESS]:get configuration descriptor-2 done!------------\n");
10000a28:	01040074 	movhi	r4,4097
10000a2c:	2105bf04 	addi	r4,r4,5884
10000a30:	00023080 	call	10002308 <puts>


	// ---------------------------------get device info---------------------------------------------//

	// TASK: Write the address to read from the memory for byte 7 of the interface descriptor to HPI_ADDR.
	IO_write(HPI_ADDR,0x056c);
10000a34:	01000084 	movi	r4,2
10000a38:	01415b04 	movi	r5,1388
10000a3c:	00002480 	call	10000248 <IO_write>
	code = IO_read(HPI_DATA);
10000a40:	0009883a 	mov	r4,zero
10000a44:	00002b40 	call	100002b4 <IO_read>
10000a48:	e0bffe8d 	sth	r2,-6(fp)
	code = code & 0x003;
10000a4c:	e0bffe8b 	ldhu	r2,-6(fp)
10000a50:	108000cc 	andi	r2,r2,3
10000a54:	e0bffe8d 	sth	r2,-6(fp)
	printf("\ncode = %x\n", code);
10000a58:	e0bffe8b 	ldhu	r2,-6(fp)
10000a5c:	01040074 	movhi	r4,4097
10000a60:	2105d204 	addi	r4,r4,5960
10000a64:	100b883a 	mov	r5,r2
10000a68:	00022140 	call	10002214 <printf>

	if (code == 0x01)
10000a6c:	e0bffe8b 	ldhu	r2,-6(fp)
10000a70:	10800058 	cmpnei	r2,r2,1
10000a74:	1000041e 	bne	r2,zero,10000a88 <main+0x76c>
	{
		printf("\n[INFO]:check TD rec data7 \n[INFO]:Keyboard Detected!!!\n\n");
10000a78:	01040074 	movhi	r4,4097
10000a7c:	2105d504 	addi	r4,r4,5972
10000a80:	00023080 	call	10002308 <puts>
10000a84:	00000306 	br	10000a94 <main+0x778>
	}
	else
	{
		printf("\n[INFO]:Keyboard Not Detected!!! \n\n");
10000a88:	01040074 	movhi	r4,4097
10000a8c:	2105e404 	addi	r4,r4,6032
10000a90:	00023080 	call	10002308 <puts>
	}

	// TASK: Write the address to read from the memory for the endpoint descriptor to HPI_ADDR.

	IO_write(HPI_ADDR,0x0576);
10000a94:	01000084 	movi	r4,2
10000a98:	01415d84 	movi	r5,1398
10000a9c:	00002480 	call	10000248 <IO_write>
	IO_write(HPI_DATA,0x073F);
10000aa0:	0009883a 	mov	r4,zero
10000aa4:	0141cfc4 	movi	r5,1855
10000aa8:	00002480 	call	10000248 <IO_write>
	IO_write(HPI_DATA,0x8105);
10000aac:	0009883a 	mov	r4,zero
10000ab0:	01604154 	movui	r5,33029
10000ab4:	00002480 	call	10000248 <IO_write>
	IO_write(HPI_DATA,0x0003);
10000ab8:	0009883a 	mov	r4,zero
10000abc:	014000c4 	movi	r5,3
10000ac0:	00002480 	call	10000248 <IO_write>
	IO_write(HPI_DATA,0x0008);
10000ac4:	0009883a 	mov	r4,zero
10000ac8:	01400204 	movi	r5,8
10000acc:	00002480 	call	10000248 <IO_write>
	IO_write(HPI_DATA,0xAC0A);
10000ad0:	0009883a 	mov	r4,zero
10000ad4:	016b0294 	movui	r5,44042
10000ad8:	00002480 	call	10000248 <IO_write>
	UsbWrite(HUSB_SIE1_pCurrentTDPtr,0x0576); //HUSB_SIE1_pCurrentTDPtr
10000adc:	01006c04 	movi	r4,432
10000ae0:	01415d84 	movi	r5,1398
10000ae4:	00010a40 	call	100010a4 <UsbWrite>

	//data_size = (IO_read(HPI_DATA)>>8)&0x0ff;
	//data_size = 0x08;//(IO_read(HPI_DATA))&0x0ff;
	//UsbPrintMem();
	IO_write(HPI_ADDR,0x057c);
10000ae8:	01000084 	movi	r4,2
10000aec:	01415f04 	movi	r5,1404
10000af0:	00002480 	call	10000248 <IO_write>
	data_size = (IO_read(HPI_DATA))&0x0ff;
10000af4:	0009883a 	mov	r4,zero
10000af8:	00002b40 	call	100002b4 <IO_read>
10000afc:	e0bfff05 	stb	r2,-4(fp)
	printf("[ENUM PROCESS]:data packet size is %d\n",data_size);
10000b00:	e0bfff03 	ldbu	r2,-4(fp)
10000b04:	01040074 	movhi	r4,4097
10000b08:	2105ed04 	addi	r4,r4,6068
10000b0c:	100b883a 	mov	r5,r2
10000b10:	00022140 	call	10002214 <printf>
	// STEP 7 begin
	//------------------------------------set configuration -----------------------------------------//
	// TASK: Call the appropriate function for this step.
	UsbSetConfig();		// Set Configuration
10000b14:	00019f00 	call	100019f0 <UsbSetConfig>

	while (!(IO_read(HPI_STATUS) & HPI_STATUS_SIE1msg_FLAG) )  //read sie1 msg register
10000b18:	00000306 	br	10000b28 <main+0x80c>
	{
		// TASK: Call the appropriate function again if it wasn't processed successfully.
		UsbSetConfig();		// Set Configuration
10000b1c:	00019f00 	call	100019f0 <UsbSetConfig>
		usleep(10*1000);
10000b20:	0109c404 	movi	r4,10000
10000b24:	000f3f00 	call	1000f3f0 <usleep>
	// STEP 7 begin
	//------------------------------------set configuration -----------------------------------------//
	// TASK: Call the appropriate function for this step.
	UsbSetConfig();		// Set Configuration

	while (!(IO_read(HPI_STATUS) & HPI_STATUS_SIE1msg_FLAG) )  //read sie1 msg register
10000b28:	010000c4 	movi	r4,3
10000b2c:	00002b40 	call	100002b4 <IO_read>
10000b30:	10bfffcc 	andi	r2,r2,65535
10000b34:	1080040c 	andi	r2,r2,16
10000b38:	103ff826 	beq	r2,zero,10000b1c <__alt_data_end+0xf8000b1c>
		// TASK: Call the appropriate function again if it wasn't processed successfully.
		UsbSetConfig();		// Set Configuration
		usleep(10*1000);
	}

	UsbWaitTDListDone();
10000b3c:	00020680 	call	10002068 <UsbWaitTDListDone>

	IO_write(HPI_ADDR,0x0506);
10000b40:	01000084 	movi	r4,2
10000b44:	01414184 	movi	r5,1286
10000b48:	00002480 	call	10000248 <IO_write>
	printf("[ENUM PROCESS]:step 7 TD Status Byte is %x\n",IO_read(HPI_DATA));
10000b4c:	0009883a 	mov	r4,zero
10000b50:	00002b40 	call	100002b4 <IO_read>
10000b54:	10bfffcc 	andi	r2,r2,65535
10000b58:	01040074 	movhi	r4,4097
10000b5c:	2105f704 	addi	r4,r4,6108
10000b60:	100b883a 	mov	r5,r2
10000b64:	00022140 	call	10002214 <printf>

	IO_write(HPI_ADDR,0x0508);
10000b68:	01000084 	movi	r4,2
10000b6c:	01414204 	movi	r5,1288
10000b70:	00002480 	call	10000248 <IO_write>
	usb_ctl_val = IO_read(HPI_DATA);
10000b74:	0009883a 	mov	r4,zero
10000b78:	00002b40 	call	100002b4 <IO_read>
10000b7c:	e0bffa0d 	sth	r2,-24(fp)
	printf("[ENUM PROCESS]:step 7 TD Control Byte is %x\n",usb_ctl_val);
10000b80:	e0bffa0b 	ldhu	r2,-24(fp)
10000b84:	01040074 	movhi	r4,4097
10000b88:	21060204 	addi	r4,r4,6152
10000b8c:	100b883a 	mov	r5,r2
10000b90:	00022140 	call	10002214 <printf>
	while (usb_ctl_val != 0x03)
10000b94:	00000206 	br	10000ba0 <main+0x884>
	{
		usb_ctl_val = UsbGetRetryCnt();
10000b98:	00020ec0 	call	100020ec <UsbGetRetryCnt>
10000b9c:	e0bffa0d 	sth	r2,-24(fp)
	printf("[ENUM PROCESS]:step 7 TD Status Byte is %x\n",IO_read(HPI_DATA));

	IO_write(HPI_ADDR,0x0508);
	usb_ctl_val = IO_read(HPI_DATA);
	printf("[ENUM PROCESS]:step 7 TD Control Byte is %x\n",usb_ctl_val);
	while (usb_ctl_val != 0x03)
10000ba0:	e0bffa0b 	ldhu	r2,-24(fp)
10000ba4:	108000d8 	cmpnei	r2,r2,3
10000ba8:	103ffb1e 	bne	r2,zero,10000b98 <__alt_data_end+0xf8000b98>
	{
		usb_ctl_val = UsbGetRetryCnt();
	}

	printf("------------[ENUM PROCESS]:set configuration done!-------------------\n");
10000bac:	01040074 	movhi	r4,4097
10000bb0:	21060e04 	addi	r4,r4,6200
10000bb4:	00023080 	call	10002308 <puts>

	//----------------------------------------------class request out ------------------------------------------//
	// TASK: Call the appropriate function for this step.
	UsbClassRequest();
10000bb8:	0001aec0 	call	10001aec <UsbClassRequest>

	while (!(IO_read(HPI_STATUS) & HPI_STATUS_SIE1msg_FLAG) )  //read sie1 msg register
10000bbc:	00000306 	br	10000bcc <main+0x8b0>
	{
		// TASK: Call the appropriate function again if it wasn't processed successfully.
		UsbClassRequest();
10000bc0:	0001aec0 	call	10001aec <UsbClassRequest>
		usleep(10*1000);
10000bc4:	0109c404 	movi	r4,10000
10000bc8:	000f3f00 	call	1000f3f0 <usleep>

	//----------------------------------------------class request out ------------------------------------------//
	// TASK: Call the appropriate function for this step.
	UsbClassRequest();

	while (!(IO_read(HPI_STATUS) & HPI_STATUS_SIE1msg_FLAG) )  //read sie1 msg register
10000bcc:	010000c4 	movi	r4,3
10000bd0:	00002b40 	call	100002b4 <IO_read>
10000bd4:	10bfffcc 	andi	r2,r2,65535
10000bd8:	1080040c 	andi	r2,r2,16
10000bdc:	103ff826 	beq	r2,zero,10000bc0 <__alt_data_end+0xf8000bc0>
		// TASK: Call the appropriate function again if it wasn't processed successfully.
		UsbClassRequest();
		usleep(10*1000);
	}

	UsbWaitTDListDone();
10000be0:	00020680 	call	10002068 <UsbWaitTDListDone>

	IO_write(HPI_ADDR,0x0506);
10000be4:	01000084 	movi	r4,2
10000be8:	01414184 	movi	r5,1286
10000bec:	00002480 	call	10000248 <IO_write>
	printf("[ENUM PROCESS]:step 8 TD Status Byte is %x\n",IO_read(HPI_DATA));
10000bf0:	0009883a 	mov	r4,zero
10000bf4:	00002b40 	call	100002b4 <IO_read>
10000bf8:	10bfffcc 	andi	r2,r2,65535
10000bfc:	01040074 	movhi	r4,4097
10000c00:	21062004 	addi	r4,r4,6272
10000c04:	100b883a 	mov	r5,r2
10000c08:	00022140 	call	10002214 <printf>

	IO_write(HPI_ADDR,0x0508);
10000c0c:	01000084 	movi	r4,2
10000c10:	01414204 	movi	r5,1288
10000c14:	00002480 	call	10000248 <IO_write>
	usb_ctl_val = IO_read(HPI_DATA);
10000c18:	0009883a 	mov	r4,zero
10000c1c:	00002b40 	call	100002b4 <IO_read>
10000c20:	e0bffa0d 	sth	r2,-24(fp)
	printf("[ENUM PROCESS]:step 8 TD Control Byte is %x\n",usb_ctl_val);
10000c24:	e0bffa0b 	ldhu	r2,-24(fp)
10000c28:	01040074 	movhi	r4,4097
10000c2c:	21062b04 	addi	r4,r4,6316
10000c30:	100b883a 	mov	r5,r2
10000c34:	00022140 	call	10002214 <printf>
	while (usb_ctl_val != 0x03)
10000c38:	00000206 	br	10000c44 <main+0x928>
	{
		usb_ctl_val = UsbGetRetryCnt();
10000c3c:	00020ec0 	call	100020ec <UsbGetRetryCnt>
10000c40:	e0bffa0d 	sth	r2,-24(fp)
	printf("[ENUM PROCESS]:step 8 TD Status Byte is %x\n",IO_read(HPI_DATA));

	IO_write(HPI_ADDR,0x0508);
	usb_ctl_val = IO_read(HPI_DATA);
	printf("[ENUM PROCESS]:step 8 TD Control Byte is %x\n",usb_ctl_val);
	while (usb_ctl_val != 0x03)
10000c44:	e0bffa0b 	ldhu	r2,-24(fp)
10000c48:	108000d8 	cmpnei	r2,r2,3
10000c4c:	103ffb1e 	bne	r2,zero,10000c3c <__alt_data_end+0xf8000c3c>
	{
		usb_ctl_val = UsbGetRetryCnt();
	}


	printf("------------[ENUM PROCESS]:class request out done!-------------------\n");
10000c50:	01040074 	movhi	r4,4097
10000c54:	21063704 	addi	r4,r4,6364
10000c58:	00023080 	call	10002308 <puts>

	// STEP 8 begin
	//----------------------------------get descriptor(class 0x21 = HID) request out --------------------------------//
	// TASK: Call the appropriate function for this step.
	UsbGetHidDesc();
10000c5c:	0001be80 	call	10001be8 <UsbGetHidDesc>

	while (!(IO_read(HPI_STATUS) & HPI_STATUS_SIE1msg_FLAG) )  //read sie1 msg register
10000c60:	00000306 	br	10000c70 <main+0x954>
	{
		// TASK: Call the appropriate function again if it wasn't processed successfully.
		UsbGetHidDesc();
10000c64:	0001be80 	call	10001be8 <UsbGetHidDesc>
		usleep(10*1000);
10000c68:	0109c404 	movi	r4,10000
10000c6c:	000f3f00 	call	1000f3f0 <usleep>
	// STEP 8 begin
	//----------------------------------get descriptor(class 0x21 = HID) request out --------------------------------//
	// TASK: Call the appropriate function for this step.
	UsbGetHidDesc();

	while (!(IO_read(HPI_STATUS) & HPI_STATUS_SIE1msg_FLAG) )  //read sie1 msg register
10000c70:	010000c4 	movi	r4,3
10000c74:	00002b40 	call	100002b4 <IO_read>
10000c78:	10bfffcc 	andi	r2,r2,65535
10000c7c:	1080040c 	andi	r2,r2,16
10000c80:	103ff826 	beq	r2,zero,10000c64 <__alt_data_end+0xf8000c64>
		// TASK: Call the appropriate function again if it wasn't processed successfully.
		UsbGetHidDesc();
		usleep(10*1000);
	}

	UsbWaitTDListDone();
10000c84:	00020680 	call	10002068 <UsbWaitTDListDone>

	IO_write(HPI_ADDR,0x0506);
10000c88:	01000084 	movi	r4,2
10000c8c:	01414184 	movi	r5,1286
10000c90:	00002480 	call	10000248 <IO_write>
	printf("[ENUM PROCESS]:step 8 TD Status Byte is %x\n",IO_read(HPI_DATA));
10000c94:	0009883a 	mov	r4,zero
10000c98:	00002b40 	call	100002b4 <IO_read>
10000c9c:	10bfffcc 	andi	r2,r2,65535
10000ca0:	01040074 	movhi	r4,4097
10000ca4:	21062004 	addi	r4,r4,6272
10000ca8:	100b883a 	mov	r5,r2
10000cac:	00022140 	call	10002214 <printf>

	IO_write(HPI_ADDR,0x0508);
10000cb0:	01000084 	movi	r4,2
10000cb4:	01414204 	movi	r5,1288
10000cb8:	00002480 	call	10000248 <IO_write>
	usb_ctl_val = IO_read(HPI_DATA);
10000cbc:	0009883a 	mov	r4,zero
10000cc0:	00002b40 	call	100002b4 <IO_read>
10000cc4:	e0bffa0d 	sth	r2,-24(fp)
	printf("[ENUM PROCESS]:step 8 TD Control Byte is %x\n",usb_ctl_val);
10000cc8:	e0bffa0b 	ldhu	r2,-24(fp)
10000ccc:	01040074 	movhi	r4,4097
10000cd0:	21062b04 	addi	r4,r4,6316
10000cd4:	100b883a 	mov	r5,r2
10000cd8:	00022140 	call	10002214 <printf>
	while (usb_ctl_val != 0x03)
10000cdc:	00000206 	br	10000ce8 <main+0x9cc>
	{
		usb_ctl_val = UsbGetRetryCnt();
10000ce0:	00020ec0 	call	100020ec <UsbGetRetryCnt>
10000ce4:	e0bffa0d 	sth	r2,-24(fp)
	printf("[ENUM PROCESS]:step 8 TD Status Byte is %x\n",IO_read(HPI_DATA));

	IO_write(HPI_ADDR,0x0508);
	usb_ctl_val = IO_read(HPI_DATA);
	printf("[ENUM PROCESS]:step 8 TD Control Byte is %x\n",usb_ctl_val);
	while (usb_ctl_val != 0x03)
10000ce8:	e0bffa0b 	ldhu	r2,-24(fp)
10000cec:	108000d8 	cmpnei	r2,r2,3
10000cf0:	103ffb1e 	bne	r2,zero,10000ce0 <__alt_data_end+0xf8000ce0>
	{
		usb_ctl_val = UsbGetRetryCnt();
	}

	printf("------------[ENUM PROCESS]:get descriptor (class 0x21) done!-------------------\n");
10000cf4:	01040074 	movhi	r4,4097
10000cf8:	21064904 	addi	r4,r4,6436
10000cfc:	00023080 	call	10002308 <puts>

	// STEP 9 begin
	//-------------------------------get descriptor (class 0x22 = report)-------------------------------------------//
	// TASK: Call the appropriate function for this step.
	UsbGetReportDesc();
10000d00:	0001d2c0 	call	10001d2c <UsbGetReportDesc>
	//if no message
	while (!(IO_read(HPI_STATUS) & HPI_STATUS_SIE1msg_FLAG) )  //read sie1 msg register
10000d04:	00000306 	br	10000d14 <main+0x9f8>
	{
		// TASK: Call the appropriate function again if it wasn't processed successfully.
		UsbGetReportDesc();
10000d08:	0001d2c0 	call	10001d2c <UsbGetReportDesc>
		usleep(10*1000);
10000d0c:	0109c404 	movi	r4,10000
10000d10:	000f3f00 	call	1000f3f0 <usleep>
	// STEP 9 begin
	//-------------------------------get descriptor (class 0x22 = report)-------------------------------------------//
	// TASK: Call the appropriate function for this step.
	UsbGetReportDesc();
	//if no message
	while (!(IO_read(HPI_STATUS) & HPI_STATUS_SIE1msg_FLAG) )  //read sie1 msg register
10000d14:	010000c4 	movi	r4,3
10000d18:	00002b40 	call	100002b4 <IO_read>
10000d1c:	10bfffcc 	andi	r2,r2,65535
10000d20:	1080040c 	andi	r2,r2,16
10000d24:	103ff826 	beq	r2,zero,10000d08 <__alt_data_end+0xf8000d08>
		// TASK: Call the appropriate function again if it wasn't processed successfully.
		UsbGetReportDesc();
		usleep(10*1000);
	}

	UsbWaitTDListDone();
10000d28:	00020680 	call	10002068 <UsbWaitTDListDone>

	IO_write(HPI_ADDR,0x0506);
10000d2c:	01000084 	movi	r4,2
10000d30:	01414184 	movi	r5,1286
10000d34:	00002480 	call	10000248 <IO_write>
	printf("[ENUM PROCESS]: step 9 TD Status Byte is %x\n",IO_read(HPI_DATA));
10000d38:	0009883a 	mov	r4,zero
10000d3c:	00002b40 	call	100002b4 <IO_read>
10000d40:	10bfffcc 	andi	r2,r2,65535
10000d44:	01040074 	movhi	r4,4097
10000d48:	21065d04 	addi	r4,r4,6516
10000d4c:	100b883a 	mov	r5,r2
10000d50:	00022140 	call	10002214 <printf>

	IO_write(HPI_ADDR,0x0508);
10000d54:	01000084 	movi	r4,2
10000d58:	01414204 	movi	r5,1288
10000d5c:	00002480 	call	10000248 <IO_write>
	usb_ctl_val = IO_read(HPI_DATA);
10000d60:	0009883a 	mov	r4,zero
10000d64:	00002b40 	call	100002b4 <IO_read>
10000d68:	e0bffa0d 	sth	r2,-24(fp)
	printf("[ENUM PROCESS]: step 9 TD Control Byte is %x\n",usb_ctl_val);
10000d6c:	e0bffa0b 	ldhu	r2,-24(fp)
10000d70:	01040074 	movhi	r4,4097
10000d74:	21066904 	addi	r4,r4,6564
10000d78:	100b883a 	mov	r5,r2
10000d7c:	00022140 	call	10002214 <printf>
	while (usb_ctl_val != 0x03)
10000d80:	00000206 	br	10000d8c <main+0xa70>
	{
		usb_ctl_val = UsbGetRetryCnt();
10000d84:	00020ec0 	call	100020ec <UsbGetRetryCnt>
10000d88:	e0bffa0d 	sth	r2,-24(fp)
	printf("[ENUM PROCESS]: step 9 TD Status Byte is %x\n",IO_read(HPI_DATA));

	IO_write(HPI_ADDR,0x0508);
	usb_ctl_val = IO_read(HPI_DATA);
	printf("[ENUM PROCESS]: step 9 TD Control Byte is %x\n",usb_ctl_val);
	while (usb_ctl_val != 0x03)
10000d8c:	e0bffa0b 	ldhu	r2,-24(fp)
10000d90:	108000d8 	cmpnei	r2,r2,3
10000d94:	103ffb1e 	bne	r2,zero,10000d84 <__alt_data_end+0xf8000d84>
	{
		usb_ctl_val = UsbGetRetryCnt();
	}

	printf("---------------[ENUM PROCESS]:get descriptor (class 0x22) done!----------------\n");
10000d98:	01040074 	movhi	r4,4097
10000d9c:	21067504 	addi	r4,r4,6612
10000da0:	00023080 	call	10002308 <puts>



	//-----------------------------------get keycode value------------------------------------------------//
	usleep(10000);
10000da4:	0109c404 	movi	r4,10000
10000da8:	000f3f00 	call	1000f3f0 <usleep>
	while(1)
	{
		toggle++;
10000dac:	e0bffa83 	ldbu	r2,-22(fp)
10000db0:	10800044 	addi	r2,r2,1
10000db4:	e0bffa85 	stb	r2,-22(fp)
		IO_write(HPI_ADDR,0x0500); //the start address
10000db8:	01000084 	movi	r4,2
10000dbc:	01414004 	movi	r5,1280
10000dc0:	00002480 	call	10000248 <IO_write>
		//data phase IN-1
		IO_write(HPI_DATA,0x051c); //500
10000dc4:	0009883a 	mov	r4,zero
10000dc8:	01414704 	movi	r5,1308
10000dcc:	00002480 	call	10000248 <IO_write>

		IO_write(HPI_DATA,0x000f & data_size);//2 data length
10000dd0:	e0bfff03 	ldbu	r2,-4(fp)
10000dd4:	108003cc 	andi	r2,r2,15
10000dd8:	0009883a 	mov	r4,zero
10000ddc:	100b883a 	mov	r5,r2
10000de0:	00002480 	call	10000248 <IO_write>

		IO_write(HPI_DATA,0x0291);//4 //endpoint 1
10000de4:	0009883a 	mov	r4,zero
10000de8:	0140a444 	movi	r5,657
10000dec:	00002480 	call	10000248 <IO_write>
		if(toggle%2)
10000df0:	e0bffa83 	ldbu	r2,-22(fp)
10000df4:	1080004c 	andi	r2,r2,1
10000df8:	10803fcc 	andi	r2,r2,255
10000dfc:	10000426 	beq	r2,zero,10000e10 <main+0xaf4>
		{
			IO_write(HPI_DATA,0x0001);//6 //data 1
10000e00:	0009883a 	mov	r4,zero
10000e04:	01400044 	movi	r5,1
10000e08:	00002480 	call	10000248 <IO_write>
10000e0c:	00000306 	br	10000e1c <main+0xb00>
		}
		else
		{
			IO_write(HPI_DATA,0x0041);//6 //data 1
10000e10:	0009883a 	mov	r4,zero
10000e14:	01401044 	movi	r5,65
10000e18:	00002480 	call	10000248 <IO_write>
		}
		IO_write(HPI_DATA,0x0013);//8
10000e1c:	0009883a 	mov	r4,zero
10000e20:	014004c4 	movi	r5,19
10000e24:	00002480 	call	10000248 <IO_write>
		IO_write(HPI_DATA,0x0000);//a
10000e28:	0009883a 	mov	r4,zero
10000e2c:	000b883a 	mov	r5,zero
10000e30:	00002480 	call	10000248 <IO_write>
		UsbWrite(HUSB_SIE1_pCurrentTDPtr,0x0500); //HUSB_SIE1_pCurrentTDPtr
10000e34:	01006c04 	movi	r4,432
10000e38:	01414004 	movi	r5,1280
10000e3c:	00010a40 	call	100010a4 <UsbWrite>
		
		while (!(IO_read(HPI_STATUS) & HPI_STATUS_SIE1msg_FLAG) )  //read sie1 msg register
10000e40:	00002406 	br	10000ed4 <main+0xbb8>
		{
			IO_write(HPI_ADDR,0x0500); //the start address
10000e44:	01000084 	movi	r4,2
10000e48:	01414004 	movi	r5,1280
10000e4c:	00002480 	call	10000248 <IO_write>
			//data phase IN-1
			IO_write(HPI_DATA,0x051c); //500
10000e50:	0009883a 	mov	r4,zero
10000e54:	01414704 	movi	r5,1308
10000e58:	00002480 	call	10000248 <IO_write>

			IO_write(HPI_DATA,0x000f & data_size);//2 data length
10000e5c:	e0bfff03 	ldbu	r2,-4(fp)
10000e60:	108003cc 	andi	r2,r2,15
10000e64:	0009883a 	mov	r4,zero
10000e68:	100b883a 	mov	r5,r2
10000e6c:	00002480 	call	10000248 <IO_write>

			IO_write(HPI_DATA,0x0291);//4 //endpoint 1
10000e70:	0009883a 	mov	r4,zero
10000e74:	0140a444 	movi	r5,657
10000e78:	00002480 	call	10000248 <IO_write>
			if(toggle%2)
10000e7c:	e0bffa83 	ldbu	r2,-22(fp)
10000e80:	1080004c 	andi	r2,r2,1
10000e84:	10803fcc 	andi	r2,r2,255
10000e88:	10000426 	beq	r2,zero,10000e9c <main+0xb80>
			{
				IO_write(HPI_DATA,0x0001);//6 //data 1
10000e8c:	0009883a 	mov	r4,zero
10000e90:	01400044 	movi	r5,1
10000e94:	00002480 	call	10000248 <IO_write>
10000e98:	00000306 	br	10000ea8 <main+0xb8c>
			}
			else
			{
				IO_write(HPI_DATA,0x0041);//6 //data 1
10000e9c:	0009883a 	mov	r4,zero
10000ea0:	01401044 	movi	r5,65
10000ea4:	00002480 	call	10000248 <IO_write>
			}
			IO_write(HPI_DATA,0x0013);//8
10000ea8:	0009883a 	mov	r4,zero
10000eac:	014004c4 	movi	r5,19
10000eb0:	00002480 	call	10000248 <IO_write>
			IO_write(HPI_DATA,0x0000);//
10000eb4:	0009883a 	mov	r4,zero
10000eb8:	000b883a 	mov	r5,zero
10000ebc:	00002480 	call	10000248 <IO_write>
			UsbWrite(HUSB_SIE1_pCurrentTDPtr,0x0500); //HUSB_SIE1_pCurrentTDPtr
10000ec0:	01006c04 	movi	r4,432
10000ec4:	01414004 	movi	r5,1280
10000ec8:	00010a40 	call	100010a4 <UsbWrite>
			usleep(10*1000);
10000ecc:	0109c404 	movi	r4,10000
10000ed0:	000f3f00 	call	1000f3f0 <usleep>
		}
		IO_write(HPI_DATA,0x0013);//8
		IO_write(HPI_DATA,0x0000);//a
		UsbWrite(HUSB_SIE1_pCurrentTDPtr,0x0500); //HUSB_SIE1_pCurrentTDPtr
		
		while (!(IO_read(HPI_STATUS) & HPI_STATUS_SIE1msg_FLAG) )  //read sie1 msg register
10000ed4:	010000c4 	movi	r4,3
10000ed8:	00002b40 	call	100002b4 <IO_read>
10000edc:	10bfffcc 	andi	r2,r2,65535
10000ee0:	1080040c 	andi	r2,r2,16
10000ee4:	103fd726 	beq	r2,zero,10000e44 <__alt_data_end+0xf8000e44>
			usleep(10*1000);
		}//end while



		usb_ctl_val = UsbWaitTDListDone();
10000ee8:	00020680 	call	10002068 <UsbWaitTDListDone>
10000eec:	e0bffa0d 	sth	r2,-24(fp)

		// packet starts from 0x051c, reading third byte
		// TASK: Write the address to read from the memory for byte 3 of the report descriptor to HPI_ADDR.
		IO_write(HPI_ADDR,0x051e); //the start address
10000ef0:	01000084 	movi	r4,2
10000ef4:	01414784 	movi	r5,1310
10000ef8:	00002480 	call	10000248 <IO_write>
		keycode = IO_read(HPI_DATA);
10000efc:	0009883a 	mov	r4,zero
10000f00:	00002b40 	call	100002b4 <IO_read>
10000f04:	10bfffcc 	andi	r2,r2,65535
10000f08:	e0bffc15 	stw	r2,-16(fp)
		printf("\nfirst two keycode values are %04x\n",keycode);
10000f0c:	01040074 	movhi	r4,4097
10000f10:	21068904 	addi	r4,r4,6692
10000f14:	e17ffc17 	ldw	r5,-16(fp)
10000f18:	00022140 	call	10002214 <printf>
		IOWR(KEYCODE_BASE, 0, keycode & 0xffff);
10000f1c:	e0bffc17 	ldw	r2,-16(fp)
10000f20:	10ffffcc 	andi	r3,r2,65535
10000f24:	00802004 	movi	r2,128
10000f28:	10c00035 	stwio	r3,0(r2)

		IO_write(HPI_ADDR, 0x0520);
10000f2c:	01000084 	movi	r4,2
10000f30:	01414804 	movi	r5,1312
10000f34:	00002480 	call	10000248 <IO_write>
		keycode1 = IO_read(HPI_DATA);
10000f38:	0009883a 	mov	r4,zero
10000f3c:	00002b40 	call	100002b4 <IO_read>
10000f40:	10bfffcc 	andi	r2,r2,65535
10000f44:	e0bffd15 	stw	r2,-12(fp)
		printf("\nsecond two keycode values are %04x\n",keycode1);
10000f48:	01040074 	movhi	r4,4097
10000f4c:	21069204 	addi	r4,r4,6728
10000f50:	e17ffd17 	ldw	r5,-12(fp)
10000f54:	00022140 	call	10002214 <printf>
		*KKK = keycode1;
10000f58:	d0a00017 	ldw	r2,-32768(gp)
10000f5c:	e0fffd17 	ldw	r3,-12(fp)
10000f60:	10c00015 	stw	r3,0(r2)

		usleep(200);//usleep(5000);
10000f64:	01003204 	movi	r4,200
10000f68:	000f3f00 	call	1000f3f0 <usleep>
		usb_ctl_val = UsbRead(ctl_reg);
10000f6c:	d0a6cd0b 	ldhu	r2,-25804(gp)
10000f70:	10bfffcc 	andi	r2,r2,65535
10000f74:	1009883a 	mov	r4,r2
10000f78:	00010f80 	call	100010f8 <UsbRead>
10000f7c:	e0bffa0d 	sth	r2,-24(fp)

		if(!(usb_ctl_val & no_device))
10000f80:	d0a6cd8b 	ldhu	r2,-25802(gp)
10000f84:	e0fffa0b 	ldhu	r3,-24(fp)
10000f88:	1884703a 	and	r2,r3,r2
10000f8c:	10bfffcc 	andi	r2,r2,65535
10000f90:	1000201e 	bne	r2,zero,10001014 <main+0xcf8>
		{
			//USB hot plug routine
			for(hot_plug_count = 0 ; hot_plug_count < 7 ; hot_plug_count++)
10000f94:	e03ffac5 	stb	zero,-21(fp)
10000f98:	00001006 	br	10000fdc <main+0xcc0>
			{
				usleep(5*1000);
10000f9c:	0104e204 	movi	r4,5000
10000fa0:	000f3f00 	call	1000f3f0 <usleep>
				usb_ctl_val = UsbRead(ctl_reg);
10000fa4:	d0a6cd0b 	ldhu	r2,-25804(gp)
10000fa8:	10bfffcc 	andi	r2,r2,65535
10000fac:	1009883a 	mov	r4,r2
10000fb0:	00010f80 	call	100010f8 <UsbRead>
10000fb4:	e0bffa0d 	sth	r2,-24(fp)
				if(usb_ctl_val & no_device) break;
10000fb8:	d0a6cd8b 	ldhu	r2,-25802(gp)
10000fbc:	e0fffa0b 	ldhu	r3,-24(fp)
10000fc0:	1884703a 	and	r2,r3,r2
10000fc4:	10bfffcc 	andi	r2,r2,65535
10000fc8:	10000126 	beq	r2,zero,10000fd0 <main+0xcb4>
10000fcc:	00000606 	br	10000fe8 <main+0xccc>
		usb_ctl_val = UsbRead(ctl_reg);

		if(!(usb_ctl_val & no_device))
		{
			//USB hot plug routine
			for(hot_plug_count = 0 ; hot_plug_count < 7 ; hot_plug_count++)
10000fd0:	e0bffac3 	ldbu	r2,-21(fp)
10000fd4:	10800044 	addi	r2,r2,1
10000fd8:	e0bffac5 	stb	r2,-21(fp)
10000fdc:	e0bffac3 	ldbu	r2,-21(fp)
10000fe0:	108001f0 	cmpltui	r2,r2,7
10000fe4:	103fed1e 	bne	r2,zero,10000f9c <__alt_data_end+0xf8000f9c>
			{
				usleep(5*1000);
				usb_ctl_val = UsbRead(ctl_reg);
				if(usb_ctl_val & no_device) break;
			}
			if(!(usb_ctl_val & no_device))
10000fe8:	d0a6cd8b 	ldhu	r2,-25802(gp)
10000fec:	e0fffa0b 	ldhu	r3,-24(fp)
10000ff0:	1884703a 	and	r2,r3,r2
10000ff4:	10bfffcc 	andi	r2,r2,65535
10000ff8:	1000061e 	bne	r2,zero,10001014 <main+0xcf8>
			{
				printf("\n[INFO]: the keyboard has been removed!!! \n");
10000ffc:	01040074 	movhi	r4,4097
10001000:	21069c04 	addi	r4,r4,6768
10001004:	00023080 	call	10002308 <puts>
				printf("[INFO]: please insert again!!! \n");
10001008:	01040074 	movhi	r4,4097
1000100c:	2106a704 	addi	r4,r4,6812
10001010:	00023080 	call	10002308 <puts>
			}
		}

		while (!(usb_ctl_val & no_device))
10001014:	00001d06 	br	1000108c <main+0xd70>
		{

			usb_ctl_val = UsbRead(ctl_reg);
10001018:	d0a6cd0b 	ldhu	r2,-25804(gp)
1000101c:	10bfffcc 	andi	r2,r2,65535
10001020:	1009883a 	mov	r4,r2
10001024:	00010f80 	call	100010f8 <UsbRead>
10001028:	e0bffa0d 	sth	r2,-24(fp)
			usleep(5*1000);
1000102c:	0104e204 	movi	r4,5000
10001030:	000f3f00 	call	1000f3f0 <usleep>
			usb_ctl_val = UsbRead(ctl_reg);
10001034:	d0a6cd0b 	ldhu	r2,-25804(gp)
10001038:	10bfffcc 	andi	r2,r2,65535
1000103c:	1009883a 	mov	r4,r2
10001040:	00010f80 	call	100010f8 <UsbRead>
10001044:	e0bffa0d 	sth	r2,-24(fp)
			usleep(5*1000);
10001048:	0104e204 	movi	r4,5000
1000104c:	000f3f00 	call	1000f3f0 <usleep>
			usb_ctl_val = UsbRead(ctl_reg);
10001050:	d0a6cd0b 	ldhu	r2,-25804(gp)
10001054:	10bfffcc 	andi	r2,r2,65535
10001058:	1009883a 	mov	r4,r2
1000105c:	00010f80 	call	100010f8 <UsbRead>
10001060:	e0bffa0d 	sth	r2,-24(fp)
			usleep(5*1000);
10001064:	0104e204 	movi	r4,5000
10001068:	000f3f00 	call	1000f3f0 <usleep>

			if(usb_ctl_val & no_device)
1000106c:	d0a6cd8b 	ldhu	r2,-25802(gp)
10001070:	e0fffa0b 	ldhu	r3,-24(fp)
10001074:	1884703a 	and	r2,r3,r2
10001078:	10bfffcc 	andi	r2,r2,65535
1000107c:	10000126 	beq	r2,zero,10001084 <main+0xd68>
				goto USB_HOT_PLUG;
10001080:	003cb206 	br	1000034c <__alt_data_end+0xf800034c>

			usleep(200);
10001084:	01003204 	movi	r4,200
10001088:	000f3f00 	call	1000f3f0 <usleep>
				printf("\n[INFO]: the keyboard has been removed!!! \n");
				printf("[INFO]: please insert again!!! \n");
			}
		}

		while (!(usb_ctl_val & no_device))
1000108c:	d0a6cd8b 	ldhu	r2,-25802(gp)
10001090:	e0fffa0b 	ldhu	r3,-24(fp)
10001094:	1884703a 	and	r2,r3,r2
10001098:	10bfffcc 	andi	r2,r2,65535
1000109c:	103fde26 	beq	r2,zero,10001018 <__alt_data_end+0xf8001018>
				goto USB_HOT_PLUG;

			usleep(200);
		}

	}//end while
100010a0:	003f4206 	br	10000dac <__alt_data_end+0xf8000dac>

100010a4 <UsbWrite>:
 *
 * @note     None
 *
 ******************************************************************************/
void UsbWrite(alt_u16 Address, alt_u16 Data)
{
100010a4:	defffc04 	addi	sp,sp,-16
100010a8:	dfc00315 	stw	ra,12(sp)
100010ac:	df000215 	stw	fp,8(sp)
100010b0:	df000204 	addi	fp,sp,8
100010b4:	2007883a 	mov	r3,r4
100010b8:	2805883a 	mov	r2,r5
100010bc:	e0fffe0d 	sth	r3,-8(fp)
100010c0:	e0bfff0d 	sth	r2,-4(fp)
//*************************************************************************//
//									TASK								   //
//*************************************************************************//
//							Write this function							   //
//*************************************************************************//
	IO_write(HPI_ADDR, Address);
100010c4:	e0bffe0b 	ldhu	r2,-8(fp)
100010c8:	01000084 	movi	r4,2
100010cc:	100b883a 	mov	r5,r2
100010d0:	00002480 	call	10000248 <IO_write>
	IO_write(HPI_DATA, Data);
100010d4:	e0bfff0b 	ldhu	r2,-4(fp)
100010d8:	0009883a 	mov	r4,zero
100010dc:	100b883a 	mov	r5,r2
100010e0:	00002480 	call	10000248 <IO_write>
}
100010e4:	e037883a 	mov	sp,fp
100010e8:	dfc00117 	ldw	ra,4(sp)
100010ec:	df000017 	ldw	fp,0(sp)
100010f0:	dec00204 	addi	sp,sp,8
100010f4:	f800283a 	ret

100010f8 <UsbRead>:
 *
 * @note     None
 *
 ******************************************************************************/
alt_u16 UsbRead(alt_u16 Address)
{
100010f8:	defffd04 	addi	sp,sp,-12
100010fc:	dfc00215 	stw	ra,8(sp)
10001100:	df000115 	stw	fp,4(sp)
10001104:	df000104 	addi	fp,sp,4
10001108:	2005883a 	mov	r2,r4
1000110c:	e0bfff0d 	sth	r2,-4(fp)
//*************************************************************************//
//									TASK								   //
//*************************************************************************//
//							Write this function							   //
//*************************************************************************//
	IO_write(HPI_ADDR, Address);
10001110:	e0bfff0b 	ldhu	r2,-4(fp)
10001114:	01000084 	movi	r4,2
10001118:	100b883a 	mov	r5,r2
1000111c:	00002480 	call	10000248 <IO_write>
	return IO_read(HPI_DATA);
10001120:	0009883a 	mov	r4,zero
10001124:	00002b40 	call	100002b4 <IO_read>
}
10001128:	e037883a 	mov	sp,fp
1000112c:	dfc00117 	ldw	ra,4(sp)
10001130:	df000017 	ldw	fp,0(sp)
10001134:	dec00204 	addi	sp,sp,8
10001138:	f800283a 	ret

1000113c <UsbSoftReset>:
 *
 * @note     None
 *
 ******************************************************************************/
void UsbSoftReset()
{
1000113c:	defffe04 	addi	sp,sp,-8
10001140:	dfc00115 	stw	ra,4(sp)
10001144:	df000015 	stw	fp,0(sp)
10001148:	d839883a 	mov	fp,sp
	//XIo_Out16(USB_MAILBOX, COMM_RESET);
	IO_write(HPI_MAILBOX,COMM_RESET); //COMM_JUMP2CODE
1000114c:	01000044 	movi	r4,1
10001150:	017e9414 	movui	r5,64080
10001154:	00002480 	call	10000248 <IO_write>
	usleep(100000);
10001158:	010000b4 	movhi	r4,2
1000115c:	2121a804 	addi	r4,r4,-31072
10001160:	000f3f00 	call	1000f3f0 <usleep>
	printf("[USB INIT]:reset finished!\n");
10001164:	01040074 	movhi	r4,4097
10001168:	2106af04 	addi	r4,r4,6844
1000116c:	00023080 	call	10002308 <puts>

	usleep(500000);
10001170:	01000234 	movhi	r4,8
10001174:	21284804 	addi	r4,r4,-24288
10001178:	000f3f00 	call	1000f3f0 <usleep>
	printf("[USB INIT]:Clear up the interrupt\r\n");
1000117c:	01040074 	movhi	r4,4097
10001180:	2106b604 	addi	r4,r4,6872
10001184:	00023080 	call	10002308 <puts>
	IO_read(HPI_MAILBOX);
10001188:	01000044 	movi	r4,1
1000118c:	00002b40 	call	100002b4 <IO_read>
	IO_read(HPI_STATUS);
10001190:	010000c4 	movi	r4,3
10001194:	00002b40 	call	100002b4 <IO_read>

	// Had to add the write due to a bug in BIOS where they overwrite
	// the mailbox after initialization with garbage.  The read clears
	// any pending interrupts.
	UsbRead (HPI_SIE1_MSG_ADR);
10001198:	01005104 	movi	r4,324
1000119c:	00010f80 	call	100010f8 <UsbRead>
	UsbWrite (HPI_SIE1_MSG_ADR, 0);
100011a0:	01005104 	movi	r4,324
100011a4:	000b883a 	mov	r5,zero
100011a8:	00010a40 	call	100010a4 <UsbWrite>
	UsbRead (HPI_SIE2_MSG_ADR);
100011ac:	01005204 	movi	r4,328
100011b0:	00010f80 	call	100010f8 <UsbRead>
	UsbWrite (HPI_SIE2_MSG_ADR, 0);
100011b4:	01005204 	movi	r4,328
100011b8:	000b883a 	mov	r5,zero
100011bc:	00010a40 	call	100010a4 <UsbWrite>


	UsbWrite (HOST1_STAT_REG, 0xFFFF);
100011c0:	01302414 	movui	r4,49296
100011c4:	017fffd4 	movui	r5,65535
100011c8:	00010a40 	call	100010a4 <UsbWrite>
	UsbWrite (HOST2_STAT_REG, 0xFFFF);
100011cc:	01302c14 	movui	r4,49328
100011d0:	017fffd4 	movui	r5,65535
100011d4:	00010a40 	call	100010a4 <UsbWrite>
}
100011d8:	e037883a 	mov	sp,fp
100011dc:	dfc00117 	ldw	ra,4(sp)
100011e0:	df000017 	ldw	fp,0(sp)
100011e4:	dec00204 	addi	sp,sp,8
100011e8:	f800283a 	ret

100011ec <UsbSetAddress>:


void UsbSetAddress()
{
100011ec:	defffe04 	addi	sp,sp,-8
100011f0:	dfc00115 	stw	ra,4(sp)
100011f4:	df000015 	stw	fp,0(sp)
100011f8:	d839883a 	mov	fp,sp
	//the starting address
	IO_write(HPI_ADDR,0x0500); //the start address
100011fc:	01000084 	movi	r4,2
10001200:	01414004 	movi	r5,1280
10001204:	00002480 	call	10000248 <IO_write>
	// TD #1: 6 writes
	IO_write(HPI_DATA,0x050C);
10001208:	0009883a 	mov	r4,zero
1000120c:	01414304 	movi	r5,1292
10001210:	00002480 	call	10000248 <IO_write>
	IO_write(HPI_DATA,0x0008); //4 port number
10001214:	0009883a 	mov	r4,zero
10001218:	01400204 	movi	r5,8
1000121c:	00002480 	call	10000248 <IO_write>
	// TASK: Complete with 4 more IOWR functions
	IO_write(HPI_DATA,0x00D0);
10001220:	0009883a 	mov	r4,zero
10001224:	01403404 	movi	r5,208
10001228:	00002480 	call	10000248 <IO_write>
	IO_write(HPI_DATA,0x0001);
1000122c:	0009883a 	mov	r4,zero
10001230:	01400044 	movi	r5,1
10001234:	00002480 	call	10000248 <IO_write>
	IO_write(HPI_DATA,0x0013);
10001238:	0009883a 	mov	r4,zero
1000123c:	014004c4 	movi	r5,19
10001240:	00002480 	call	10000248 <IO_write>
	IO_write(HPI_DATA,0x0514);
10001244:	0009883a 	mov	r4,zero
10001248:	01414504 	movi	r5,1300
1000124c:	00002480 	call	10000248 <IO_write>
	// TD #2: 4 writes
	// TASK: Complete with 4 IOWR functions
	IO_write(HPI_DATA,0x0500);
10001250:	0009883a 	mov	r4,zero
10001254:	01414004 	movi	r5,1280
10001258:	00002480 	call	10000248 <IO_write>
	IO_write(HPI_DATA,0x0002);
1000125c:	0009883a 	mov	r4,zero
10001260:	01400084 	movi	r5,2
10001264:	00002480 	call	10000248 <IO_write>
	IO_write(HPI_DATA,0x0000);
10001268:	0009883a 	mov	r4,zero
1000126c:	000b883a 	mov	r5,zero
10001270:	00002480 	call	10000248 <IO_write>
	IO_write(HPI_DATA,0x0000);
10001274:	0009883a 	mov	r4,zero
10001278:	000b883a 	mov	r5,zero
1000127c:	00002480 	call	10000248 <IO_write>
	// TD #3: 6 writes
	// TASK: Complete with 6 IOWR functions
	IO_write(HPI_DATA,0x0000); //
10001280:	0009883a 	mov	r4,zero
10001284:	000b883a 	mov	r5,zero
10001288:	00002480 	call	10000248 <IO_write>
	IO_write(HPI_DATA,0x0000);//
1000128c:	0009883a 	mov	r4,zero
10001290:	000b883a 	mov	r5,zero
10001294:	00002480 	call	10000248 <IO_write>
	IO_write(HPI_DATA,0x0090);//
10001298:	0009883a 	mov	r4,zero
1000129c:	01402404 	movi	r5,144
100012a0:	00002480 	call	10000248 <IO_write>
	IO_write(HPI_DATA,0x0041);
100012a4:	0009883a 	mov	r4,zero
100012a8:	01401044 	movi	r5,65
100012ac:	00002480 	call	10000248 <IO_write>
	IO_write(HPI_DATA,0x0013);
100012b0:	0009883a 	mov	r4,zero
100012b4:	014004c4 	movi	r5,19
100012b8:	00002480 	call	10000248 <IO_write>
	IO_write(HPI_DATA,0x0000);
100012bc:	0009883a 	mov	r4,zero
100012c0:	000b883a 	mov	r5,zero
100012c4:	00002480 	call	10000248 <IO_write>

	UsbWrite(HUSB_SIE1_pCurrentTDPtr,0x0500); //HUSB_SIE1_pCurrentTDPtr
100012c8:	01006c04 	movi	r4,432
100012cc:	01414004 	movi	r5,1280
100012d0:	00010a40 	call	100010a4 <UsbWrite>
}
100012d4:	e037883a 	mov	sp,fp
100012d8:	dfc00117 	ldw	ra,4(sp)
100012dc:	df000017 	ldw	fp,0(sp)
100012e0:	dec00204 	addi	sp,sp,8
100012e4:	f800283a 	ret

100012e8 <UsbGetDeviceDesc1>:


void UsbGetDeviceDesc1()
{
100012e8:	defffe04 	addi	sp,sp,-8
100012ec:	dfc00115 	stw	ra,4(sp)
100012f0:	df000015 	stw	fp,0(sp)
100012f4:	d839883a 	mov	fp,sp
	//the starting address
	IO_write(HPI_ADDR,0x0500); //the start address
100012f8:	01000084 	movi	r4,2
100012fc:	01414004 	movi	r5,1280
10001300:	00002480 	call	10000248 <IO_write>
	IO_write(HPI_DATA,0x050C);
10001304:	0009883a 	mov	r4,zero
10001308:	01414304 	movi	r5,1292
1000130c:	00002480 	call	10000248 <IO_write>
	IO_write(HPI_DATA,0x0008); //4 port number
10001310:	0009883a 	mov	r4,zero
10001314:	01400204 	movi	r5,8
10001318:	00002480 	call	10000248 <IO_write>
	IO_write(HPI_DATA,0x02D0); //device address
1000131c:	0009883a 	mov	r4,zero
10001320:	0140b404 	movi	r5,720
10001324:	00002480 	call	10000248 <IO_write>
	IO_write(HPI_DATA,0x0001);
10001328:	0009883a 	mov	r4,zero
1000132c:	01400044 	movi	r5,1
10001330:	00002480 	call	10000248 <IO_write>
	IO_write(HPI_DATA,0x0013);
10001334:	0009883a 	mov	r4,zero
10001338:	014004c4 	movi	r5,19
1000133c:	00002480 	call	10000248 <IO_write>
	IO_write(HPI_DATA,0x0514);
10001340:	0009883a 	mov	r4,zero
10001344:	01414504 	movi	r5,1300
10001348:	00002480 	call	10000248 <IO_write>

	//td content 4 bytes
	IO_write(HPI_DATA,0x0680);//c
1000134c:	0009883a 	mov	r4,zero
10001350:	0141a004 	movi	r5,1664
10001354:	00002480 	call	10000248 <IO_write>
	IO_write(HPI_DATA,0x0100); //device 0x01
10001358:	0009883a 	mov	r4,zero
1000135c:	01404004 	movi	r5,256
10001360:	00002480 	call	10000248 <IO_write>
	IO_write(HPI_DATA,0x0000);
10001364:	0009883a 	mov	r4,zero
10001368:	000b883a 	mov	r5,zero
1000136c:	00002480 	call	10000248 <IO_write>
	IO_write(HPI_DATA,0x0008);
10001370:	0009883a 	mov	r4,zero
10001374:	01400204 	movi	r5,8
10001378:	00002480 	call	10000248 <IO_write>

	//data phase IN
	IO_write(HPI_DATA,0x052C); //
1000137c:	0009883a 	mov	r4,zero
10001380:	01414b04 	movi	r5,1324
10001384:	00002480 	call	10000248 <IO_write>
	IO_write(HPI_DATA,0x0008);//
10001388:	0009883a 	mov	r4,zero
1000138c:	01400204 	movi	r5,8
10001390:	00002480 	call	10000248 <IO_write>
	IO_write(HPI_DATA,0x0290);//
10001394:	0009883a 	mov	r4,zero
10001398:	0140a404 	movi	r5,656
1000139c:	00002480 	call	10000248 <IO_write>
	IO_write(HPI_DATA,0x0041);
100013a0:	0009883a 	mov	r4,zero
100013a4:	01401044 	movi	r5,65
100013a8:	00002480 	call	10000248 <IO_write>
	IO_write(HPI_DATA,0x0013);
100013ac:	0009883a 	mov	r4,zero
100013b0:	014004c4 	movi	r5,19
100013b4:	00002480 	call	10000248 <IO_write>
	IO_write(HPI_DATA,0x0520);
100013b8:	0009883a 	mov	r4,zero
100013bc:	01414804 	movi	r5,1312
100013c0:	00002480 	call	10000248 <IO_write>

	//    //status phase
	IO_write(HPI_DATA,0x0000); //don't care
100013c4:	0009883a 	mov	r4,zero
100013c8:	000b883a 	mov	r5,zero
100013cc:	00002480 	call	10000248 <IO_write>
	IO_write(HPI_DATA,0x0000);//port number
100013d0:	0009883a 	mov	r4,zero
100013d4:	000b883a 	mov	r5,zero
100013d8:	00002480 	call	10000248 <IO_write>
	IO_write(HPI_DATA,0x0210);//device address
100013dc:	0009883a 	mov	r4,zero
100013e0:	01408404 	movi	r5,528
100013e4:	00002480 	call	10000248 <IO_write>
	IO_write(HPI_DATA,0x0041);
100013e8:	0009883a 	mov	r4,zero
100013ec:	01401044 	movi	r5,65
100013f0:	00002480 	call	10000248 <IO_write>
	IO_write(HPI_DATA,0x0013);
100013f4:	0009883a 	mov	r4,zero
100013f8:	014004c4 	movi	r5,19
100013fc:	00002480 	call	10000248 <IO_write>
	IO_write(HPI_DATA,0x0000);
10001400:	0009883a 	mov	r4,zero
10001404:	000b883a 	mov	r5,zero
10001408:	00002480 	call	10000248 <IO_write>

	UsbWrite(HUSB_SIE1_pCurrentTDPtr,0x0500); //HUSB_SIE1_pCurrentTDPtr
1000140c:	01006c04 	movi	r4,432
10001410:	01414004 	movi	r5,1280
10001414:	00010a40 	call	100010a4 <UsbWrite>
}
10001418:	e037883a 	mov	sp,fp
1000141c:	dfc00117 	ldw	ra,4(sp)
10001420:	df000017 	ldw	fp,0(sp)
10001424:	dec00204 	addi	sp,sp,8
10001428:	f800283a 	ret

1000142c <UsbGetDeviceDesc2>:

void UsbGetDeviceDesc2()
{
1000142c:	defffe04 	addi	sp,sp,-8
10001430:	dfc00115 	stw	ra,4(sp)
10001434:	df000015 	stw	fp,0(sp)
10001438:	d839883a 	mov	fp,sp
	//the starting address
	IO_write(HPI_ADDR,0x0500); //the start address
1000143c:	01000084 	movi	r4,2
10001440:	01414004 	movi	r5,1280
10001444:	00002480 	call	10000248 <IO_write>
	IO_write(HPI_DATA,0x050C);
10001448:	0009883a 	mov	r4,zero
1000144c:	01414304 	movi	r5,1292
10001450:	00002480 	call	10000248 <IO_write>
	IO_write(HPI_DATA,0x0008); //4 port number
10001454:	0009883a 	mov	r4,zero
10001458:	01400204 	movi	r5,8
1000145c:	00002480 	call	10000248 <IO_write>
	IO_write(HPI_DATA,0x02D0); //device address
10001460:	0009883a 	mov	r4,zero
10001464:	0140b404 	movi	r5,720
10001468:	00002480 	call	10000248 <IO_write>
	IO_write(HPI_DATA,0x0001);
1000146c:	0009883a 	mov	r4,zero
10001470:	01400044 	movi	r5,1
10001474:	00002480 	call	10000248 <IO_write>
	IO_write(HPI_DATA,0x0013);
10001478:	0009883a 	mov	r4,zero
1000147c:	014004c4 	movi	r5,19
10001480:	00002480 	call	10000248 <IO_write>
	IO_write(HPI_DATA,0x0514);
10001484:	0009883a 	mov	r4,zero
10001488:	01414504 	movi	r5,1300
1000148c:	00002480 	call	10000248 <IO_write>

	//td content 4 bytes
	IO_write(HPI_DATA,0x0680);//c
10001490:	0009883a 	mov	r4,zero
10001494:	0141a004 	movi	r5,1664
10001498:	00002480 	call	10000248 <IO_write>
	IO_write(HPI_DATA,0x0100);//e //device 0x01
1000149c:	0009883a 	mov	r4,zero
100014a0:	01404004 	movi	r5,256
100014a4:	00002480 	call	10000248 <IO_write>
	IO_write(HPI_DATA,0x0000);//0
100014a8:	0009883a 	mov	r4,zero
100014ac:	000b883a 	mov	r5,zero
100014b0:	00002480 	call	10000248 <IO_write>
	IO_write(HPI_DATA,0x0012);//2
100014b4:	0009883a 	mov	r4,zero
100014b8:	01400484 	movi	r5,18
100014bc:	00002480 	call	10000248 <IO_write>

	//data phase IN-1
	IO_write(HPI_DATA,0x0544); //514
100014c0:	0009883a 	mov	r4,zero
100014c4:	01415104 	movi	r5,1348
100014c8:	00002480 	call	10000248 <IO_write>
	IO_write(HPI_DATA,0x0008);//6
100014cc:	0009883a 	mov	r4,zero
100014d0:	01400204 	movi	r5,8
100014d4:	00002480 	call	10000248 <IO_write>
	IO_write(HPI_DATA,0x0290);//8
100014d8:	0009883a 	mov	r4,zero
100014dc:	0140a404 	movi	r5,656
100014e0:	00002480 	call	10000248 <IO_write>
	IO_write(HPI_DATA,0x0041);//a
100014e4:	0009883a 	mov	r4,zero
100014e8:	01401044 	movi	r5,65
100014ec:	00002480 	call	10000248 <IO_write>
	IO_write(HPI_DATA,0x0013);//c
100014f0:	0009883a 	mov	r4,zero
100014f4:	014004c4 	movi	r5,19
100014f8:	00002480 	call	10000248 <IO_write>
	IO_write(HPI_DATA,0x0520);//e
100014fc:	0009883a 	mov	r4,zero
10001500:	01414804 	movi	r5,1312
10001504:	00002480 	call	10000248 <IO_write>

	//data phase IN-2
	IO_write(HPI_DATA,0x054c); //520
10001508:	0009883a 	mov	r4,zero
1000150c:	01415304 	movi	r5,1356
10001510:	00002480 	call	10000248 <IO_write>
	IO_write(HPI_DATA,0x0008);//2
10001514:	0009883a 	mov	r4,zero
10001518:	01400204 	movi	r5,8
1000151c:	00002480 	call	10000248 <IO_write>
	IO_write(HPI_DATA,0x0290);//4
10001520:	0009883a 	mov	r4,zero
10001524:	0140a404 	movi	r5,656
10001528:	00002480 	call	10000248 <IO_write>
	IO_write(HPI_DATA,0x0001);//6
1000152c:	0009883a 	mov	r4,zero
10001530:	01400044 	movi	r5,1
10001534:	00002480 	call	10000248 <IO_write>
	IO_write(HPI_DATA,0x0013);//8
10001538:	0009883a 	mov	r4,zero
1000153c:	014004c4 	movi	r5,19
10001540:	00002480 	call	10000248 <IO_write>
	IO_write(HPI_DATA,0x052c);//a
10001544:	0009883a 	mov	r4,zero
10001548:	01414b04 	movi	r5,1324
1000154c:	00002480 	call	10000248 <IO_write>

	//data phase IN-3
	IO_write(HPI_DATA,0x0554); //c
10001550:	0009883a 	mov	r4,zero
10001554:	01415504 	movi	r5,1364
10001558:	00002480 	call	10000248 <IO_write>
	IO_write(HPI_DATA,0x0002);//e
1000155c:	0009883a 	mov	r4,zero
10001560:	01400084 	movi	r5,2
10001564:	00002480 	call	10000248 <IO_write>
	IO_write(HPI_DATA,0x0290);//530
10001568:	0009883a 	mov	r4,zero
1000156c:	0140a404 	movi	r5,656
10001570:	00002480 	call	10000248 <IO_write>
	IO_write(HPI_DATA,0x0041);//2
10001574:	0009883a 	mov	r4,zero
10001578:	01401044 	movi	r5,65
1000157c:	00002480 	call	10000248 <IO_write>
	IO_write(HPI_DATA,0x0013);//4
10001580:	0009883a 	mov	r4,zero
10001584:	014004c4 	movi	r5,19
10001588:	00002480 	call	10000248 <IO_write>
	IO_write(HPI_DATA,0x0538);//6
1000158c:	0009883a 	mov	r4,zero
10001590:	01414e04 	movi	r5,1336
10001594:	00002480 	call	10000248 <IO_write>

	//status phase
	IO_write(HPI_DATA,0x0000); //538
10001598:	0009883a 	mov	r4,zero
1000159c:	000b883a 	mov	r5,zero
100015a0:	00002480 	call	10000248 <IO_write>
	IO_write(HPI_DATA,0x0000);//a
100015a4:	0009883a 	mov	r4,zero
100015a8:	000b883a 	mov	r5,zero
100015ac:	00002480 	call	10000248 <IO_write>
	IO_write(HPI_DATA,0x0210);//c
100015b0:	0009883a 	mov	r4,zero
100015b4:	01408404 	movi	r5,528
100015b8:	00002480 	call	10000248 <IO_write>
	IO_write(HPI_DATA,0x0041);//e
100015bc:	0009883a 	mov	r4,zero
100015c0:	01401044 	movi	r5,65
100015c4:	00002480 	call	10000248 <IO_write>
	IO_write(HPI_DATA,0x0013);//540
100015c8:	0009883a 	mov	r4,zero
100015cc:	014004c4 	movi	r5,19
100015d0:	00002480 	call	10000248 <IO_write>
	IO_write(HPI_DATA,0x0000);//2
100015d4:	0009883a 	mov	r4,zero
100015d8:	000b883a 	mov	r5,zero
100015dc:	00002480 	call	10000248 <IO_write>

	UsbWrite(HUSB_SIE1_pCurrentTDPtr,0x0500); //HUSB_SIE1_pCurrentTDPtr
100015e0:	01006c04 	movi	r4,432
100015e4:	01414004 	movi	r5,1280
100015e8:	00010a40 	call	100010a4 <UsbWrite>
}
100015ec:	e037883a 	mov	sp,fp
100015f0:	dfc00117 	ldw	ra,4(sp)
100015f4:	df000017 	ldw	fp,0(sp)
100015f8:	dec00204 	addi	sp,sp,8
100015fc:	f800283a 	ret

10001600 <UsbGetConfigDesc1>:


void UsbGetConfigDesc1()
{
10001600:	defffe04 	addi	sp,sp,-8
10001604:	dfc00115 	stw	ra,4(sp)
10001608:	df000015 	stw	fp,0(sp)
1000160c:	d839883a 	mov	fp,sp
	//the starting address
	IO_write(HPI_ADDR,0x0500); //the start address
10001610:	01000084 	movi	r4,2
10001614:	01414004 	movi	r5,1280
10001618:	00002480 	call	10000248 <IO_write>
	IO_write(HPI_DATA,0x050C);
1000161c:	0009883a 	mov	r4,zero
10001620:	01414304 	movi	r5,1292
10001624:	00002480 	call	10000248 <IO_write>
	IO_write(HPI_DATA,0x0008); //4 port number
10001628:	0009883a 	mov	r4,zero
1000162c:	01400204 	movi	r5,8
10001630:	00002480 	call	10000248 <IO_write>
	IO_write(HPI_DATA,0x02D0); //device address
10001634:	0009883a 	mov	r4,zero
10001638:	0140b404 	movi	r5,720
1000163c:	00002480 	call	10000248 <IO_write>
	IO_write(HPI_DATA,0x0001);
10001640:	0009883a 	mov	r4,zero
10001644:	01400044 	movi	r5,1
10001648:	00002480 	call	10000248 <IO_write>
	IO_write(HPI_DATA,0x0013);
1000164c:	0009883a 	mov	r4,zero
10001650:	014004c4 	movi	r5,19
10001654:	00002480 	call	10000248 <IO_write>
	IO_write(HPI_DATA,0x0514);
10001658:	0009883a 	mov	r4,zero
1000165c:	01414504 	movi	r5,1300
10001660:	00002480 	call	10000248 <IO_write>

	//td content 4 bytes
	IO_write(HPI_DATA,0x0680);//c
10001664:	0009883a 	mov	r4,zero
10001668:	0141a004 	movi	r5,1664
1000166c:	00002480 	call	10000248 <IO_write>
	IO_write(HPI_DATA,0x0200);//e //config 0x02
10001670:	0009883a 	mov	r4,zero
10001674:	01408004 	movi	r5,512
10001678:	00002480 	call	10000248 <IO_write>
	IO_write(HPI_DATA,0x0000);//0
1000167c:	0009883a 	mov	r4,zero
10001680:	000b883a 	mov	r5,zero
10001684:	00002480 	call	10000248 <IO_write>
	IO_write(HPI_DATA,0x0009);//2
10001688:	0009883a 	mov	r4,zero
1000168c:	01400244 	movi	r5,9
10001690:	00002480 	call	10000248 <IO_write>

	//data phase IN-1
	IO_write(HPI_DATA,0x0544); //514
10001694:	0009883a 	mov	r4,zero
10001698:	01415104 	movi	r5,1348
1000169c:	00002480 	call	10000248 <IO_write>
	IO_write(HPI_DATA,0x0008);//6
100016a0:	0009883a 	mov	r4,zero
100016a4:	01400204 	movi	r5,8
100016a8:	00002480 	call	10000248 <IO_write>
	IO_write(HPI_DATA,0x0290);//8
100016ac:	0009883a 	mov	r4,zero
100016b0:	0140a404 	movi	r5,656
100016b4:	00002480 	call	10000248 <IO_write>
	IO_write(HPI_DATA,0x0041);//a
100016b8:	0009883a 	mov	r4,zero
100016bc:	01401044 	movi	r5,65
100016c0:	00002480 	call	10000248 <IO_write>
	IO_write(HPI_DATA,0x0013);//c
100016c4:	0009883a 	mov	r4,zero
100016c8:	014004c4 	movi	r5,19
100016cc:	00002480 	call	10000248 <IO_write>
	IO_write(HPI_DATA,0x0520);//e
100016d0:	0009883a 	mov	r4,zero
100016d4:	01414804 	movi	r5,1312
100016d8:	00002480 	call	10000248 <IO_write>

	//data phase IN-2
	IO_write(HPI_DATA,0x054c); //520
100016dc:	0009883a 	mov	r4,zero
100016e0:	01415304 	movi	r5,1356
100016e4:	00002480 	call	10000248 <IO_write>
	IO_write(HPI_DATA,0x0001);//2
100016e8:	0009883a 	mov	r4,zero
100016ec:	01400044 	movi	r5,1
100016f0:	00002480 	call	10000248 <IO_write>
	IO_write(HPI_DATA,0x0290);//4
100016f4:	0009883a 	mov	r4,zero
100016f8:	0140a404 	movi	r5,656
100016fc:	00002480 	call	10000248 <IO_write>
	IO_write(HPI_DATA,0x0001);//6 //data0
10001700:	0009883a 	mov	r4,zero
10001704:	01400044 	movi	r5,1
10001708:	00002480 	call	10000248 <IO_write>
	IO_write(HPI_DATA,0x0013);//8
1000170c:	0009883a 	mov	r4,zero
10001710:	014004c4 	movi	r5,19
10001714:	00002480 	call	10000248 <IO_write>
	IO_write(HPI_DATA,0x052c);//a
10001718:	0009883a 	mov	r4,zero
1000171c:	01414b04 	movi	r5,1324
10001720:	00002480 	call	10000248 <IO_write>

	//status phase
	IO_write(HPI_DATA,0x0000); //52c
10001724:	0009883a 	mov	r4,zero
10001728:	000b883a 	mov	r5,zero
1000172c:	00002480 	call	10000248 <IO_write>
	IO_write(HPI_DATA,0x0000);//e
10001730:	0009883a 	mov	r4,zero
10001734:	000b883a 	mov	r5,zero
10001738:	00002480 	call	10000248 <IO_write>
	IO_write(HPI_DATA,0x0210);//530
1000173c:	0009883a 	mov	r4,zero
10001740:	01408404 	movi	r5,528
10001744:	00002480 	call	10000248 <IO_write>
	IO_write(HPI_DATA,0x0041);//2
10001748:	0009883a 	mov	r4,zero
1000174c:	01401044 	movi	r5,65
10001750:	00002480 	call	10000248 <IO_write>
	IO_write(HPI_DATA,0x0013);//4
10001754:	0009883a 	mov	r4,zero
10001758:	014004c4 	movi	r5,19
1000175c:	00002480 	call	10000248 <IO_write>
	IO_write(HPI_DATA,0x0000);//6
10001760:	0009883a 	mov	r4,zero
10001764:	000b883a 	mov	r5,zero
10001768:	00002480 	call	10000248 <IO_write>

	UsbWrite(HUSB_SIE1_pCurrentTDPtr,0x0500); //HUSB_SIE1_pCurrentTDPtr
1000176c:	01006c04 	movi	r4,432
10001770:	01414004 	movi	r5,1280
10001774:	00010a40 	call	100010a4 <UsbWrite>
}
10001778:	e037883a 	mov	sp,fp
1000177c:	dfc00117 	ldw	ra,4(sp)
10001780:	df000017 	ldw	fp,0(sp)
10001784:	dec00204 	addi	sp,sp,8
10001788:	f800283a 	ret

1000178c <UsbGetConfigDesc2>:


void UsbGetConfigDesc2()
{
1000178c:	defffe04 	addi	sp,sp,-8
10001790:	dfc00115 	stw	ra,4(sp)
10001794:	df000015 	stw	fp,0(sp)
10001798:	d839883a 	mov	fp,sp
	//the starting address
	IO_write(HPI_ADDR,0x0500); //the start address
1000179c:	01000084 	movi	r4,2
100017a0:	01414004 	movi	r5,1280
100017a4:	00002480 	call	10000248 <IO_write>
	IO_write(HPI_DATA,0x050C);
100017a8:	0009883a 	mov	r4,zero
100017ac:	01414304 	movi	r5,1292
100017b0:	00002480 	call	10000248 <IO_write>
	IO_write(HPI_DATA,0x0008); //4 port number
100017b4:	0009883a 	mov	r4,zero
100017b8:	01400204 	movi	r5,8
100017bc:	00002480 	call	10000248 <IO_write>
	IO_write(HPI_DATA,0x02D0); //device address
100017c0:	0009883a 	mov	r4,zero
100017c4:	0140b404 	movi	r5,720
100017c8:	00002480 	call	10000248 <IO_write>
	IO_write(HPI_DATA,0x0001);
100017cc:	0009883a 	mov	r4,zero
100017d0:	01400044 	movi	r5,1
100017d4:	00002480 	call	10000248 <IO_write>
	IO_write(HPI_DATA,0x0013);
100017d8:	0009883a 	mov	r4,zero
100017dc:	014004c4 	movi	r5,19
100017e0:	00002480 	call	10000248 <IO_write>
	IO_write(HPI_DATA,0x0514);
100017e4:	0009883a 	mov	r4,zero
100017e8:	01414504 	movi	r5,1300
100017ec:	00002480 	call	10000248 <IO_write>

	//td content 4 bytes
	IO_write(HPI_DATA,0x0680);//c
100017f0:	0009883a 	mov	r4,zero
100017f4:	0141a004 	movi	r5,1664
100017f8:	00002480 	call	10000248 <IO_write>
	IO_write(HPI_DATA,0x0200);//e //config 0x02
100017fc:	0009883a 	mov	r4,zero
10001800:	01408004 	movi	r5,512
10001804:	00002480 	call	10000248 <IO_write>
	IO_write(HPI_DATA,0x0000);//0
10001808:	0009883a 	mov	r4,zero
1000180c:	000b883a 	mov	r5,zero
10001810:	00002480 	call	10000248 <IO_write>
	IO_write(HPI_DATA,0x00FF);//2
10001814:	0009883a 	mov	r4,zero
10001818:	01403fc4 	movi	r5,255
1000181c:	00002480 	call	10000248 <IO_write>

	//data phase IN-1
	IO_write(HPI_DATA,0x055c); //514
10001820:	0009883a 	mov	r4,zero
10001824:	01415704 	movi	r5,1372
10001828:	00002480 	call	10000248 <IO_write>
	IO_write(HPI_DATA,0x0008);//6
1000182c:	0009883a 	mov	r4,zero
10001830:	01400204 	movi	r5,8
10001834:	00002480 	call	10000248 <IO_write>
	IO_write(HPI_DATA,0x0290);//8
10001838:	0009883a 	mov	r4,zero
1000183c:	0140a404 	movi	r5,656
10001840:	00002480 	call	10000248 <IO_write>
	IO_write(HPI_DATA,0x0041);//a
10001844:	0009883a 	mov	r4,zero
10001848:	01401044 	movi	r5,65
1000184c:	00002480 	call	10000248 <IO_write>
	IO_write(HPI_DATA,0x0013);//c
10001850:	0009883a 	mov	r4,zero
10001854:	014004c4 	movi	r5,19
10001858:	00002480 	call	10000248 <IO_write>
	IO_write(HPI_DATA,0x0520);//e
1000185c:	0009883a 	mov	r4,zero
10001860:	01414804 	movi	r5,1312
10001864:	00002480 	call	10000248 <IO_write>

	//data phase IN-2
	IO_write(HPI_DATA,0x0564); //520
10001868:	0009883a 	mov	r4,zero
1000186c:	01415904 	movi	r5,1380
10001870:	00002480 	call	10000248 <IO_write>
	IO_write(HPI_DATA,0x0008);//2
10001874:	0009883a 	mov	r4,zero
10001878:	01400204 	movi	r5,8
1000187c:	00002480 	call	10000248 <IO_write>
	IO_write(HPI_DATA,0x0290);//4
10001880:	0009883a 	mov	r4,zero
10001884:	0140a404 	movi	r5,656
10001888:	00002480 	call	10000248 <IO_write>
	IO_write(HPI_DATA,0x0001);//6 //data0
1000188c:	0009883a 	mov	r4,zero
10001890:	01400044 	movi	r5,1
10001894:	00002480 	call	10000248 <IO_write>
	IO_write(HPI_DATA,0x0013);//8
10001898:	0009883a 	mov	r4,zero
1000189c:	014004c4 	movi	r5,19
100018a0:	00002480 	call	10000248 <IO_write>
	IO_write(HPI_DATA,0x052c);//a
100018a4:	0009883a 	mov	r4,zero
100018a8:	01414b04 	movi	r5,1324
100018ac:	00002480 	call	10000248 <IO_write>

	//data phase IN-3
	IO_write(HPI_DATA,0x056c); //52c
100018b0:	0009883a 	mov	r4,zero
100018b4:	01415b04 	movi	r5,1388
100018b8:	00002480 	call	10000248 <IO_write>
	IO_write(HPI_DATA,0x0008);//e
100018bc:	0009883a 	mov	r4,zero
100018c0:	01400204 	movi	r5,8
100018c4:	00002480 	call	10000248 <IO_write>
	IO_write(HPI_DATA,0x0290);//530
100018c8:	0009883a 	mov	r4,zero
100018cc:	0140a404 	movi	r5,656
100018d0:	00002480 	call	10000248 <IO_write>
	IO_write(HPI_DATA,0x0041);//2
100018d4:	0009883a 	mov	r4,zero
100018d8:	01401044 	movi	r5,65
100018dc:	00002480 	call	10000248 <IO_write>
	IO_write(HPI_DATA,0x0013);//4
100018e0:	0009883a 	mov	r4,zero
100018e4:	014004c4 	movi	r5,19
100018e8:	00002480 	call	10000248 <IO_write>
	IO_write(HPI_DATA,0x0538);//6
100018ec:	0009883a 	mov	r4,zero
100018f0:	01414e04 	movi	r5,1336
100018f4:	00002480 	call	10000248 <IO_write>

	//data phase IN-4
	IO_write(HPI_DATA,0x0574); //538
100018f8:	0009883a 	mov	r4,zero
100018fc:	01415d04 	movi	r5,1396
10001900:	00002480 	call	10000248 <IO_write>
	IO_write(HPI_DATA,0x0008);//a
10001904:	0009883a 	mov	r4,zero
10001908:	01400204 	movi	r5,8
1000190c:	00002480 	call	10000248 <IO_write>
	IO_write(HPI_DATA,0x0290);//c
10001910:	0009883a 	mov	r4,zero
10001914:	0140a404 	movi	r5,656
10001918:	00002480 	call	10000248 <IO_write>
	IO_write(HPI_DATA,0x0001);//e //data0
1000191c:	0009883a 	mov	r4,zero
10001920:	01400044 	movi	r5,1
10001924:	00002480 	call	10000248 <IO_write>
	IO_write(HPI_DATA,0x0013);//540
10001928:	0009883a 	mov	r4,zero
1000192c:	014004c4 	movi	r5,19
10001930:	00002480 	call	10000248 <IO_write>
	IO_write(HPI_DATA,0x0544);//2
10001934:	0009883a 	mov	r4,zero
10001938:	01415104 	movi	r5,1348
1000193c:	00002480 	call	10000248 <IO_write>

	//data phase IN-5
	IO_write(HPI_DATA,0x057c); //544
10001940:	0009883a 	mov	r4,zero
10001944:	01415f04 	movi	r5,1404
10001948:	00002480 	call	10000248 <IO_write>
	IO_write(HPI_DATA,0x0002);//6
1000194c:	0009883a 	mov	r4,zero
10001950:	01400084 	movi	r5,2
10001954:	00002480 	call	10000248 <IO_write>
	IO_write(HPI_DATA,0x0290);//8
10001958:	0009883a 	mov	r4,zero
1000195c:	0140a404 	movi	r5,656
10001960:	00002480 	call	10000248 <IO_write>
	IO_write(HPI_DATA,0x0041);//a //data1
10001964:	0009883a 	mov	r4,zero
10001968:	01401044 	movi	r5,65
1000196c:	00002480 	call	10000248 <IO_write>
	IO_write(HPI_DATA,0x0013);//c
10001970:	0009883a 	mov	r4,zero
10001974:	014004c4 	movi	r5,19
10001978:	00002480 	call	10000248 <IO_write>
	IO_write(HPI_DATA,0x0550);//e
1000197c:	0009883a 	mov	r4,zero
10001980:	01415404 	movi	r5,1360
10001984:	00002480 	call	10000248 <IO_write>

	//status phase
	IO_write(HPI_DATA,0x0000); //550
10001988:	0009883a 	mov	r4,zero
1000198c:	000b883a 	mov	r5,zero
10001990:	00002480 	call	10000248 <IO_write>
	IO_write(HPI_DATA,0x0000);//2
10001994:	0009883a 	mov	r4,zero
10001998:	000b883a 	mov	r5,zero
1000199c:	00002480 	call	10000248 <IO_write>
	IO_write(HPI_DATA,0x0210);//4
100019a0:	0009883a 	mov	r4,zero
100019a4:	01408404 	movi	r5,528
100019a8:	00002480 	call	10000248 <IO_write>
	IO_write(HPI_DATA,0x0041);//6
100019ac:	0009883a 	mov	r4,zero
100019b0:	01401044 	movi	r5,65
100019b4:	00002480 	call	10000248 <IO_write>
	IO_write(HPI_DATA,0x0013);//8
100019b8:	0009883a 	mov	r4,zero
100019bc:	014004c4 	movi	r5,19
100019c0:	00002480 	call	10000248 <IO_write>
	IO_write(HPI_DATA,0x0000);//a
100019c4:	0009883a 	mov	r4,zero
100019c8:	000b883a 	mov	r5,zero
100019cc:	00002480 	call	10000248 <IO_write>

	UsbWrite(HUSB_SIE1_pCurrentTDPtr,0x0500); //HUSB_SIE1_pCurrentTDPtr
100019d0:	01006c04 	movi	r4,432
100019d4:	01414004 	movi	r5,1280
100019d8:	00010a40 	call	100010a4 <UsbWrite>
}
100019dc:	e037883a 	mov	sp,fp
100019e0:	dfc00117 	ldw	ra,4(sp)
100019e4:	df000017 	ldw	fp,0(sp)
100019e8:	dec00204 	addi	sp,sp,8
100019ec:	f800283a 	ret

100019f0 <UsbSetConfig>:

void UsbSetConfig()
{
100019f0:	defffe04 	addi	sp,sp,-8
100019f4:	dfc00115 	stw	ra,4(sp)
100019f8:	df000015 	stw	fp,0(sp)
100019fc:	d839883a 	mov	fp,sp
	//the starting address
	IO_write(HPI_ADDR,0x0500); //the start address
10001a00:	01000084 	movi	r4,2
10001a04:	01414004 	movi	r5,1280
10001a08:	00002480 	call	10000248 <IO_write>
	IO_write(HPI_DATA,0x050C);
10001a0c:	0009883a 	mov	r4,zero
10001a10:	01414304 	movi	r5,1292
10001a14:	00002480 	call	10000248 <IO_write>
	IO_write(HPI_DATA,0x0008); //4 port number
10001a18:	0009883a 	mov	r4,zero
10001a1c:	01400204 	movi	r5,8
10001a20:	00002480 	call	10000248 <IO_write>
	IO_write(HPI_DATA,0x02D0); //port address
10001a24:	0009883a 	mov	r4,zero
10001a28:	0140b404 	movi	r5,720
10001a2c:	00002480 	call	10000248 <IO_write>
	IO_write(HPI_DATA,0x0001);
10001a30:	0009883a 	mov	r4,zero
10001a34:	01400044 	movi	r5,1
10001a38:	00002480 	call	10000248 <IO_write>
	IO_write(HPI_DATA,0x0013);
10001a3c:	0009883a 	mov	r4,zero
10001a40:	014004c4 	movi	r5,19
10001a44:	00002480 	call	10000248 <IO_write>
	IO_write(HPI_DATA,0x0514);
10001a48:	0009883a 	mov	r4,zero
10001a4c:	01414504 	movi	r5,1300
10001a50:	00002480 	call	10000248 <IO_write>

	//td content 4 bytes
	IO_write(HPI_DATA,0x0900);
10001a54:	0009883a 	mov	r4,zero
10001a58:	01424004 	movi	r5,2304
10001a5c:	00002480 	call	10000248 <IO_write>
	IO_write(HPI_DATA,0x0001);//device address
10001a60:	0009883a 	mov	r4,zero
10001a64:	01400044 	movi	r5,1
10001a68:	00002480 	call	10000248 <IO_write>
	IO_write(HPI_DATA,0x0000);
10001a6c:	0009883a 	mov	r4,zero
10001a70:	000b883a 	mov	r5,zero
10001a74:	00002480 	call	10000248 <IO_write>
	IO_write(HPI_DATA,0x0000);
10001a78:	0009883a 	mov	r4,zero
10001a7c:	000b883a 	mov	r5,zero
10001a80:	00002480 	call	10000248 <IO_write>
	//in packet
	IO_write(HPI_DATA,0x0000); //don't care
10001a84:	0009883a 	mov	r4,zero
10001a88:	000b883a 	mov	r5,zero
10001a8c:	00002480 	call	10000248 <IO_write>
	IO_write(HPI_DATA,0x0000);//port number
10001a90:	0009883a 	mov	r4,zero
10001a94:	000b883a 	mov	r5,zero
10001a98:	00002480 	call	10000248 <IO_write>
	IO_write(HPI_DATA,0x0290);//device address
10001a9c:	0009883a 	mov	r4,zero
10001aa0:	0140a404 	movi	r5,656
10001aa4:	00002480 	call	10000248 <IO_write>
	IO_write(HPI_DATA,0x0041); //data 1
10001aa8:	0009883a 	mov	r4,zero
10001aac:	01401044 	movi	r5,65
10001ab0:	00002480 	call	10000248 <IO_write>
	IO_write(HPI_DATA,0x0013);
10001ab4:	0009883a 	mov	r4,zero
10001ab8:	014004c4 	movi	r5,19
10001abc:	00002480 	call	10000248 <IO_write>
	IO_write(HPI_DATA,0x0000);
10001ac0:	0009883a 	mov	r4,zero
10001ac4:	000b883a 	mov	r5,zero
10001ac8:	00002480 	call	10000248 <IO_write>

	UsbWrite(HUSB_SIE1_pCurrentTDPtr,0x0500); //HUSB_SIE1_pCurrentTDPtr
10001acc:	01006c04 	movi	r4,432
10001ad0:	01414004 	movi	r5,1280
10001ad4:	00010a40 	call	100010a4 <UsbWrite>

}
10001ad8:	e037883a 	mov	sp,fp
10001adc:	dfc00117 	ldw	ra,4(sp)
10001ae0:	df000017 	ldw	fp,0(sp)
10001ae4:	dec00204 	addi	sp,sp,8
10001ae8:	f800283a 	ret

10001aec <UsbClassRequest>:

void UsbClassRequest()
{
10001aec:	defffe04 	addi	sp,sp,-8
10001af0:	dfc00115 	stw	ra,4(sp)
10001af4:	df000015 	stw	fp,0(sp)
10001af8:	d839883a 	mov	fp,sp
	//the starting address
	IO_write(HPI_ADDR,0x0500); //the start address
10001afc:	01000084 	movi	r4,2
10001b00:	01414004 	movi	r5,1280
10001b04:	00002480 	call	10000248 <IO_write>
	IO_write(HPI_DATA,0x050C);
10001b08:	0009883a 	mov	r4,zero
10001b0c:	01414304 	movi	r5,1292
10001b10:	00002480 	call	10000248 <IO_write>
	IO_write(HPI_DATA,0x0008); //4 port number
10001b14:	0009883a 	mov	r4,zero
10001b18:	01400204 	movi	r5,8
10001b1c:	00002480 	call	10000248 <IO_write>
	IO_write(HPI_DATA,0x02D0); //port address
10001b20:	0009883a 	mov	r4,zero
10001b24:	0140b404 	movi	r5,720
10001b28:	00002480 	call	10000248 <IO_write>
	IO_write(HPI_DATA,0x0001);
10001b2c:	0009883a 	mov	r4,zero
10001b30:	01400044 	movi	r5,1
10001b34:	00002480 	call	10000248 <IO_write>
	IO_write(HPI_DATA,0x0013);
10001b38:	0009883a 	mov	r4,zero
10001b3c:	014004c4 	movi	r5,19
10001b40:	00002480 	call	10000248 <IO_write>
	IO_write(HPI_DATA,0x0514);
10001b44:	0009883a 	mov	r4,zero
10001b48:	01414504 	movi	r5,1300
10001b4c:	00002480 	call	10000248 <IO_write>

	//td content 4 bytes
	IO_write(HPI_DATA,0x0A21);
10001b50:	0009883a 	mov	r4,zero
10001b54:	01428844 	movi	r5,2593
10001b58:	00002480 	call	10000248 <IO_write>
	IO_write(HPI_DATA,0x0000);//device address
10001b5c:	0009883a 	mov	r4,zero
10001b60:	000b883a 	mov	r5,zero
10001b64:	00002480 	call	10000248 <IO_write>
	IO_write(HPI_DATA,0x0000);
10001b68:	0009883a 	mov	r4,zero
10001b6c:	000b883a 	mov	r5,zero
10001b70:	00002480 	call	10000248 <IO_write>
	IO_write(HPI_DATA,0x0000);
10001b74:	0009883a 	mov	r4,zero
10001b78:	000b883a 	mov	r5,zero
10001b7c:	00002480 	call	10000248 <IO_write>
	//in packet
	IO_write(HPI_DATA,0x0000); //don't care
10001b80:	0009883a 	mov	r4,zero
10001b84:	000b883a 	mov	r5,zero
10001b88:	00002480 	call	10000248 <IO_write>
	IO_write(HPI_DATA,0x0000);//port number /data length
10001b8c:	0009883a 	mov	r4,zero
10001b90:	000b883a 	mov	r5,zero
10001b94:	00002480 	call	10000248 <IO_write>
	IO_write(HPI_DATA,0x0290);//device address
10001b98:	0009883a 	mov	r4,zero
10001b9c:	0140a404 	movi	r5,656
10001ba0:	00002480 	call	10000248 <IO_write>
	IO_write(HPI_DATA,0x0041); //data 1
10001ba4:	0009883a 	mov	r4,zero
10001ba8:	01401044 	movi	r5,65
10001bac:	00002480 	call	10000248 <IO_write>
	IO_write(HPI_DATA,0x0013);
10001bb0:	0009883a 	mov	r4,zero
10001bb4:	014004c4 	movi	r5,19
10001bb8:	00002480 	call	10000248 <IO_write>
	IO_write(HPI_DATA,0x0000);
10001bbc:	0009883a 	mov	r4,zero
10001bc0:	000b883a 	mov	r5,zero
10001bc4:	00002480 	call	10000248 <IO_write>

	UsbWrite(HUSB_SIE1_pCurrentTDPtr,0x0500); //HUSB_SIE1_pCurrentTDPtr
10001bc8:	01006c04 	movi	r4,432
10001bcc:	01414004 	movi	r5,1280
10001bd0:	00010a40 	call	100010a4 <UsbWrite>
}
10001bd4:	e037883a 	mov	sp,fp
10001bd8:	dfc00117 	ldw	ra,4(sp)
10001bdc:	df000017 	ldw	fp,0(sp)
10001be0:	dec00204 	addi	sp,sp,8
10001be4:	f800283a 	ret

10001be8 <UsbGetHidDesc>:


void UsbGetHidDesc()
{
10001be8:	defffe04 	addi	sp,sp,-8
10001bec:	dfc00115 	stw	ra,4(sp)
10001bf0:	df000015 	stw	fp,0(sp)
10001bf4:	d839883a 	mov	fp,sp
	//the starting address
	IO_write(HPI_ADDR,0x0500); //the start address
10001bf8:	01000084 	movi	r4,2
10001bfc:	01414004 	movi	r5,1280
10001c00:	00002480 	call	10000248 <IO_write>
	IO_write(HPI_DATA,0x050C);
10001c04:	0009883a 	mov	r4,zero
10001c08:	01414304 	movi	r5,1292
10001c0c:	00002480 	call	10000248 <IO_write>
	IO_write(HPI_DATA,0x0008); //4 port number
10001c10:	0009883a 	mov	r4,zero
10001c14:	01400204 	movi	r5,8
10001c18:	00002480 	call	10000248 <IO_write>
	IO_write(HPI_DATA,0x02D0); //port address
10001c1c:	0009883a 	mov	r4,zero
10001c20:	0140b404 	movi	r5,720
10001c24:	00002480 	call	10000248 <IO_write>
	IO_write(HPI_DATA,0x0001);
10001c28:	0009883a 	mov	r4,zero
10001c2c:	01400044 	movi	r5,1
10001c30:	00002480 	call	10000248 <IO_write>
	IO_write(HPI_DATA,0x0013);
10001c34:	0009883a 	mov	r4,zero
10001c38:	014004c4 	movi	r5,19
10001c3c:	00002480 	call	10000248 <IO_write>
	IO_write(HPI_DATA,0x0514);
10001c40:	0009883a 	mov	r4,zero
10001c44:	01414504 	movi	r5,1300
10001c48:	00002480 	call	10000248 <IO_write>

	//td content 4 bytes
	IO_write(HPI_DATA,0x0681);//c
10001c4c:	0009883a 	mov	r4,zero
10001c50:	0141a044 	movi	r5,1665
10001c54:	00002480 	call	10000248 <IO_write>
	IO_write(HPI_DATA,0x2100);//e //HID 0x21
10001c58:	0009883a 	mov	r4,zero
10001c5c:	01484004 	movi	r5,8448
10001c60:	00002480 	call	10000248 <IO_write>
	IO_write(HPI_DATA,0x0000);//0
10001c64:	0009883a 	mov	r4,zero
10001c68:	000b883a 	mov	r5,zero
10001c6c:	00002480 	call	10000248 <IO_write>
	IO_write(HPI_DATA,0x007B);//2
10001c70:	0009883a 	mov	r4,zero
10001c74:	01401ec4 	movi	r5,123
10001c78:	00002480 	call	10000248 <IO_write>

	//data phase IN-1
	IO_write(HPI_DATA,0x0544); //514
10001c7c:	0009883a 	mov	r4,zero
10001c80:	01415104 	movi	r5,1348
10001c84:	00002480 	call	10000248 <IO_write>
	IO_write(HPI_DATA,0x0008);//6
10001c88:	0009883a 	mov	r4,zero
10001c8c:	01400204 	movi	r5,8
10001c90:	00002480 	call	10000248 <IO_write>
	IO_write(HPI_DATA,0x0290);//8
10001c94:	0009883a 	mov	r4,zero
10001c98:	0140a404 	movi	r5,656
10001c9c:	00002480 	call	10000248 <IO_write>
	IO_write(HPI_DATA,0x0041);//a
10001ca0:	0009883a 	mov	r4,zero
10001ca4:	01401044 	movi	r5,65
10001ca8:	00002480 	call	10000248 <IO_write>
	IO_write(HPI_DATA,0x0013);//c
10001cac:	0009883a 	mov	r4,zero
10001cb0:	014004c4 	movi	r5,19
10001cb4:	00002480 	call	10000248 <IO_write>
	IO_write(HPI_DATA,0x0520);//e
10001cb8:	0009883a 	mov	r4,zero
10001cbc:	01414804 	movi	r5,1312
10001cc0:	00002480 	call	10000248 <IO_write>

	//status phase
	IO_write(HPI_DATA,0x0000); //52c
10001cc4:	0009883a 	mov	r4,zero
10001cc8:	000b883a 	mov	r5,zero
10001ccc:	00002480 	call	10000248 <IO_write>
	IO_write(HPI_DATA,0x0000);//e
10001cd0:	0009883a 	mov	r4,zero
10001cd4:	000b883a 	mov	r5,zero
10001cd8:	00002480 	call	10000248 <IO_write>
	IO_write(HPI_DATA,0x0210);//530
10001cdc:	0009883a 	mov	r4,zero
10001ce0:	01408404 	movi	r5,528
10001ce4:	00002480 	call	10000248 <IO_write>
	IO_write(HPI_DATA,0x0041);//2
10001ce8:	0009883a 	mov	r4,zero
10001cec:	01401044 	movi	r5,65
10001cf0:	00002480 	call	10000248 <IO_write>
	IO_write(HPI_DATA,0x0013);//4
10001cf4:	0009883a 	mov	r4,zero
10001cf8:	014004c4 	movi	r5,19
10001cfc:	00002480 	call	10000248 <IO_write>
	IO_write(HPI_DATA,0x0000);//6
10001d00:	0009883a 	mov	r4,zero
10001d04:	000b883a 	mov	r5,zero
10001d08:	00002480 	call	10000248 <IO_write>

	UsbWrite(HUSB_SIE1_pCurrentTDPtr,0x0500); //HUSB_SIE1_pCurrentTDPtr
10001d0c:	01006c04 	movi	r4,432
10001d10:	01414004 	movi	r5,1280
10001d14:	00010a40 	call	100010a4 <UsbWrite>

}
10001d18:	e037883a 	mov	sp,fp
10001d1c:	dfc00117 	ldw	ra,4(sp)
10001d20:	df000017 	ldw	fp,0(sp)
10001d24:	dec00204 	addi	sp,sp,8
10001d28:	f800283a 	ret

10001d2c <UsbGetReportDesc>:


void UsbGetReportDesc()
{
10001d2c:	defffe04 	addi	sp,sp,-8
10001d30:	dfc00115 	stw	ra,4(sp)
10001d34:	df000015 	stw	fp,0(sp)
10001d38:	d839883a 	mov	fp,sp
	//the starting address
	IO_write(HPI_ADDR,0x0500); //the start address
10001d3c:	01000084 	movi	r4,2
10001d40:	01414004 	movi	r5,1280
10001d44:	00002480 	call	10000248 <IO_write>
	IO_write(HPI_DATA,0x050C);
10001d48:	0009883a 	mov	r4,zero
10001d4c:	01414304 	movi	r5,1292
10001d50:	00002480 	call	10000248 <IO_write>
	IO_write(HPI_DATA,0x0008); //4 port number
10001d54:	0009883a 	mov	r4,zero
10001d58:	01400204 	movi	r5,8
10001d5c:	00002480 	call	10000248 <IO_write>
	IO_write(HPI_DATA,0x02D0); //device address
10001d60:	0009883a 	mov	r4,zero
10001d64:	0140b404 	movi	r5,720
10001d68:	00002480 	call	10000248 <IO_write>
	IO_write(HPI_DATA,0x0001);
10001d6c:	0009883a 	mov	r4,zero
10001d70:	01400044 	movi	r5,1
10001d74:	00002480 	call	10000248 <IO_write>
	IO_write(HPI_DATA,0x0013);
10001d78:	0009883a 	mov	r4,zero
10001d7c:	014004c4 	movi	r5,19
10001d80:	00002480 	call	10000248 <IO_write>
	IO_write(HPI_DATA,0x0514);
10001d84:	0009883a 	mov	r4,zero
10001d88:	01414504 	movi	r5,1300
10001d8c:	00002480 	call	10000248 <IO_write>

	//td content 4 bytes
	IO_write(HPI_DATA,0x0681);//c
10001d90:	0009883a 	mov	r4,zero
10001d94:	0141a044 	movi	r5,1665
10001d98:	00002480 	call	10000248 <IO_write>
	IO_write(HPI_DATA,0x2200);//e //report 0x22
10001d9c:	0009883a 	mov	r4,zero
10001da0:	01488004 	movi	r5,8704
10001da4:	00002480 	call	10000248 <IO_write>
	IO_write(HPI_DATA,0x0000);//0
10001da8:	0009883a 	mov	r4,zero
10001dac:	000b883a 	mov	r5,zero
10001db0:	00002480 	call	10000248 <IO_write>
	IO_write(HPI_DATA,0x007B);//2
10001db4:	0009883a 	mov	r4,zero
10001db8:	01401ec4 	movi	r5,123
10001dbc:	00002480 	call	10000248 <IO_write>

	//data phase IN-1
	IO_write(HPI_DATA,0x0580); //514
10001dc0:	0009883a 	mov	r4,zero
10001dc4:	01416004 	movi	r5,1408
10001dc8:	00002480 	call	10000248 <IO_write>
	IO_write(HPI_DATA,0x0008);//6
10001dcc:	0009883a 	mov	r4,zero
10001dd0:	01400204 	movi	r5,8
10001dd4:	00002480 	call	10000248 <IO_write>
	IO_write(HPI_DATA,0x0290);//8
10001dd8:	0009883a 	mov	r4,zero
10001ddc:	0140a404 	movi	r5,656
10001de0:	00002480 	call	10000248 <IO_write>
	IO_write(HPI_DATA,0x0041);//a
10001de4:	0009883a 	mov	r4,zero
10001de8:	01401044 	movi	r5,65
10001dec:	00002480 	call	10000248 <IO_write>
	IO_write(HPI_DATA,0x0013);//c
10001df0:	0009883a 	mov	r4,zero
10001df4:	014004c4 	movi	r5,19
10001df8:	00002480 	call	10000248 <IO_write>
	IO_write(HPI_DATA,0x0520);//e
10001dfc:	0009883a 	mov	r4,zero
10001e00:	01414804 	movi	r5,1312
10001e04:	00002480 	call	10000248 <IO_write>

	//data phase IN-2
	IO_write(HPI_DATA,0x0588); //520
10001e08:	0009883a 	mov	r4,zero
10001e0c:	01416204 	movi	r5,1416
10001e10:	00002480 	call	10000248 <IO_write>
	IO_write(HPI_DATA,0x0008);//2
10001e14:	0009883a 	mov	r4,zero
10001e18:	01400204 	movi	r5,8
10001e1c:	00002480 	call	10000248 <IO_write>
	IO_write(HPI_DATA,0x0290);//4
10001e20:	0009883a 	mov	r4,zero
10001e24:	0140a404 	movi	r5,656
10001e28:	00002480 	call	10000248 <IO_write>
	IO_write(HPI_DATA,0x0001);//6 //data0
10001e2c:	0009883a 	mov	r4,zero
10001e30:	01400044 	movi	r5,1
10001e34:	00002480 	call	10000248 <IO_write>
	IO_write(HPI_DATA,0x0013);//8
10001e38:	0009883a 	mov	r4,zero
10001e3c:	014004c4 	movi	r5,19
10001e40:	00002480 	call	10000248 <IO_write>
	IO_write(HPI_DATA,0x052c);//a
10001e44:	0009883a 	mov	r4,zero
10001e48:	01414b04 	movi	r5,1324
10001e4c:	00002480 	call	10000248 <IO_write>

	//data phase IN-3
	IO_write(HPI_DATA,0x0590); //52c
10001e50:	0009883a 	mov	r4,zero
10001e54:	01416404 	movi	r5,1424
10001e58:	00002480 	call	10000248 <IO_write>
	IO_write(HPI_DATA,0x0008);//e
10001e5c:	0009883a 	mov	r4,zero
10001e60:	01400204 	movi	r5,8
10001e64:	00002480 	call	10000248 <IO_write>
	IO_write(HPI_DATA,0x0290);//530
10001e68:	0009883a 	mov	r4,zero
10001e6c:	0140a404 	movi	r5,656
10001e70:	00002480 	call	10000248 <IO_write>
	IO_write(HPI_DATA,0x0041);//2
10001e74:	0009883a 	mov	r4,zero
10001e78:	01401044 	movi	r5,65
10001e7c:	00002480 	call	10000248 <IO_write>
	IO_write(HPI_DATA,0x0013);//4
10001e80:	0009883a 	mov	r4,zero
10001e84:	014004c4 	movi	r5,19
10001e88:	00002480 	call	10000248 <IO_write>
	IO_write(HPI_DATA,0x0538);//6
10001e8c:	0009883a 	mov	r4,zero
10001e90:	01414e04 	movi	r5,1336
10001e94:	00002480 	call	10000248 <IO_write>

	//data phase IN-4
	IO_write(HPI_DATA,0x0598); //538
10001e98:	0009883a 	mov	r4,zero
10001e9c:	01416604 	movi	r5,1432
10001ea0:	00002480 	call	10000248 <IO_write>
	IO_write(HPI_DATA,0x0008);//a
10001ea4:	0009883a 	mov	r4,zero
10001ea8:	01400204 	movi	r5,8
10001eac:	00002480 	call	10000248 <IO_write>
	IO_write(HPI_DATA,0x0290);//c
10001eb0:	0009883a 	mov	r4,zero
10001eb4:	0140a404 	movi	r5,656
10001eb8:	00002480 	call	10000248 <IO_write>
	IO_write(HPI_DATA,0x0001);//e //data0
10001ebc:	0009883a 	mov	r4,zero
10001ec0:	01400044 	movi	r5,1
10001ec4:	00002480 	call	10000248 <IO_write>
	IO_write(HPI_DATA,0x0013);//540
10001ec8:	0009883a 	mov	r4,zero
10001ecc:	014004c4 	movi	r5,19
10001ed0:	00002480 	call	10000248 <IO_write>
	IO_write(HPI_DATA,0x0544);//2
10001ed4:	0009883a 	mov	r4,zero
10001ed8:	01415104 	movi	r5,1348
10001edc:	00002480 	call	10000248 <IO_write>

	//data phase IN-5
	IO_write(HPI_DATA,0x05a0); //544
10001ee0:	0009883a 	mov	r4,zero
10001ee4:	01416804 	movi	r5,1440
10001ee8:	00002480 	call	10000248 <IO_write>
	IO_write(HPI_DATA,0x0008);//6
10001eec:	0009883a 	mov	r4,zero
10001ef0:	01400204 	movi	r5,8
10001ef4:	00002480 	call	10000248 <IO_write>
	IO_write(HPI_DATA,0x0290);//8
10001ef8:	0009883a 	mov	r4,zero
10001efc:	0140a404 	movi	r5,656
10001f00:	00002480 	call	10000248 <IO_write>
	IO_write(HPI_DATA,0x0041);//a //data1
10001f04:	0009883a 	mov	r4,zero
10001f08:	01401044 	movi	r5,65
10001f0c:	00002480 	call	10000248 <IO_write>
	IO_write(HPI_DATA,0x0013);//c
10001f10:	0009883a 	mov	r4,zero
10001f14:	014004c4 	movi	r5,19
10001f18:	00002480 	call	10000248 <IO_write>
	IO_write(HPI_DATA,0x0550);//e
10001f1c:	0009883a 	mov	r4,zero
10001f20:	01415404 	movi	r5,1360
10001f24:	00002480 	call	10000248 <IO_write>

	//data phase IN-6
	IO_write(HPI_DATA,0x05a8); //550
10001f28:	0009883a 	mov	r4,zero
10001f2c:	01416a04 	movi	r5,1448
10001f30:	00002480 	call	10000248 <IO_write>
	IO_write(HPI_DATA,0x0008);//2
10001f34:	0009883a 	mov	r4,zero
10001f38:	01400204 	movi	r5,8
10001f3c:	00002480 	call	10000248 <IO_write>
	IO_write(HPI_DATA,0x0290);//4
10001f40:	0009883a 	mov	r4,zero
10001f44:	0140a404 	movi	r5,656
10001f48:	00002480 	call	10000248 <IO_write>
	IO_write(HPI_DATA,0x0001);//6 //data0
10001f4c:	0009883a 	mov	r4,zero
10001f50:	01400044 	movi	r5,1
10001f54:	00002480 	call	10000248 <IO_write>
	IO_write(HPI_DATA,0x0013);//8
10001f58:	0009883a 	mov	r4,zero
10001f5c:	014004c4 	movi	r5,19
10001f60:	00002480 	call	10000248 <IO_write>
	IO_write(HPI_DATA,0x055c);//a
10001f64:	0009883a 	mov	r4,zero
10001f68:	01415704 	movi	r5,1372
10001f6c:	00002480 	call	10000248 <IO_write>

	//data phase IN-7
	IO_write(HPI_DATA,0x05b0); //c
10001f70:	0009883a 	mov	r4,zero
10001f74:	01416c04 	movi	r5,1456
10001f78:	00002480 	call	10000248 <IO_write>
	IO_write(HPI_DATA,0x0008);//e
10001f7c:	0009883a 	mov	r4,zero
10001f80:	01400204 	movi	r5,8
10001f84:	00002480 	call	10000248 <IO_write>
	IO_write(HPI_DATA,0x0290);//560
10001f88:	0009883a 	mov	r4,zero
10001f8c:	0140a404 	movi	r5,656
10001f90:	00002480 	call	10000248 <IO_write>
	IO_write(HPI_DATA,0x0041);//2 //data1
10001f94:	0009883a 	mov	r4,zero
10001f98:	01401044 	movi	r5,65
10001f9c:	00002480 	call	10000248 <IO_write>
	IO_write(HPI_DATA,0x0013);//4
10001fa0:	0009883a 	mov	r4,zero
10001fa4:	014004c4 	movi	r5,19
10001fa8:	00002480 	call	10000248 <IO_write>
	IO_write(HPI_DATA,0x0568);//6
10001fac:	0009883a 	mov	r4,zero
10001fb0:	01415a04 	movi	r5,1384
10001fb4:	00002480 	call	10000248 <IO_write>

	//data phase IN-8
	IO_write(HPI_DATA,0x05b8); //8
10001fb8:	0009883a 	mov	r4,zero
10001fbc:	01416e04 	movi	r5,1464
10001fc0:	00002480 	call	10000248 <IO_write>
	IO_write(HPI_DATA,0x0003);//a
10001fc4:	0009883a 	mov	r4,zero
10001fc8:	014000c4 	movi	r5,3
10001fcc:	00002480 	call	10000248 <IO_write>
	IO_write(HPI_DATA,0x0290);//c
10001fd0:	0009883a 	mov	r4,zero
10001fd4:	0140a404 	movi	r5,656
10001fd8:	00002480 	call	10000248 <IO_write>
	IO_write(HPI_DATA,0x0001);//e //data0
10001fdc:	0009883a 	mov	r4,zero
10001fe0:	01400044 	movi	r5,1
10001fe4:	00002480 	call	10000248 <IO_write>
	IO_write(HPI_DATA,0x0013);//570
10001fe8:	0009883a 	mov	r4,zero
10001fec:	014004c4 	movi	r5,19
10001ff0:	00002480 	call	10000248 <IO_write>
	IO_write(HPI_DATA,0x0574);//2
10001ff4:	0009883a 	mov	r4,zero
10001ff8:	01415d04 	movi	r5,1396
10001ffc:	00002480 	call	10000248 <IO_write>

	//status phase
	IO_write(HPI_DATA,0x0000); //574
10002000:	0009883a 	mov	r4,zero
10002004:	000b883a 	mov	r5,zero
10002008:	00002480 	call	10000248 <IO_write>
	IO_write(HPI_DATA,0x0000);//6
1000200c:	0009883a 	mov	r4,zero
10002010:	000b883a 	mov	r5,zero
10002014:	00002480 	call	10000248 <IO_write>
	IO_write(HPI_DATA,0x0210);//8
10002018:	0009883a 	mov	r4,zero
1000201c:	01408404 	movi	r5,528
10002020:	00002480 	call	10000248 <IO_write>
	IO_write(HPI_DATA,0x0041);//a
10002024:	0009883a 	mov	r4,zero
10002028:	01401044 	movi	r5,65
1000202c:	00002480 	call	10000248 <IO_write>
	IO_write(HPI_DATA,0x0013);//c
10002030:	0009883a 	mov	r4,zero
10002034:	014004c4 	movi	r5,19
10002038:	00002480 	call	10000248 <IO_write>
	IO_write(HPI_DATA,0x0000);//e
1000203c:	0009883a 	mov	r4,zero
10002040:	000b883a 	mov	r5,zero
10002044:	00002480 	call	10000248 <IO_write>

	UsbWrite(HUSB_SIE1_pCurrentTDPtr,0x0500); //HUSB_SIE1_pCurrentTDPtr
10002048:	01006c04 	movi	r4,432
1000204c:	01414004 	movi	r5,1280
10002050:	00010a40 	call	100010a4 <UsbWrite>

}
10002054:	e037883a 	mov	sp,fp
10002058:	dfc00117 	ldw	ra,4(sp)
1000205c:	df000017 	ldw	fp,0(sp)
10002060:	dec00204 	addi	sp,sp,8
10002064:	f800283a 	ret

10002068 <UsbWaitTDListDone>:


alt_u16 UsbWaitTDListDone()
{
10002068:	defffd04 	addi	sp,sp,-12
1000206c:	dfc00215 	stw	ra,8(sp)
10002070:	df000115 	stw	fp,4(sp)
10002074:	df000104 	addi	fp,sp,4
	alt_u16 usb_ctl_val;

	usb_ctl_val = UsbRead(HPI_SIE1_MSG_ADR); // STEP 3 j
10002078:	01005104 	movi	r4,324
1000207c:	00010f80 	call	100010f8 <UsbRead>
10002080:	e0bfff0d 	sth	r2,-4(fp)
	UsbWrite(HPI_SIE1_MSG_ADR, 0);
10002084:	01005104 	movi	r4,324
10002088:	000b883a 	mov	r5,zero
1000208c:	00010a40 	call	100010a4 <UsbWrite>
	while (usb_ctl_val != HUSB_TDListDone)  // k, read sie1 msg register
10002090:	00000d06 	br	100020c8 <UsbWaitTDListDone+0x60>
	{
		if(usb_ctl_val == 0x0000)
10002094:	e0bfff0b 	ldhu	r2,-4(fp)
10002098:	10000526 	beq	r2,zero,100020b0 <UsbWaitTDListDone+0x48>
		{
		}
		else
		{
			printf("[SIE1 MSG]:SIE1 msg reg is %x\n",usb_ctl_val);
1000209c:	e0bfff0b 	ldhu	r2,-4(fp)
100020a0:	01040074 	movhi	r4,4097
100020a4:	2106bf04 	addi	r4,r4,6908
100020a8:	100b883a 	mov	r5,r2
100020ac:	00022140 	call	10002214 <printf>
		}
		usb_ctl_val = UsbRead(HPI_SIE1_MSG_ADR);
100020b0:	01005104 	movi	r4,324
100020b4:	00010f80 	call	100010f8 <UsbRead>
100020b8:	e0bfff0d 	sth	r2,-4(fp)
		UsbWrite(HPI_SIE1_MSG_ADR, 0);
100020bc:	01005104 	movi	r4,324
100020c0:	000b883a 	mov	r5,zero
100020c4:	00010a40 	call	100010a4 <UsbWrite>
{
	alt_u16 usb_ctl_val;

	usb_ctl_val = UsbRead(HPI_SIE1_MSG_ADR); // STEP 3 j
	UsbWrite(HPI_SIE1_MSG_ADR, 0);
	while (usb_ctl_val != HUSB_TDListDone)  // k, read sie1 msg register
100020c8:	e0bfff0b 	ldhu	r2,-4(fp)
100020cc:	10840018 	cmpnei	r2,r2,4096
100020d0:	103ff01e 	bne	r2,zero,10002094 <__alt_data_end+0xf8002094>
		}
		usb_ctl_val = UsbRead(HPI_SIE1_MSG_ADR);
		UsbWrite(HPI_SIE1_MSG_ADR, 0);
	}

	return usb_ctl_val;
100020d4:	e0bfff0b 	ldhu	r2,-4(fp)
}
100020d8:	e037883a 	mov	sp,fp
100020dc:	dfc00117 	ldw	ra,4(sp)
100020e0:	df000017 	ldw	fp,0(sp)
100020e4:	dec00204 	addi	sp,sp,8
100020e8:	f800283a 	ret

100020ec <UsbGetRetryCnt>:


alt_u16 UsbGetRetryCnt()
{
100020ec:	defffd04 	addi	sp,sp,-12
100020f0:	dfc00215 	stw	ra,8(sp)
100020f4:	df000115 	stw	fp,4(sp)
100020f8:	df000104 	addi	fp,sp,4
	alt_u16 usb_ctl_val;

	IO_read(HPI_STATUS);
100020fc:	010000c4 	movi	r4,3
10002100:	00002b40 	call	100002b4 <IO_read>
	if(UsbRead(HPI_SIE1_MSG_ADR) == HUSB_TDListDone)
10002104:	01005104 	movi	r4,324
10002108:	00010f80 	call	100010f8 <UsbRead>
1000210c:	10bfffcc 	andi	r2,r2,65535
10002110:	10840018 	cmpnei	r2,r2,4096
10002114:	1000091e 	bne	r2,zero,1000213c <UsbGetRetryCnt+0x50>
	{
		UsbWrite(HPI_SIE1_MSG_ADR, 0);
10002118:	01005104 	movi	r4,324
1000211c:	000b883a 	mov	r5,zero
10002120:	00010a40 	call	100010a4 <UsbWrite>

		while (!(IO_read(HPI_STATUS) & HPI_STATUS_SIE1msg_FLAG) )  //read sie1 msg register
10002124:	0001883a 	nop
10002128:	010000c4 	movi	r4,3
1000212c:	00002b40 	call	100002b4 <IO_read>
10002130:	10bfffcc 	andi	r2,r2,65535
10002134:	1080040c 	andi	r2,r2,16
10002138:	103ffb26 	beq	r2,zero,10002128 <__alt_data_end+0xf8002128>
		{
		}
	}
	//usleep(1000);
	IO_write(HPI_ADDR,0x0508);
1000213c:	01000084 	movi	r4,2
10002140:	01414204 	movi	r5,1288
10002144:	00002480 	call	10000248 <IO_write>
	usb_ctl_val = IO_read(HPI_DATA);
10002148:	0009883a 	mov	r4,zero
1000214c:	00002b40 	call	100002b4 <IO_read>
10002150:	e0bfff0d 	sth	r2,-4(fp)

	return usb_ctl_val;
10002154:	e0bfff0b 	ldhu	r2,-4(fp)
}
10002158:	e037883a 	mov	sp,fp
1000215c:	dfc00117 	ldw	ra,4(sp)
10002160:	df000017 	ldw	fp,0(sp)
10002164:	dec00204 	addi	sp,sp,8
10002168:	f800283a 	ret

1000216c <UsbPrintMem>:


void UsbPrintMem()
{
1000216c:	defffc04 	addi	sp,sp,-16
10002170:	dfc00315 	stw	ra,12(sp)
10002174:	df000215 	stw	fp,8(sp)
10002178:	df000204 	addi	fp,sp,8
	int i, code;
	IO_write(HPI_ADDR,0x0500); //the start address
1000217c:	01000084 	movi	r4,2
10002180:	01414004 	movi	r5,1280
10002184:	00002480 	call	10000248 <IO_write>
	for (i = 0; i <= 200; i += 2)
10002188:	e03ffe15 	stw	zero,-8(fp)
1000218c:	00000e06 	br	100021c8 <UsbPrintMem+0x5c>
	{
		code = IO_read(HPI_DATA);
10002190:	0009883a 	mov	r4,zero
10002194:	00002b40 	call	100002b4 <IO_read>
10002198:	10bfffcc 	andi	r2,r2,65535
1000219c:	e0bfff15 	stw	r2,-4(fp)
		printf("\naddr %x = %04x\n", 0x0500+i, code);
100021a0:	e0bffe17 	ldw	r2,-8(fp)
100021a4:	10814004 	addi	r2,r2,1280
100021a8:	01040074 	movhi	r4,4097
100021ac:	2106c704 	addi	r4,r4,6940
100021b0:	100b883a 	mov	r5,r2
100021b4:	e1bfff17 	ldw	r6,-4(fp)
100021b8:	00022140 	call	10002214 <printf>

void UsbPrintMem()
{
	int i, code;
	IO_write(HPI_ADDR,0x0500); //the start address
	for (i = 0; i <= 200; i += 2)
100021bc:	e0bffe17 	ldw	r2,-8(fp)
100021c0:	10800084 	addi	r2,r2,2
100021c4:	e0bffe15 	stw	r2,-8(fp)
100021c8:	e0bffe17 	ldw	r2,-8(fp)
100021cc:	10803250 	cmplti	r2,r2,201
100021d0:	103fef1e 	bne	r2,zero,10002190 <__alt_data_end+0xf8002190>
	{
		code = IO_read(HPI_DATA);
		printf("\naddr %x = %04x\n", 0x0500+i, code);
	}
}
100021d4:	e037883a 	mov	sp,fp
100021d8:	dfc00117 	ldw	ra,4(sp)
100021dc:	df000017 	ldw	fp,0(sp)
100021e0:	dec00204 	addi	sp,sp,8
100021e4:	f800283a 	ret

100021e8 <_printf_r>:
100021e8:	defffd04 	addi	sp,sp,-12
100021ec:	dfc00015 	stw	ra,0(sp)
100021f0:	d9800115 	stw	r6,4(sp)
100021f4:	d9c00215 	stw	r7,8(sp)
100021f8:	280d883a 	mov	r6,r5
100021fc:	21400217 	ldw	r5,8(r4)
10002200:	d9c00104 	addi	r7,sp,4
10002204:	00023b40 	call	100023b4 <___vfprintf_internal_r>
10002208:	dfc00017 	ldw	ra,0(sp)
1000220c:	dec00304 	addi	sp,sp,12
10002210:	f800283a 	ret

10002214 <printf>:
10002214:	defffc04 	addi	sp,sp,-16
10002218:	dfc00015 	stw	ra,0(sp)
1000221c:	d9400115 	stw	r5,4(sp)
10002220:	d9800215 	stw	r6,8(sp)
10002224:	d9c00315 	stw	r7,12(sp)
10002228:	00840074 	movhi	r2,4097
1000222c:	108e3904 	addi	r2,r2,14564
10002230:	10800017 	ldw	r2,0(r2)
10002234:	200b883a 	mov	r5,r4
10002238:	d9800104 	addi	r6,sp,4
1000223c:	11000217 	ldw	r4,8(r2)
10002240:	00044b00 	call	100044b0 <__vfprintf_internal>
10002244:	dfc00017 	ldw	ra,0(sp)
10002248:	dec00404 	addi	sp,sp,16
1000224c:	f800283a 	ret

10002250 <_puts_r>:
10002250:	defff604 	addi	sp,sp,-40
10002254:	dc000715 	stw	r16,28(sp)
10002258:	2021883a 	mov	r16,r4
1000225c:	2809883a 	mov	r4,r5
10002260:	dc400815 	stw	r17,32(sp)
10002264:	dfc00915 	stw	ra,36(sp)
10002268:	2823883a 	mov	r17,r5
1000226c:	000231c0 	call	1000231c <strlen>
10002270:	00c40074 	movhi	r3,4097
10002274:	18ce3904 	addi	r3,r3,14564
10002278:	18c00017 	ldw	r3,0(r3)
1000227c:	11000044 	addi	r4,r2,1
10002280:	d8800115 	stw	r2,4(sp)
10002284:	18c00217 	ldw	r3,8(r3)
10002288:	01440074 	movhi	r5,4097
1000228c:	2946cc04 	addi	r5,r5,6960
10002290:	1880030b 	ldhu	r2,12(r3)
10002294:	d9400215 	stw	r5,8(sp)
10002298:	d9000615 	stw	r4,24(sp)
1000229c:	01400044 	movi	r5,1
100022a0:	01000084 	movi	r4,2
100022a4:	d9000515 	stw	r4,20(sp)
100022a8:	dc400015 	stw	r17,0(sp)
100022ac:	d9400315 	stw	r5,12(sp)
100022b0:	dec00415 	stw	sp,16(sp)
100022b4:	1108000c 	andi	r4,r2,8192
100022b8:	2000061e 	bne	r4,zero,100022d4 <_puts_r+0x84>
100022bc:	19401917 	ldw	r5,100(r3)
100022c0:	0137ffc4 	movi	r4,-8193
100022c4:	10880014 	ori	r2,r2,8192
100022c8:	2908703a 	and	r4,r5,r4
100022cc:	1880030d 	sth	r2,12(r3)
100022d0:	19001915 	stw	r4,100(r3)
100022d4:	81400217 	ldw	r5,8(r16)
100022d8:	8009883a 	mov	r4,r16
100022dc:	d9800404 	addi	r6,sp,16
100022e0:	00069740 	call	10006974 <__sfvwrite_r>
100022e4:	1000061e 	bne	r2,zero,10002300 <_puts_r+0xb0>
100022e8:	00800284 	movi	r2,10
100022ec:	dfc00917 	ldw	ra,36(sp)
100022f0:	dc400817 	ldw	r17,32(sp)
100022f4:	dc000717 	ldw	r16,28(sp)
100022f8:	dec00a04 	addi	sp,sp,40
100022fc:	f800283a 	ret
10002300:	00bfffc4 	movi	r2,-1
10002304:	003ff906 	br	100022ec <__alt_data_end+0xf80022ec>

10002308 <puts>:
10002308:	00840074 	movhi	r2,4097
1000230c:	108e3904 	addi	r2,r2,14564
10002310:	200b883a 	mov	r5,r4
10002314:	11000017 	ldw	r4,0(r2)
10002318:	00022501 	jmpi	10002250 <_puts_r>

1000231c <strlen>:
1000231c:	208000cc 	andi	r2,r4,3
10002320:	10002026 	beq	r2,zero,100023a4 <strlen+0x88>
10002324:	20800007 	ldb	r2,0(r4)
10002328:	10002026 	beq	r2,zero,100023ac <strlen+0x90>
1000232c:	2005883a 	mov	r2,r4
10002330:	00000206 	br	1000233c <strlen+0x20>
10002334:	10c00007 	ldb	r3,0(r2)
10002338:	18001826 	beq	r3,zero,1000239c <strlen+0x80>
1000233c:	10800044 	addi	r2,r2,1
10002340:	10c000cc 	andi	r3,r2,3
10002344:	183ffb1e 	bne	r3,zero,10002334 <__alt_data_end+0xf8002334>
10002348:	10c00017 	ldw	r3,0(r2)
1000234c:	01ffbff4 	movhi	r7,65279
10002350:	39ffbfc4 	addi	r7,r7,-257
10002354:	00ca303a 	nor	r5,zero,r3
10002358:	01a02074 	movhi	r6,32897
1000235c:	19c7883a 	add	r3,r3,r7
10002360:	31a02004 	addi	r6,r6,-32640
10002364:	1946703a 	and	r3,r3,r5
10002368:	1986703a 	and	r3,r3,r6
1000236c:	1800091e 	bne	r3,zero,10002394 <strlen+0x78>
10002370:	10800104 	addi	r2,r2,4
10002374:	10c00017 	ldw	r3,0(r2)
10002378:	19cb883a 	add	r5,r3,r7
1000237c:	00c6303a 	nor	r3,zero,r3
10002380:	28c6703a 	and	r3,r5,r3
10002384:	1986703a 	and	r3,r3,r6
10002388:	183ff926 	beq	r3,zero,10002370 <__alt_data_end+0xf8002370>
1000238c:	00000106 	br	10002394 <strlen+0x78>
10002390:	10800044 	addi	r2,r2,1
10002394:	10c00007 	ldb	r3,0(r2)
10002398:	183ffd1e 	bne	r3,zero,10002390 <__alt_data_end+0xf8002390>
1000239c:	1105c83a 	sub	r2,r2,r4
100023a0:	f800283a 	ret
100023a4:	2005883a 	mov	r2,r4
100023a8:	003fe706 	br	10002348 <__alt_data_end+0xf8002348>
100023ac:	0005883a 	mov	r2,zero
100023b0:	f800283a 	ret

100023b4 <___vfprintf_internal_r>:
100023b4:	defeb604 	addi	sp,sp,-1320
100023b8:	dfc14915 	stw	ra,1316(sp)
100023bc:	ddc14715 	stw	r23,1308(sp)
100023c0:	dd814615 	stw	r22,1304(sp)
100023c4:	202f883a 	mov	r23,r4
100023c8:	282d883a 	mov	r22,r5
100023cc:	d9812a15 	stw	r6,1192(sp)
100023d0:	d9c12d15 	stw	r7,1204(sp)
100023d4:	df014815 	stw	fp,1312(sp)
100023d8:	dd414515 	stw	r21,1300(sp)
100023dc:	dd014415 	stw	r20,1296(sp)
100023e0:	dcc14315 	stw	r19,1292(sp)
100023e4:	dc814215 	stw	r18,1288(sp)
100023e8:	dc414115 	stw	r17,1284(sp)
100023ec:	dc014015 	stw	r16,1280(sp)
100023f0:	00070340 	call	10007034 <_localeconv_r>
100023f4:	10800017 	ldw	r2,0(r2)
100023f8:	1009883a 	mov	r4,r2
100023fc:	d8813515 	stw	r2,1236(sp)
10002400:	000231c0 	call	1000231c <strlen>
10002404:	d8813815 	stw	r2,1248(sp)
10002408:	b8000226 	beq	r23,zero,10002414 <___vfprintf_internal_r+0x60>
1000240c:	b8800e17 	ldw	r2,56(r23)
10002410:	10010526 	beq	r2,zero,10002828 <___vfprintf_internal_r+0x474>
10002414:	b0c0030b 	ldhu	r3,12(r22)
10002418:	1908000c 	andi	r4,r3,8192
1000241c:	1805883a 	mov	r2,r3
10002420:	2000071e 	bne	r4,zero,10002440 <___vfprintf_internal_r+0x8c>
10002424:	b1001917 	ldw	r4,100(r22)
10002428:	18880014 	ori	r2,r3,8192
1000242c:	00f7ffc4 	movi	r3,-8193
10002430:	20c8703a 	and	r4,r4,r3
10002434:	b080030d 	sth	r2,12(r22)
10002438:	1007883a 	mov	r3,r2
1000243c:	b1001915 	stw	r4,100(r22)
10002440:	1100020c 	andi	r4,r2,8
10002444:	2000a826 	beq	r4,zero,100026e8 <___vfprintf_internal_r+0x334>
10002448:	b1000417 	ldw	r4,16(r22)
1000244c:	2000a626 	beq	r4,zero,100026e8 <___vfprintf_internal_r+0x334>
10002450:	1080068c 	andi	r2,r2,26
10002454:	01000284 	movi	r4,10
10002458:	1100ac26 	beq	r2,r4,1000270c <___vfprintf_internal_r+0x358>
1000245c:	d8c10e04 	addi	r3,sp,1080
10002460:	d9010dc4 	addi	r4,sp,1079
10002464:	d9400404 	addi	r5,sp,16
10002468:	05040074 	movhi	r20,4097
1000246c:	1905c83a 	sub	r2,r3,r4
10002470:	a506dd84 	addi	r20,r20,7030
10002474:	d8c12815 	stw	r3,1184(sp)
10002478:	d9012915 	stw	r4,1188(sp)
1000247c:	d9411e15 	stw	r5,1144(sp)
10002480:	d8012015 	stw	zero,1152(sp)
10002484:	d8011f15 	stw	zero,1148(sp)
10002488:	d8013315 	stw	zero,1228(sp)
1000248c:	d8013715 	stw	zero,1244(sp)
10002490:	d8013915 	stw	zero,1252(sp)
10002494:	d8013b15 	stw	zero,1260(sp)
10002498:	d8013a15 	stw	zero,1256(sp)
1000249c:	d8012f15 	stw	zero,1212(sp)
100024a0:	2811883a 	mov	r8,r5
100024a4:	d8813c15 	stw	r2,1264(sp)
100024a8:	d8c12a17 	ldw	r3,1192(sp)
100024ac:	18800007 	ldb	r2,0(r3)
100024b0:	10021326 	beq	r2,zero,10002d00 <___vfprintf_internal_r+0x94c>
100024b4:	00c00944 	movi	r3,37
100024b8:	dc012a17 	ldw	r16,1192(sp)
100024bc:	10c0021e 	bne	r2,r3,100024c8 <___vfprintf_internal_r+0x114>
100024c0:	00001606 	br	1000251c <___vfprintf_internal_r+0x168>
100024c4:	10c08526 	beq	r2,r3,100026dc <___vfprintf_internal_r+0x328>
100024c8:	84000044 	addi	r16,r16,1
100024cc:	80800007 	ldb	r2,0(r16)
100024d0:	103ffc1e 	bne	r2,zero,100024c4 <__alt_data_end+0xf80024c4>
100024d4:	d9012a17 	ldw	r4,1192(sp)
100024d8:	8123c83a 	sub	r17,r16,r4
100024dc:	88000f26 	beq	r17,zero,1000251c <___vfprintf_internal_r+0x168>
100024e0:	d8812a17 	ldw	r2,1192(sp)
100024e4:	d8c12017 	ldw	r3,1152(sp)
100024e8:	44400115 	stw	r17,4(r8)
100024ec:	40800015 	stw	r2,0(r8)
100024f0:	d8811f17 	ldw	r2,1148(sp)
100024f4:	1c47883a 	add	r3,r3,r17
100024f8:	d8c12015 	stw	r3,1152(sp)
100024fc:	10800044 	addi	r2,r2,1
10002500:	d8811f15 	stw	r2,1148(sp)
10002504:	00c001c4 	movi	r3,7
10002508:	1880b516 	blt	r3,r2,100027e0 <___vfprintf_internal_r+0x42c>
1000250c:	42000204 	addi	r8,r8,8
10002510:	d8c12f17 	ldw	r3,1212(sp)
10002514:	1c47883a 	add	r3,r3,r17
10002518:	d8c12f15 	stw	r3,1212(sp)
1000251c:	80800007 	ldb	r2,0(r16)
10002520:	1000b626 	beq	r2,zero,100027fc <___vfprintf_internal_r+0x448>
10002524:	80800044 	addi	r2,r16,1
10002528:	84000047 	ldb	r16,1(r16)
1000252c:	0027883a 	mov	r19,zero
10002530:	0039883a 	mov	fp,zero
10002534:	dcc12b05 	stb	r19,1196(sp)
10002538:	d8012785 	stb	zero,1182(sp)
1000253c:	027fffc4 	movi	r9,-1
10002540:	d8012e15 	stw	zero,1208(sp)
10002544:	04401604 	movi	r17,88
10002548:	04800244 	movi	r18,9
1000254c:	da012a15 	stw	r8,1192(sp)
10002550:	e027883a 	mov	r19,fp
10002554:	17000044 	addi	fp,r2,1
10002558:	80bff804 	addi	r2,r16,-32
1000255c:	88831236 	bltu	r17,r2,100031a8 <___vfprintf_internal_r+0xdf4>
10002560:	100490ba 	slli	r2,r2,2
10002564:	01040034 	movhi	r4,4096
10002568:	21095e04 	addi	r4,r4,9592
1000256c:	1105883a 	add	r2,r2,r4
10002570:	10800017 	ldw	r2,0(r2)
10002574:	1000683a 	jmp	r2
10002578:	100030c4 	addi	zero,r2,195
1000257c:	100031a8 	cmpgeui	zero,r2,198
10002580:	100031a8 	cmpgeui	zero,r2,198
10002584:	100030e0 	cmpeqi	zero,r2,195
10002588:	100031a8 	cmpgeui	zero,r2,198
1000258c:	100031a8 	cmpgeui	zero,r2,198
10002590:	100031a8 	cmpgeui	zero,r2,198
10002594:	100031a8 	cmpgeui	zero,r2,198
10002598:	100031a8 	cmpgeui	zero,r2,198
1000259c:	100031a8 	cmpgeui	zero,r2,198
100025a0:	100030f0 	cmpltui	zero,r2,195
100025a4:	10003118 	cmpnei	zero,r2,196
100025a8:	100031a8 	cmpgeui	zero,r2,198
100025ac:	10002834 	orhi	zero,r2,160
100025b0:	10002844 	addi	zero,r2,161
100025b4:	100031a8 	cmpgeui	zero,r2,198
100025b8:	10002894 	ori	zero,r2,162
100025bc:	100028a4 	muli	zero,r2,162
100025c0:	100028a4 	muli	zero,r2,162
100025c4:	100028a4 	muli	zero,r2,162
100025c8:	100028a4 	muli	zero,r2,162
100025cc:	100028a4 	muli	zero,r2,162
100025d0:	100028a4 	muli	zero,r2,162
100025d4:	100028a4 	muli	zero,r2,162
100025d8:	100028a4 	muli	zero,r2,162
100025dc:	100028a4 	muli	zero,r2,162
100025e0:	100031a8 	cmpgeui	zero,r2,198
100025e4:	100031a8 	cmpgeui	zero,r2,198
100025e8:	100031a8 	cmpgeui	zero,r2,198
100025ec:	100031a8 	cmpgeui	zero,r2,198
100025f0:	100031a8 	cmpgeui	zero,r2,198
100025f4:	100031a8 	cmpgeui	zero,r2,198
100025f8:	100031a8 	cmpgeui	zero,r2,198
100025fc:	100031a8 	cmpgeui	zero,r2,198
10002600:	100031a8 	cmpgeui	zero,r2,198
10002604:	100031a8 	cmpgeui	zero,r2,198
10002608:	100028e8 	cmpgeui	zero,r2,163
1000260c:	10002d08 	cmpgei	zero,r2,180
10002610:	100031a8 	cmpgeui	zero,r2,198
10002614:	10002d08 	cmpgei	zero,r2,180
10002618:	100031a8 	cmpgeui	zero,r2,198
1000261c:	100031a8 	cmpgeui	zero,r2,198
10002620:	100031a8 	cmpgeui	zero,r2,198
10002624:	100031a8 	cmpgeui	zero,r2,198
10002628:	10002db0 	cmpltui	zero,r2,182
1000262c:	100031a8 	cmpgeui	zero,r2,198
10002630:	100031a8 	cmpgeui	zero,r2,198
10002634:	10002dc0 	call	110002dc <_gp+0xfe4a00>
10002638:	100031a8 	cmpgeui	zero,r2,198
1000263c:	100031a8 	cmpgeui	zero,r2,198
10002640:	100031a8 	cmpgeui	zero,r2,198
10002644:	100031a8 	cmpgeui	zero,r2,198
10002648:	100031a8 	cmpgeui	zero,r2,198
1000264c:	10002e04 	addi	zero,r2,184
10002650:	100031a8 	cmpgeui	zero,r2,198
10002654:	100031a8 	cmpgeui	zero,r2,198
10002658:	10002e3c 	xorhi	zero,r2,184
1000265c:	100031a8 	cmpgeui	zero,r2,198
10002660:	100031a8 	cmpgeui	zero,r2,198
10002664:	100031a8 	cmpgeui	zero,r2,198
10002668:	100031a8 	cmpgeui	zero,r2,198
1000266c:	100031a8 	cmpgeui	zero,r2,198
10002670:	100031a8 	cmpgeui	zero,r2,198
10002674:	100031a8 	cmpgeui	zero,r2,198
10002678:	100031a8 	cmpgeui	zero,r2,198
1000267c:	100031a8 	cmpgeui	zero,r2,198
10002680:	100031a8 	cmpgeui	zero,r2,198
10002684:	10003078 	rdprs	zero,r2,193
10002688:	10003024 	muli	zero,r2,192
1000268c:	10002d08 	cmpgei	zero,r2,180
10002690:	10002d08 	cmpgei	zero,r2,180
10002694:	10002d08 	cmpgei	zero,r2,180
10002698:	10003068 	cmpgeui	zero,r2,193
1000269c:	10003024 	muli	zero,r2,192
100026a0:	100031a8 	cmpgeui	zero,r2,198
100026a4:	100031a8 	cmpgeui	zero,r2,198
100026a8:	10002f40 	call	110002f4 <_gp+0xfe4a18>
100026ac:	100031a8 	cmpgeui	zero,r2,198
100026b0:	10002f58 	cmpnei	zero,r2,189
100026b4:	10002f98 	cmpnei	zero,r2,190
100026b8:	10002fd8 	cmpnei	zero,r2,191
100026bc:	10002ea4 	muli	zero,r2,186
100026c0:	100031a8 	cmpgeui	zero,r2,198
100026c4:	1000312c 	andhi	zero,r2,196
100026c8:	100031a8 	cmpgeui	zero,r2,198
100026cc:	10002eb4 	orhi	zero,r2,186
100026d0:	100031a8 	cmpgeui	zero,r2,198
100026d4:	100031a8 	cmpgeui	zero,r2,198
100026d8:	10002ef4 	orhi	zero,r2,187
100026dc:	d9412a17 	ldw	r5,1192(sp)
100026e0:	8163c83a 	sub	r17,r16,r5
100026e4:	003f7d06 	br	100024dc <__alt_data_end+0xf80024dc>
100026e8:	b809883a 	mov	r4,r23
100026ec:	b00b883a 	mov	r5,r22
100026f0:	00044d40 	call	100044d4 <__swsetup_r>
100026f4:	10002d1e 	bne	r2,zero,100027ac <___vfprintf_internal_r+0x3f8>
100026f8:	b0c0030b 	ldhu	r3,12(r22)
100026fc:	01000284 	movi	r4,10
10002700:	1805883a 	mov	r2,r3
10002704:	1080068c 	andi	r2,r2,26
10002708:	113f541e 	bne	r2,r4,1000245c <__alt_data_end+0xf800245c>
1000270c:	b080038b 	ldhu	r2,14(r22)
10002710:	113fffcc 	andi	r4,r2,65535
10002714:	2120001c 	xori	r4,r4,32768
10002718:	21200004 	addi	r4,r4,-32768
1000271c:	203f4f16 	blt	r4,zero,1000245c <__alt_data_end+0xf800245c>
10002720:	b2c01917 	ldw	r11,100(r22)
10002724:	b2800717 	ldw	r10,28(r22)
10002728:	b2400917 	ldw	r9,36(r22)
1000272c:	d9812a17 	ldw	r6,1192(sp)
10002730:	d9c12d17 	ldw	r7,1204(sp)
10002734:	02010004 	movi	r8,1024
10002738:	18ffff4c 	andi	r3,r3,65533
1000273c:	d881078d 	sth	r2,1054(sp)
10002740:	b809883a 	mov	r4,r23
10002744:	d8800404 	addi	r2,sp,16
10002748:	d9410404 	addi	r5,sp,1040
1000274c:	d8c1070d 	sth	r3,1052(sp)
10002750:	dac11d15 	stw	r11,1140(sp)
10002754:	da810b15 	stw	r10,1068(sp)
10002758:	da410d15 	stw	r9,1076(sp)
1000275c:	d8810415 	stw	r2,1040(sp)
10002760:	d8810815 	stw	r2,1056(sp)
10002764:	da010615 	stw	r8,1048(sp)
10002768:	da010915 	stw	r8,1060(sp)
1000276c:	d8010a15 	stw	zero,1064(sp)
10002770:	00023b40 	call	100023b4 <___vfprintf_internal_r>
10002774:	1021883a 	mov	r16,r2
10002778:	10000416 	blt	r2,zero,1000278c <___vfprintf_internal_r+0x3d8>
1000277c:	b809883a 	mov	r4,r23
10002780:	d9410404 	addi	r5,sp,1040
10002784:	0005f540 	call	10005f54 <_fflush_r>
10002788:	1007301e 	bne	r2,zero,1000444c <___vfprintf_internal_r+0x2098>
1000278c:	d881070b 	ldhu	r2,1052(sp)
10002790:	1080100c 	andi	r2,r2,64
10002794:	10000326 	beq	r2,zero,100027a4 <___vfprintf_internal_r+0x3f0>
10002798:	b080030b 	ldhu	r2,12(r22)
1000279c:	10801014 	ori	r2,r2,64
100027a0:	b080030d 	sth	r2,12(r22)
100027a4:	8005883a 	mov	r2,r16
100027a8:	00000106 	br	100027b0 <___vfprintf_internal_r+0x3fc>
100027ac:	00bfffc4 	movi	r2,-1
100027b0:	dfc14917 	ldw	ra,1316(sp)
100027b4:	df014817 	ldw	fp,1312(sp)
100027b8:	ddc14717 	ldw	r23,1308(sp)
100027bc:	dd814617 	ldw	r22,1304(sp)
100027c0:	dd414517 	ldw	r21,1300(sp)
100027c4:	dd014417 	ldw	r20,1296(sp)
100027c8:	dcc14317 	ldw	r19,1292(sp)
100027cc:	dc814217 	ldw	r18,1288(sp)
100027d0:	dc414117 	ldw	r17,1284(sp)
100027d4:	dc014017 	ldw	r16,1280(sp)
100027d8:	dec14a04 	addi	sp,sp,1320
100027dc:	f800283a 	ret
100027e0:	b809883a 	mov	r4,r23
100027e4:	b00b883a 	mov	r5,r22
100027e8:	d9811e04 	addi	r6,sp,1144
100027ec:	00097f40 	call	100097f4 <__sprint_r>
100027f0:	1000081e 	bne	r2,zero,10002814 <___vfprintf_internal_r+0x460>
100027f4:	da000404 	addi	r8,sp,16
100027f8:	003f4506 	br	10002510 <__alt_data_end+0xf8002510>
100027fc:	d8812017 	ldw	r2,1152(sp)
10002800:	10000426 	beq	r2,zero,10002814 <___vfprintf_internal_r+0x460>
10002804:	b809883a 	mov	r4,r23
10002808:	b00b883a 	mov	r5,r22
1000280c:	d9811e04 	addi	r6,sp,1144
10002810:	00097f40 	call	100097f4 <__sprint_r>
10002814:	b080030b 	ldhu	r2,12(r22)
10002818:	1080100c 	andi	r2,r2,64
1000281c:	103fe31e 	bne	r2,zero,100027ac <__alt_data_end+0xf80027ac>
10002820:	d8812f17 	ldw	r2,1212(sp)
10002824:	003fe206 	br	100027b0 <__alt_data_end+0xf80027b0>
10002828:	b809883a 	mov	r4,r23
1000282c:	00065100 	call	10006510 <__sinit>
10002830:	003ef806 	br	10002414 <__alt_data_end+0xf8002414>
10002834:	e005883a 	mov	r2,fp
10002838:	9cc00114 	ori	r19,r19,4
1000283c:	e4000007 	ldb	r16,0(fp)
10002840:	003f4406 	br	10002554 <__alt_data_end+0xf8002554>
10002844:	e4000007 	ldb	r16,0(fp)
10002848:	01000a84 	movi	r4,42
1000284c:	e0800044 	addi	r2,fp,1
10002850:	8106f626 	beq	r16,r4,1000442c <___vfprintf_internal_r+0x2078>
10002854:	857ff404 	addi	r21,r16,-48
10002858:	1039883a 	mov	fp,r2
1000285c:	0013883a 	mov	r9,zero
10002860:	957f3d36 	bltu	r18,r21,10002558 <__alt_data_end+0xf8002558>
10002864:	0009883a 	mov	r4,zero
10002868:	01400284 	movi	r5,10
1000286c:	000c3280 	call	1000c328 <__mulsi3>
10002870:	e4000007 	ldb	r16,0(fp)
10002874:	a889883a 	add	r4,r21,r2
10002878:	e7000044 	addi	fp,fp,1
1000287c:	857ff404 	addi	r21,r16,-48
10002880:	957ff92e 	bgeu	r18,r21,10002868 <__alt_data_end+0xf8002868>
10002884:	2013883a 	mov	r9,r4
10002888:	203f330e 	bge	r4,zero,10002558 <__alt_data_end+0xf8002558>
1000288c:	027fffc4 	movi	r9,-1
10002890:	003f3106 	br	10002558 <__alt_data_end+0xf8002558>
10002894:	9cc02014 	ori	r19,r19,128
10002898:	e005883a 	mov	r2,fp
1000289c:	e4000007 	ldb	r16,0(fp)
100028a0:	003f2c06 	br	10002554 <__alt_data_end+0xf8002554>
100028a4:	857ff404 	addi	r21,r16,-48
100028a8:	d8012e15 	stw	zero,1208(sp)
100028ac:	e021883a 	mov	r16,fp
100028b0:	0009883a 	mov	r4,zero
100028b4:	da412c15 	stw	r9,1200(sp)
100028b8:	01400284 	movi	r5,10
100028bc:	000c3280 	call	1000c328 <__mulsi3>
100028c0:	81400007 	ldb	r5,0(r16)
100028c4:	1549883a 	add	r4,r2,r21
100028c8:	e7000044 	addi	fp,fp,1
100028cc:	2d7ff404 	addi	r21,r5,-48
100028d0:	e021883a 	mov	r16,fp
100028d4:	957ff82e 	bgeu	r18,r21,100028b8 <__alt_data_end+0xf80028b8>
100028d8:	2821883a 	mov	r16,r5
100028dc:	d9012e15 	stw	r4,1208(sp)
100028e0:	da412c17 	ldw	r9,1200(sp)
100028e4:	003f1c06 	br	10002558 <__alt_data_end+0xf8002558>
100028e8:	da012a17 	ldw	r8,1192(sp)
100028ec:	df012a15 	stw	fp,1192(sp)
100028f0:	9839883a 	mov	fp,r19
100028f4:	dcc12b03 	ldbu	r19,1196(sp)
100028f8:	e7000414 	ori	fp,fp,16
100028fc:	e080080c 	andi	r2,fp,32
10002900:	dcc12785 	stb	r19,1182(sp)
10002904:	d8c12d17 	ldw	r3,1204(sp)
10002908:	1001ce26 	beq	r2,zero,10003044 <___vfprintf_internal_r+0xc90>
1000290c:	d9012d17 	ldw	r4,1204(sp)
10002910:	18800117 	ldw	r2,4(r3)
10002914:	1c800017 	ldw	r18,0(r3)
10002918:	21000204 	addi	r4,r4,8
1000291c:	d9012d15 	stw	r4,1204(sp)
10002920:	102b883a 	mov	r21,r2
10002924:	10044916 	blt	r2,zero,10003a4c <___vfprintf_internal_r+0x1698>
10002928:	dcc12783 	ldbu	r19,1182(sp)
1000292c:	da413215 	stw	r9,1224(sp)
10002930:	00800044 	movi	r2,1
10002934:	9546b03a 	or	r3,r18,r21
10002938:	48000216 	blt	r9,zero,10002944 <___vfprintf_internal_r+0x590>
1000293c:	013fdfc4 	movi	r4,-129
10002940:	e138703a 	and	fp,fp,r4
10002944:	1802251e 	bne	r3,zero,100031dc <___vfprintf_internal_r+0xe28>
10002948:	48031726 	beq	r9,zero,100035a8 <___vfprintf_internal_r+0x11f4>
1000294c:	10803fcc 	andi	r2,r2,255
10002950:	00c00044 	movi	r3,1
10002954:	10c24526 	beq	r2,r3,1000326c <___vfprintf_internal_r+0xeb8>
10002958:	00c00084 	movi	r3,2
1000295c:	10c33426 	beq	r2,r3,10003630 <___vfprintf_internal_r+0x127c>
10002960:	d8c10e04 	addi	r3,sp,1080
10002964:	9008d0fa 	srli	r4,r18,3
10002968:	a80a977a 	slli	r5,r21,29
1000296c:	a82ad0fa 	srli	r21,r21,3
10002970:	948001cc 	andi	r18,r18,7
10002974:	90800c04 	addi	r2,r18,48
10002978:	18ffffc4 	addi	r3,r3,-1
1000297c:	2924b03a 	or	r18,r5,r4
10002980:	18800005 	stb	r2,0(r3)
10002984:	9548b03a 	or	r4,r18,r21
10002988:	203ff61e 	bne	r4,zero,10002964 <__alt_data_end+0xf8002964>
1000298c:	e100004c 	andi	r4,fp,1
10002990:	d8c13115 	stw	r3,1220(sp)
10002994:	20039a1e 	bne	r4,zero,10003800 <___vfprintf_internal_r+0x144c>
10002998:	d8812817 	ldw	r2,1184(sp)
1000299c:	10e3c83a 	sub	r17,r2,r3
100029a0:	8805883a 	mov	r2,r17
100029a4:	8a40010e 	bge	r17,r9,100029ac <___vfprintf_internal_r+0x5f8>
100029a8:	4805883a 	mov	r2,r9
100029ac:	d8812b15 	stw	r2,1196(sp)
100029b0:	d8013415 	stw	zero,1232(sp)
100029b4:	98803fcc 	andi	r2,r19,255
100029b8:	1080201c 	xori	r2,r2,128
100029bc:	10bfe004 	addi	r2,r2,-128
100029c0:	10000326 	beq	r2,zero,100029d0 <___vfprintf_internal_r+0x61c>
100029c4:	d8c12b17 	ldw	r3,1196(sp)
100029c8:	18c00044 	addi	r3,r3,1
100029cc:	d8c12b15 	stw	r3,1196(sp)
100029d0:	e0c0008c 	andi	r3,fp,2
100029d4:	d8c12c15 	stw	r3,1200(sp)
100029d8:	18000326 	beq	r3,zero,100029e8 <___vfprintf_internal_r+0x634>
100029dc:	d8c12b17 	ldw	r3,1196(sp)
100029e0:	18c00084 	addi	r3,r3,2
100029e4:	d8c12b15 	stw	r3,1196(sp)
100029e8:	e0c0210c 	andi	r3,fp,132
100029ec:	d8c13015 	stw	r3,1216(sp)
100029f0:	1801f81e 	bne	r3,zero,100031d4 <___vfprintf_internal_r+0xe20>
100029f4:	d9012e17 	ldw	r4,1208(sp)
100029f8:	d8c12b17 	ldw	r3,1196(sp)
100029fc:	20ebc83a 	sub	r21,r4,r3
10002a00:	0541f40e 	bge	zero,r21,100031d4 <___vfprintf_internal_r+0xe20>
10002a04:	02400404 	movi	r9,16
10002a08:	d8c12017 	ldw	r3,1152(sp)
10002a0c:	d8811f17 	ldw	r2,1148(sp)
10002a10:	4d45750e 	bge	r9,r21,10003fe8 <___vfprintf_internal_r+0x1c34>
10002a14:	01440074 	movhi	r5,4097
10002a18:	2946e184 	addi	r5,r5,7046
10002a1c:	d9413615 	stw	r5,1240(sp)
10002a20:	4827883a 	mov	r19,r9
10002a24:	048001c4 	movi	r18,7
10002a28:	00000306 	br	10002a38 <___vfprintf_internal_r+0x684>
10002a2c:	ad7ffc04 	addi	r21,r21,-16
10002a30:	42000204 	addi	r8,r8,8
10002a34:	9d40130e 	bge	r19,r21,10002a84 <___vfprintf_internal_r+0x6d0>
10002a38:	01040074 	movhi	r4,4097
10002a3c:	18c00404 	addi	r3,r3,16
10002a40:	10800044 	addi	r2,r2,1
10002a44:	2106e184 	addi	r4,r4,7046
10002a48:	41000015 	stw	r4,0(r8)
10002a4c:	44c00115 	stw	r19,4(r8)
10002a50:	d8c12015 	stw	r3,1152(sp)
10002a54:	d8811f15 	stw	r2,1148(sp)
10002a58:	90bff40e 	bge	r18,r2,10002a2c <__alt_data_end+0xf8002a2c>
10002a5c:	b809883a 	mov	r4,r23
10002a60:	b00b883a 	mov	r5,r22
10002a64:	d9811e04 	addi	r6,sp,1144
10002a68:	00097f40 	call	100097f4 <__sprint_r>
10002a6c:	103f691e 	bne	r2,zero,10002814 <__alt_data_end+0xf8002814>
10002a70:	ad7ffc04 	addi	r21,r21,-16
10002a74:	d8c12017 	ldw	r3,1152(sp)
10002a78:	d8811f17 	ldw	r2,1148(sp)
10002a7c:	da000404 	addi	r8,sp,16
10002a80:	9d7fed16 	blt	r19,r21,10002a38 <__alt_data_end+0xf8002a38>
10002a84:	d9413617 	ldw	r5,1240(sp)
10002a88:	a8c7883a 	add	r3,r21,r3
10002a8c:	10800044 	addi	r2,r2,1
10002a90:	41400015 	stw	r5,0(r8)
10002a94:	45400115 	stw	r21,4(r8)
10002a98:	d8c12015 	stw	r3,1152(sp)
10002a9c:	d8811f15 	stw	r2,1148(sp)
10002aa0:	010001c4 	movi	r4,7
10002aa4:	20832b16 	blt	r4,r2,10003754 <___vfprintf_internal_r+0x13a0>
10002aa8:	d8812787 	ldb	r2,1182(sp)
10002aac:	42000204 	addi	r8,r8,8
10002ab0:	10000c26 	beq	r2,zero,10002ae4 <___vfprintf_internal_r+0x730>
10002ab4:	d8811f17 	ldw	r2,1148(sp)
10002ab8:	d9012784 	addi	r4,sp,1182
10002abc:	18c00044 	addi	r3,r3,1
10002ac0:	10800044 	addi	r2,r2,1
10002ac4:	41000015 	stw	r4,0(r8)
10002ac8:	01000044 	movi	r4,1
10002acc:	41000115 	stw	r4,4(r8)
10002ad0:	d8c12015 	stw	r3,1152(sp)
10002ad4:	d8811f15 	stw	r2,1148(sp)
10002ad8:	010001c4 	movi	r4,7
10002adc:	2082c416 	blt	r4,r2,100035f0 <___vfprintf_internal_r+0x123c>
10002ae0:	42000204 	addi	r8,r8,8
10002ae4:	d8812c17 	ldw	r2,1200(sp)
10002ae8:	10000c26 	beq	r2,zero,10002b1c <___vfprintf_internal_r+0x768>
10002aec:	d8811f17 	ldw	r2,1148(sp)
10002af0:	d9012704 	addi	r4,sp,1180
10002af4:	18c00084 	addi	r3,r3,2
10002af8:	10800044 	addi	r2,r2,1
10002afc:	41000015 	stw	r4,0(r8)
10002b00:	01000084 	movi	r4,2
10002b04:	41000115 	stw	r4,4(r8)
10002b08:	d8c12015 	stw	r3,1152(sp)
10002b0c:	d8811f15 	stw	r2,1148(sp)
10002b10:	010001c4 	movi	r4,7
10002b14:	2082be16 	blt	r4,r2,10003610 <___vfprintf_internal_r+0x125c>
10002b18:	42000204 	addi	r8,r8,8
10002b1c:	d9013017 	ldw	r4,1216(sp)
10002b20:	00802004 	movi	r2,128
10002b24:	20822026 	beq	r4,r2,100033a8 <___vfprintf_internal_r+0xff4>
10002b28:	d9413217 	ldw	r5,1224(sp)
10002b2c:	2c67c83a 	sub	r19,r5,r17
10002b30:	04c0260e 	bge	zero,r19,10002bcc <___vfprintf_internal_r+0x818>
10002b34:	05400404 	movi	r21,16
10002b38:	d8811f17 	ldw	r2,1148(sp)
10002b3c:	acc4720e 	bge	r21,r19,10003d08 <___vfprintf_internal_r+0x1954>
10002b40:	01440074 	movhi	r5,4097
10002b44:	2946dd84 	addi	r5,r5,7030
10002b48:	d9412c15 	stw	r5,1200(sp)
10002b4c:	048001c4 	movi	r18,7
10002b50:	00000306 	br	10002b60 <___vfprintf_internal_r+0x7ac>
10002b54:	9cfffc04 	addi	r19,r19,-16
10002b58:	42000204 	addi	r8,r8,8
10002b5c:	acc0110e 	bge	r21,r19,10002ba4 <___vfprintf_internal_r+0x7f0>
10002b60:	18c00404 	addi	r3,r3,16
10002b64:	10800044 	addi	r2,r2,1
10002b68:	45000015 	stw	r20,0(r8)
10002b6c:	45400115 	stw	r21,4(r8)
10002b70:	d8c12015 	stw	r3,1152(sp)
10002b74:	d8811f15 	stw	r2,1148(sp)
10002b78:	90bff60e 	bge	r18,r2,10002b54 <__alt_data_end+0xf8002b54>
10002b7c:	b809883a 	mov	r4,r23
10002b80:	b00b883a 	mov	r5,r22
10002b84:	d9811e04 	addi	r6,sp,1144
10002b88:	00097f40 	call	100097f4 <__sprint_r>
10002b8c:	103f211e 	bne	r2,zero,10002814 <__alt_data_end+0xf8002814>
10002b90:	9cfffc04 	addi	r19,r19,-16
10002b94:	d8c12017 	ldw	r3,1152(sp)
10002b98:	d8811f17 	ldw	r2,1148(sp)
10002b9c:	da000404 	addi	r8,sp,16
10002ba0:	acffef16 	blt	r21,r19,10002b60 <__alt_data_end+0xf8002b60>
10002ba4:	d9012c17 	ldw	r4,1200(sp)
10002ba8:	1cc7883a 	add	r3,r3,r19
10002bac:	10800044 	addi	r2,r2,1
10002bb0:	41000015 	stw	r4,0(r8)
10002bb4:	44c00115 	stw	r19,4(r8)
10002bb8:	d8c12015 	stw	r3,1152(sp)
10002bbc:	d8811f15 	stw	r2,1148(sp)
10002bc0:	010001c4 	movi	r4,7
10002bc4:	20828216 	blt	r4,r2,100035d0 <___vfprintf_internal_r+0x121c>
10002bc8:	42000204 	addi	r8,r8,8
10002bcc:	e080400c 	andi	r2,fp,256
10002bd0:	1001ac1e 	bne	r2,zero,10003284 <___vfprintf_internal_r+0xed0>
10002bd4:	d8811f17 	ldw	r2,1148(sp)
10002bd8:	d9413117 	ldw	r5,1220(sp)
10002bdc:	1c47883a 	add	r3,r3,r17
10002be0:	10800044 	addi	r2,r2,1
10002be4:	41400015 	stw	r5,0(r8)
10002be8:	44400115 	stw	r17,4(r8)
10002bec:	d8c12015 	stw	r3,1152(sp)
10002bf0:	d8811f15 	stw	r2,1148(sp)
10002bf4:	010001c4 	movi	r4,7
10002bf8:	20825d16 	blt	r4,r2,10003570 <___vfprintf_internal_r+0x11bc>
10002bfc:	42000204 	addi	r8,r8,8
10002c00:	e080010c 	andi	r2,fp,4
10002c04:	10003126 	beq	r2,zero,10002ccc <___vfprintf_internal_r+0x918>
10002c08:	d8812e17 	ldw	r2,1208(sp)
10002c0c:	d9012b17 	ldw	r4,1196(sp)
10002c10:	1121c83a 	sub	r16,r2,r4
10002c14:	04002d0e 	bge	zero,r16,10002ccc <___vfprintf_internal_r+0x918>
10002c18:	04400404 	movi	r17,16
10002c1c:	d8811f17 	ldw	r2,1148(sp)
10002c20:	8c05340e 	bge	r17,r16,100040f4 <___vfprintf_internal_r+0x1d40>
10002c24:	01040074 	movhi	r4,4097
10002c28:	2106e184 	addi	r4,r4,7046
10002c2c:	d9013615 	stw	r4,1240(sp)
10002c30:	048001c4 	movi	r18,7
10002c34:	00000306 	br	10002c44 <___vfprintf_internal_r+0x890>
10002c38:	843ffc04 	addi	r16,r16,-16
10002c3c:	42000204 	addi	r8,r8,8
10002c40:	8c00130e 	bge	r17,r16,10002c90 <___vfprintf_internal_r+0x8dc>
10002c44:	01440074 	movhi	r5,4097
10002c48:	18c00404 	addi	r3,r3,16
10002c4c:	10800044 	addi	r2,r2,1
10002c50:	2946e184 	addi	r5,r5,7046
10002c54:	41400015 	stw	r5,0(r8)
10002c58:	44400115 	stw	r17,4(r8)
10002c5c:	d8c12015 	stw	r3,1152(sp)
10002c60:	d8811f15 	stw	r2,1148(sp)
10002c64:	90bff40e 	bge	r18,r2,10002c38 <__alt_data_end+0xf8002c38>
10002c68:	b809883a 	mov	r4,r23
10002c6c:	b00b883a 	mov	r5,r22
10002c70:	d9811e04 	addi	r6,sp,1144
10002c74:	00097f40 	call	100097f4 <__sprint_r>
10002c78:	103ee61e 	bne	r2,zero,10002814 <__alt_data_end+0xf8002814>
10002c7c:	843ffc04 	addi	r16,r16,-16
10002c80:	d8c12017 	ldw	r3,1152(sp)
10002c84:	d8811f17 	ldw	r2,1148(sp)
10002c88:	da000404 	addi	r8,sp,16
10002c8c:	8c3fed16 	blt	r17,r16,10002c44 <__alt_data_end+0xf8002c44>
10002c90:	d9013617 	ldw	r4,1240(sp)
10002c94:	1c07883a 	add	r3,r3,r16
10002c98:	10800044 	addi	r2,r2,1
10002c9c:	41000015 	stw	r4,0(r8)
10002ca0:	44000115 	stw	r16,4(r8)
10002ca4:	d8c12015 	stw	r3,1152(sp)
10002ca8:	d8811f15 	stw	r2,1148(sp)
10002cac:	010001c4 	movi	r4,7
10002cb0:	2080060e 	bge	r4,r2,10002ccc <___vfprintf_internal_r+0x918>
10002cb4:	b809883a 	mov	r4,r23
10002cb8:	b00b883a 	mov	r5,r22
10002cbc:	d9811e04 	addi	r6,sp,1144
10002cc0:	00097f40 	call	100097f4 <__sprint_r>
10002cc4:	103ed31e 	bne	r2,zero,10002814 <__alt_data_end+0xf8002814>
10002cc8:	d8c12017 	ldw	r3,1152(sp)
10002ccc:	df012b17 	ldw	fp,1196(sp)
10002cd0:	d9412e17 	ldw	r5,1208(sp)
10002cd4:	e140010e 	bge	fp,r5,10002cdc <___vfprintf_internal_r+0x928>
10002cd8:	2839883a 	mov	fp,r5
10002cdc:	d8812f17 	ldw	r2,1212(sp)
10002ce0:	1705883a 	add	r2,r2,fp
10002ce4:	d8812f15 	stw	r2,1212(sp)
10002ce8:	1802291e 	bne	r3,zero,10003590 <___vfprintf_internal_r+0x11dc>
10002cec:	d8c12a17 	ldw	r3,1192(sp)
10002cf0:	d8011f15 	stw	zero,1148(sp)
10002cf4:	da000404 	addi	r8,sp,16
10002cf8:	18800007 	ldb	r2,0(r3)
10002cfc:	103ded1e 	bne	r2,zero,100024b4 <__alt_data_end+0xf80024b4>
10002d00:	dc012a17 	ldw	r16,1192(sp)
10002d04:	003e0506 	br	1000251c <__alt_data_end+0xf800251c>
10002d08:	d9012d17 	ldw	r4,1204(sp)
10002d0c:	d9412d17 	ldw	r5,1204(sp)
10002d10:	da012a17 	ldw	r8,1192(sp)
10002d14:	21000017 	ldw	r4,0(r4)
10002d18:	29400117 	ldw	r5,4(r5)
10002d1c:	df012a15 	stw	fp,1192(sp)
10002d20:	9839883a 	mov	fp,r19
10002d24:	dcc12b03 	ldbu	r19,1196(sp)
10002d28:	d9013715 	stw	r4,1244(sp)
10002d2c:	d9413915 	stw	r5,1252(sp)
10002d30:	da013f15 	stw	r8,1276(sp)
10002d34:	da413e15 	stw	r9,1272(sp)
10002d38:	dcc12785 	stb	r19,1182(sp)
10002d3c:	00094500 	call	10009450 <__fpclassifyd>
10002d40:	d8c12d17 	ldw	r3,1204(sp)
10002d44:	04400044 	movi	r17,1
10002d48:	da013f17 	ldw	r8,1276(sp)
10002d4c:	1c800204 	addi	r18,r3,8
10002d50:	da413e17 	ldw	r9,1272(sp)
10002d54:	d9013717 	ldw	r4,1244(sp)
10002d58:	d9413917 	ldw	r5,1252(sp)
10002d5c:	1443451e 	bne	r2,r17,10003a74 <___vfprintf_internal_r+0x16c0>
10002d60:	000d883a 	mov	r6,zero
10002d64:	000f883a 	mov	r7,zero
10002d68:	000d6d00 	call	1000d6d0 <__ledf2>
10002d6c:	da013f17 	ldw	r8,1276(sp)
10002d70:	1004fe16 	blt	r2,zero,1000416c <___vfprintf_internal_r+0x1db8>
10002d74:	dcc12783 	ldbu	r19,1182(sp)
10002d78:	008011c4 	movi	r2,71
10002d7c:	14045d0e 	bge	r2,r16,10003ef4 <___vfprintf_internal_r+0x1b40>
10002d80:	01440074 	movhi	r5,4097
10002d84:	2946ce04 	addi	r5,r5,6968
10002d88:	d9413115 	stw	r5,1220(sp)
10002d8c:	00c000c4 	movi	r3,3
10002d90:	00bfdfc4 	movi	r2,-129
10002d94:	d8c12b15 	stw	r3,1196(sp)
10002d98:	e0b8703a 	and	fp,fp,r2
10002d9c:	dc812d15 	stw	r18,1204(sp)
10002da0:	1823883a 	mov	r17,r3
10002da4:	d8013215 	stw	zero,1224(sp)
10002da8:	d8013415 	stw	zero,1232(sp)
10002dac:	003f0106 	br	100029b4 <__alt_data_end+0xf80029b4>
10002db0:	9cc00214 	ori	r19,r19,8
10002db4:	e005883a 	mov	r2,fp
10002db8:	e4000007 	ldb	r16,0(fp)
10002dbc:	003de506 	br	10002554 <__alt_data_end+0xf8002554>
10002dc0:	da012a17 	ldw	r8,1192(sp)
10002dc4:	df012a15 	stw	fp,1192(sp)
10002dc8:	9f000414 	ori	fp,r19,16
10002dcc:	e0c0080c 	andi	r3,fp,32
10002dd0:	d8812d17 	ldw	r2,1204(sp)
10002dd4:	18007626 	beq	r3,zero,10002fb0 <___vfprintf_internal_r+0xbfc>
10002dd8:	d9412d17 	ldw	r5,1204(sp)
10002ddc:	14800017 	ldw	r18,0(r2)
10002de0:	15400117 	ldw	r21,4(r2)
10002de4:	29400204 	addi	r5,r5,8
10002de8:	d9412d15 	stw	r5,1204(sp)
10002dec:	0005883a 	mov	r2,zero
10002df0:	9546b03a 	or	r3,r18,r21
10002df4:	d8012785 	stb	zero,1182(sp)
10002df8:	da413215 	stw	r9,1224(sp)
10002dfc:	0027883a 	mov	r19,zero
10002e00:	003ecd06 	br	10002938 <__alt_data_end+0xf8002938>
10002e04:	da012a17 	ldw	r8,1192(sp)
10002e08:	df012a15 	stw	fp,1192(sp)
10002e0c:	9f000414 	ori	fp,r19,16
10002e10:	e0c0080c 	andi	r3,fp,32
10002e14:	d8812d17 	ldw	r2,1204(sp)
10002e18:	18002c26 	beq	r3,zero,10002ecc <___vfprintf_internal_r+0xb18>
10002e1c:	d9012d17 	ldw	r4,1204(sp)
10002e20:	14800017 	ldw	r18,0(r2)
10002e24:	15400117 	ldw	r21,4(r2)
10002e28:	21000204 	addi	r4,r4,8
10002e2c:	d9012d15 	stw	r4,1204(sp)
10002e30:	00800044 	movi	r2,1
10002e34:	9546b03a 	or	r3,r18,r21
10002e38:	003fee06 	br	10002df4 <__alt_data_end+0xf8002df4>
10002e3c:	da012a17 	ldw	r8,1192(sp)
10002e40:	df012a15 	stw	fp,1192(sp)
10002e44:	9839883a 	mov	fp,r19
10002e48:	dcc12b03 	ldbu	r19,1196(sp)
10002e4c:	01440074 	movhi	r5,4097
10002e50:	2946d104 	addi	r5,r5,6980
10002e54:	dcc12785 	stb	r19,1182(sp)
10002e58:	d9413b15 	stw	r5,1260(sp)
10002e5c:	e0c0080c 	andi	r3,fp,32
10002e60:	d8812d17 	ldw	r2,1204(sp)
10002e64:	18002e26 	beq	r3,zero,10002f20 <___vfprintf_internal_r+0xb6c>
10002e68:	d9412d17 	ldw	r5,1204(sp)
10002e6c:	14800017 	ldw	r18,0(r2)
10002e70:	15400117 	ldw	r21,4(r2)
10002e74:	29400204 	addi	r5,r5,8
10002e78:	d9412d15 	stw	r5,1204(sp)
10002e7c:	e080004c 	andi	r2,fp,1
10002e80:	10025c26 	beq	r2,zero,100037f4 <___vfprintf_internal_r+0x1440>
10002e84:	9546b03a 	or	r3,r18,r21
10002e88:	18038f26 	beq	r3,zero,10003cc8 <___vfprintf_internal_r+0x1914>
10002e8c:	00800c04 	movi	r2,48
10002e90:	d8812705 	stb	r2,1180(sp)
10002e94:	dc012745 	stb	r16,1181(sp)
10002e98:	e7000094 	ori	fp,fp,2
10002e9c:	00800084 	movi	r2,2
10002ea0:	003fd406 	br	10002df4 <__alt_data_end+0xf8002df4>
10002ea4:	9cc00814 	ori	r19,r19,32
10002ea8:	e005883a 	mov	r2,fp
10002eac:	e4000007 	ldb	r16,0(fp)
10002eb0:	003da806 	br	10002554 <__alt_data_end+0xf8002554>
10002eb4:	da012a17 	ldw	r8,1192(sp)
10002eb8:	df012a15 	stw	fp,1192(sp)
10002ebc:	9839883a 	mov	fp,r19
10002ec0:	e0c0080c 	andi	r3,fp,32
10002ec4:	d8812d17 	ldw	r2,1204(sp)
10002ec8:	183fd41e 	bne	r3,zero,10002e1c <__alt_data_end+0xf8002e1c>
10002ecc:	e0c0040c 	andi	r3,fp,16
10002ed0:	18035f26 	beq	r3,zero,10003c50 <___vfprintf_internal_r+0x189c>
10002ed4:	d9412d17 	ldw	r5,1204(sp)
10002ed8:	14800017 	ldw	r18,0(r2)
10002edc:	002b883a 	mov	r21,zero
10002ee0:	29400104 	addi	r5,r5,4
10002ee4:	d9412d15 	stw	r5,1204(sp)
10002ee8:	00800044 	movi	r2,1
10002eec:	9007883a 	mov	r3,r18
10002ef0:	003fc006 	br	10002df4 <__alt_data_end+0xf8002df4>
10002ef4:	da012a17 	ldw	r8,1192(sp)
10002ef8:	df012a15 	stw	fp,1192(sp)
10002efc:	9839883a 	mov	fp,r19
10002f00:	dcc12b03 	ldbu	r19,1196(sp)
10002f04:	01040074 	movhi	r4,4097
10002f08:	2106d604 	addi	r4,r4,7000
10002f0c:	d9013b15 	stw	r4,1260(sp)
10002f10:	dcc12785 	stb	r19,1182(sp)
10002f14:	e0c0080c 	andi	r3,fp,32
10002f18:	d8812d17 	ldw	r2,1204(sp)
10002f1c:	183fd21e 	bne	r3,zero,10002e68 <__alt_data_end+0xf8002e68>
10002f20:	e0c0040c 	andi	r3,fp,16
10002f24:	18035426 	beq	r3,zero,10003c78 <___vfprintf_internal_r+0x18c4>
10002f28:	d8c12d17 	ldw	r3,1204(sp)
10002f2c:	14800017 	ldw	r18,0(r2)
10002f30:	002b883a 	mov	r21,zero
10002f34:	18c00104 	addi	r3,r3,4
10002f38:	d8c12d15 	stw	r3,1204(sp)
10002f3c:	003fcf06 	br	10002e7c <__alt_data_end+0xf8002e7c>
10002f40:	e4000007 	ldb	r16,0(fp)
10002f44:	00801b04 	movi	r2,108
10002f48:	8083f726 	beq	r16,r2,10003f28 <___vfprintf_internal_r+0x1b74>
10002f4c:	9cc00414 	ori	r19,r19,16
10002f50:	e005883a 	mov	r2,fp
10002f54:	003d7f06 	br	10002554 <__alt_data_end+0xf8002554>
10002f58:	da012a17 	ldw	r8,1192(sp)
10002f5c:	df012a15 	stw	fp,1192(sp)
10002f60:	9839883a 	mov	fp,r19
10002f64:	dcc12b03 	ldbu	r19,1196(sp)
10002f68:	e080080c 	andi	r2,fp,32
10002f6c:	dcc12785 	stb	r19,1182(sp)
10002f70:	10032226 	beq	r2,zero,10003bfc <___vfprintf_internal_r+0x1848>
10002f74:	d9412d17 	ldw	r5,1204(sp)
10002f78:	d9012f17 	ldw	r4,1212(sp)
10002f7c:	28800017 	ldw	r2,0(r5)
10002f80:	2007d7fa 	srai	r3,r4,31
10002f84:	29400104 	addi	r5,r5,4
10002f88:	d9412d15 	stw	r5,1204(sp)
10002f8c:	11000015 	stw	r4,0(r2)
10002f90:	10c00115 	stw	r3,4(r2)
10002f94:	003d4406 	br	100024a8 <__alt_data_end+0xf80024a8>
10002f98:	da012a17 	ldw	r8,1192(sp)
10002f9c:	df012a15 	stw	fp,1192(sp)
10002fa0:	9839883a 	mov	fp,r19
10002fa4:	e0c0080c 	andi	r3,fp,32
10002fa8:	d8812d17 	ldw	r2,1204(sp)
10002fac:	183f8a1e 	bne	r3,zero,10002dd8 <__alt_data_end+0xf8002dd8>
10002fb0:	e0c0040c 	andi	r3,fp,16
10002fb4:	18031c26 	beq	r3,zero,10003c28 <___vfprintf_internal_r+0x1874>
10002fb8:	14800017 	ldw	r18,0(r2)
10002fbc:	d8812d17 	ldw	r2,1204(sp)
10002fc0:	002b883a 	mov	r21,zero
10002fc4:	9007883a 	mov	r3,r18
10002fc8:	10800104 	addi	r2,r2,4
10002fcc:	d8812d15 	stw	r2,1204(sp)
10002fd0:	0005883a 	mov	r2,zero
10002fd4:	003f8706 	br	10002df4 <__alt_data_end+0xf8002df4>
10002fd8:	d9412d17 	ldw	r5,1204(sp)
10002fdc:	00800c04 	movi	r2,48
10002fe0:	d8812705 	stb	r2,1180(sp)
10002fe4:	2c800017 	ldw	r18,0(r5)
10002fe8:	00801e04 	movi	r2,120
10002fec:	d8812745 	stb	r2,1181(sp)
10002ff0:	00840074 	movhi	r2,4097
10002ff4:	1086d604 	addi	r2,r2,7000
10002ff8:	29400104 	addi	r5,r5,4
10002ffc:	da012a17 	ldw	r8,1192(sp)
10003000:	d8813b15 	stw	r2,1260(sp)
10003004:	df012a15 	stw	fp,1192(sp)
10003008:	002b883a 	mov	r21,zero
1000300c:	9f000094 	ori	fp,r19,2
10003010:	d9412d15 	stw	r5,1204(sp)
10003014:	00800084 	movi	r2,2
10003018:	04001e04 	movi	r16,120
1000301c:	9007883a 	mov	r3,r18
10003020:	003f7406 	br	10002df4 <__alt_data_end+0xf8002df4>
10003024:	da012a17 	ldw	r8,1192(sp)
10003028:	df012a15 	stw	fp,1192(sp)
1000302c:	9839883a 	mov	fp,r19
10003030:	dcc12b03 	ldbu	r19,1196(sp)
10003034:	e080080c 	andi	r2,fp,32
10003038:	d8c12d17 	ldw	r3,1204(sp)
1000303c:	dcc12785 	stb	r19,1182(sp)
10003040:	103e321e 	bne	r2,zero,1000290c <__alt_data_end+0xf800290c>
10003044:	e080040c 	andi	r2,fp,16
10003048:	10031326 	beq	r2,zero,10003c98 <___vfprintf_internal_r+0x18e4>
1000304c:	1c800017 	ldw	r18,0(r3)
10003050:	d9412d17 	ldw	r5,1204(sp)
10003054:	902bd7fa 	srai	r21,r18,31
10003058:	29400104 	addi	r5,r5,4
1000305c:	d9412d15 	stw	r5,1204(sp)
10003060:	a805883a 	mov	r2,r21
10003064:	003e2f06 	br	10002924 <__alt_data_end+0xf8002924>
10003068:	9cc01014 	ori	r19,r19,64
1000306c:	e005883a 	mov	r2,fp
10003070:	e4000007 	ldb	r16,0(fp)
10003074:	003d3706 	br	10002554 <__alt_data_end+0xf8002554>
10003078:	d8c12d17 	ldw	r3,1204(sp)
1000307c:	d9012d17 	ldw	r4,1204(sp)
10003080:	da012a17 	ldw	r8,1192(sp)
10003084:	18800017 	ldw	r2,0(r3)
10003088:	21000104 	addi	r4,r4,4
1000308c:	00c00044 	movi	r3,1
10003090:	df012a15 	stw	fp,1192(sp)
10003094:	d8c12b15 	stw	r3,1196(sp)
10003098:	9839883a 	mov	fp,r19
1000309c:	d8012785 	stb	zero,1182(sp)
100030a0:	d8810405 	stb	r2,1040(sp)
100030a4:	d9012d15 	stw	r4,1204(sp)
100030a8:	1823883a 	mov	r17,r3
100030ac:	d8c10404 	addi	r3,sp,1040
100030b0:	d8013215 	stw	zero,1224(sp)
100030b4:	d8013415 	stw	zero,1232(sp)
100030b8:	d8c13115 	stw	r3,1220(sp)
100030bc:	0005883a 	mov	r2,zero
100030c0:	003e4306 	br	100029d0 <__alt_data_end+0xf80029d0>
100030c4:	d8812b07 	ldb	r2,1196(sp)
100030c8:	1002fc1e 	bne	r2,zero,10003cbc <___vfprintf_internal_r+0x1908>
100030cc:	00c00804 	movi	r3,32
100030d0:	d8c12b05 	stb	r3,1196(sp)
100030d4:	e005883a 	mov	r2,fp
100030d8:	e4000007 	ldb	r16,0(fp)
100030dc:	003d1d06 	br	10002554 <__alt_data_end+0xf8002554>
100030e0:	9cc00054 	ori	r19,r19,1
100030e4:	e005883a 	mov	r2,fp
100030e8:	e4000007 	ldb	r16,0(fp)
100030ec:	003d1906 	br	10002554 <__alt_data_end+0xf8002554>
100030f0:	d9012d17 	ldw	r4,1204(sp)
100030f4:	d9412d17 	ldw	r5,1204(sp)
100030f8:	21000017 	ldw	r4,0(r4)
100030fc:	28c00104 	addi	r3,r5,4
10003100:	d9012e15 	stw	r4,1208(sp)
10003104:	20038c16 	blt	r4,zero,10003f38 <___vfprintf_internal_r+0x1b84>
10003108:	d8c12d15 	stw	r3,1204(sp)
1000310c:	e005883a 	mov	r2,fp
10003110:	e4000007 	ldb	r16,0(fp)
10003114:	003d0f06 	br	10002554 <__alt_data_end+0xf8002554>
10003118:	00c00ac4 	movi	r3,43
1000311c:	d8c12b05 	stb	r3,1196(sp)
10003120:	e005883a 	mov	r2,fp
10003124:	e4000007 	ldb	r16,0(fp)
10003128:	003d0a06 	br	10002554 <__alt_data_end+0xf8002554>
1000312c:	d8c12d17 	ldw	r3,1204(sp)
10003130:	d9012d17 	ldw	r4,1204(sp)
10003134:	da012a17 	ldw	r8,1192(sp)
10003138:	18c00017 	ldw	r3,0(r3)
1000313c:	df012a15 	stw	fp,1192(sp)
10003140:	d8012785 	stb	zero,1182(sp)
10003144:	d8c13115 	stw	r3,1220(sp)
10003148:	9839883a 	mov	fp,r19
1000314c:	24800104 	addi	r18,r4,4
10003150:	1803f726 	beq	r3,zero,10004130 <___vfprintf_internal_r+0x1d7c>
10003154:	d9013117 	ldw	r4,1220(sp)
10003158:	48038916 	blt	r9,zero,10003f80 <___vfprintf_internal_r+0x1bcc>
1000315c:	480d883a 	mov	r6,r9
10003160:	000b883a 	mov	r5,zero
10003164:	da013f15 	stw	r8,1276(sp)
10003168:	da413e15 	stw	r9,1272(sp)
1000316c:	00079c80 	call	100079c8 <memchr>
10003170:	da013f17 	ldw	r8,1276(sp)
10003174:	da413e17 	ldw	r9,1272(sp)
10003178:	10045926 	beq	r2,zero,100042e0 <___vfprintf_internal_r+0x1f2c>
1000317c:	d8c13117 	ldw	r3,1220(sp)
10003180:	10e3c83a 	sub	r17,r2,r3
10003184:	4c433516 	blt	r9,r17,10003e5c <___vfprintf_internal_r+0x1aa8>
10003188:	8805883a 	mov	r2,r17
1000318c:	88038116 	blt	r17,zero,10003f94 <___vfprintf_internal_r+0x1be0>
10003190:	dcc12783 	ldbu	r19,1182(sp)
10003194:	d8812b15 	stw	r2,1196(sp)
10003198:	dc812d15 	stw	r18,1204(sp)
1000319c:	d8013215 	stw	zero,1224(sp)
100031a0:	d8013415 	stw	zero,1232(sp)
100031a4:	003e0306 	br	100029b4 <__alt_data_end+0xf80029b4>
100031a8:	da012a17 	ldw	r8,1192(sp)
100031ac:	df012a15 	stw	fp,1192(sp)
100031b0:	9839883a 	mov	fp,r19
100031b4:	dcc12b03 	ldbu	r19,1196(sp)
100031b8:	dcc12785 	stb	r19,1182(sp)
100031bc:	803d8f26 	beq	r16,zero,100027fc <__alt_data_end+0xf80027fc>
100031c0:	00c00044 	movi	r3,1
100031c4:	d8c12b15 	stw	r3,1196(sp)
100031c8:	dc010405 	stb	r16,1040(sp)
100031cc:	d8012785 	stb	zero,1182(sp)
100031d0:	003fb506 	br	100030a8 <__alt_data_end+0xf80030a8>
100031d4:	d8c12017 	ldw	r3,1152(sp)
100031d8:	003e3506 	br	10002ab0 <__alt_data_end+0xf8002ab0>
100031dc:	10803fcc 	andi	r2,r2,255
100031e0:	00c00044 	movi	r3,1
100031e4:	10fddc1e 	bne	r2,r3,10002958 <__alt_data_end+0xf8002958>
100031e8:	a800021e 	bne	r21,zero,100031f4 <___vfprintf_internal_r+0xe40>
100031ec:	00800244 	movi	r2,9
100031f0:	14801e2e 	bgeu	r2,r18,1000326c <___vfprintf_internal_r+0xeb8>
100031f4:	dc012b15 	stw	r16,1196(sp)
100031f8:	dc410e04 	addi	r17,sp,1080
100031fc:	9021883a 	mov	r16,r18
10003200:	da012c15 	stw	r8,1200(sp)
10003204:	a825883a 	mov	r18,r21
10003208:	482b883a 	mov	r21,r9
1000320c:	8009883a 	mov	r4,r16
10003210:	900b883a 	mov	r5,r18
10003214:	01800284 	movi	r6,10
10003218:	000f883a 	mov	r7,zero
1000321c:	000bbe00 	call	1000bbe0 <__umoddi3>
10003220:	10800c04 	addi	r2,r2,48
10003224:	8c7fffc4 	addi	r17,r17,-1
10003228:	8009883a 	mov	r4,r16
1000322c:	900b883a 	mov	r5,r18
10003230:	01800284 	movi	r6,10
10003234:	000f883a 	mov	r7,zero
10003238:	88800005 	stb	r2,0(r17)
1000323c:	000b5a00 	call	1000b5a0 <__udivdi3>
10003240:	1021883a 	mov	r16,r2
10003244:	10c4b03a 	or	r2,r2,r3
10003248:	1825883a 	mov	r18,r3
1000324c:	103fef1e 	bne	r2,zero,1000320c <__alt_data_end+0xf800320c>
10003250:	d9012817 	ldw	r4,1184(sp)
10003254:	dc413115 	stw	r17,1220(sp)
10003258:	dc012b17 	ldw	r16,1196(sp)
1000325c:	da012c17 	ldw	r8,1200(sp)
10003260:	a813883a 	mov	r9,r21
10003264:	2463c83a 	sub	r17,r4,r17
10003268:	003dcd06 	br	100029a0 <__alt_data_end+0xf80029a0>
1000326c:	94800c04 	addi	r18,r18,48
10003270:	d8c10dc4 	addi	r3,sp,1079
10003274:	dc810dc5 	stb	r18,1079(sp)
10003278:	dc413c17 	ldw	r17,1264(sp)
1000327c:	d8c13115 	stw	r3,1220(sp)
10003280:	003dc706 	br	100029a0 <__alt_data_end+0xf80029a0>
10003284:	00801944 	movi	r2,101
10003288:	1400720e 	bge	r2,r16,10003454 <___vfprintf_internal_r+0x10a0>
1000328c:	d9013717 	ldw	r4,1244(sp)
10003290:	d9413917 	ldw	r5,1252(sp)
10003294:	000d883a 	mov	r6,zero
10003298:	000f883a 	mov	r7,zero
1000329c:	d8c13d15 	stw	r3,1268(sp)
100032a0:	da013f15 	stw	r8,1276(sp)
100032a4:	000d56c0 	call	1000d56c <__eqdf2>
100032a8:	d8c13d17 	ldw	r3,1268(sp)
100032ac:	da013f17 	ldw	r8,1276(sp)
100032b0:	1000f41e 	bne	r2,zero,10003684 <___vfprintf_internal_r+0x12d0>
100032b4:	d8811f17 	ldw	r2,1148(sp)
100032b8:	01040074 	movhi	r4,4097
100032bc:	2106dd04 	addi	r4,r4,7028
100032c0:	18c00044 	addi	r3,r3,1
100032c4:	10800044 	addi	r2,r2,1
100032c8:	41000015 	stw	r4,0(r8)
100032cc:	01000044 	movi	r4,1
100032d0:	41000115 	stw	r4,4(r8)
100032d4:	d8c12015 	stw	r3,1152(sp)
100032d8:	d8811f15 	stw	r2,1148(sp)
100032dc:	010001c4 	movi	r4,7
100032e0:	20828d16 	blt	r4,r2,10003d18 <___vfprintf_internal_r+0x1964>
100032e4:	42000204 	addi	r8,r8,8
100032e8:	d8812617 	ldw	r2,1176(sp)
100032ec:	d9413317 	ldw	r5,1228(sp)
100032f0:	11400216 	blt	r2,r5,100032fc <___vfprintf_internal_r+0xf48>
100032f4:	e080004c 	andi	r2,fp,1
100032f8:	103e4126 	beq	r2,zero,10002c00 <__alt_data_end+0xf8002c00>
100032fc:	d8813817 	ldw	r2,1248(sp)
10003300:	d9013517 	ldw	r4,1236(sp)
10003304:	d9413817 	ldw	r5,1248(sp)
10003308:	1887883a 	add	r3,r3,r2
1000330c:	d8811f17 	ldw	r2,1148(sp)
10003310:	41000015 	stw	r4,0(r8)
10003314:	41400115 	stw	r5,4(r8)
10003318:	10800044 	addi	r2,r2,1
1000331c:	d8c12015 	stw	r3,1152(sp)
10003320:	d8811f15 	stw	r2,1148(sp)
10003324:	010001c4 	movi	r4,7
10003328:	20830916 	blt	r4,r2,10003f50 <___vfprintf_internal_r+0x1b9c>
1000332c:	42000204 	addi	r8,r8,8
10003330:	d8813317 	ldw	r2,1228(sp)
10003334:	143fffc4 	addi	r16,r2,-1
10003338:	043e310e 	bge	zero,r16,10002c00 <__alt_data_end+0xf8002c00>
1000333c:	04400404 	movi	r17,16
10003340:	d8811f17 	ldw	r2,1148(sp)
10003344:	8c007e0e 	bge	r17,r16,10003540 <___vfprintf_internal_r+0x118c>
10003348:	01440074 	movhi	r5,4097
1000334c:	2946dd84 	addi	r5,r5,7030
10003350:	d9412c15 	stw	r5,1200(sp)
10003354:	04c001c4 	movi	r19,7
10003358:	00000306 	br	10003368 <___vfprintf_internal_r+0xfb4>
1000335c:	42000204 	addi	r8,r8,8
10003360:	843ffc04 	addi	r16,r16,-16
10003364:	8c00790e 	bge	r17,r16,1000354c <___vfprintf_internal_r+0x1198>
10003368:	18c00404 	addi	r3,r3,16
1000336c:	10800044 	addi	r2,r2,1
10003370:	45000015 	stw	r20,0(r8)
10003374:	44400115 	stw	r17,4(r8)
10003378:	d8c12015 	stw	r3,1152(sp)
1000337c:	d8811f15 	stw	r2,1148(sp)
10003380:	98bff60e 	bge	r19,r2,1000335c <__alt_data_end+0xf800335c>
10003384:	b809883a 	mov	r4,r23
10003388:	b00b883a 	mov	r5,r22
1000338c:	d9811e04 	addi	r6,sp,1144
10003390:	00097f40 	call	100097f4 <__sprint_r>
10003394:	103d1f1e 	bne	r2,zero,10002814 <__alt_data_end+0xf8002814>
10003398:	d8c12017 	ldw	r3,1152(sp)
1000339c:	d8811f17 	ldw	r2,1148(sp)
100033a0:	da000404 	addi	r8,sp,16
100033a4:	003fee06 	br	10003360 <__alt_data_end+0xf8003360>
100033a8:	d9412e17 	ldw	r5,1208(sp)
100033ac:	d8812b17 	ldw	r2,1196(sp)
100033b0:	28a7c83a 	sub	r19,r5,r2
100033b4:	04fddc0e 	bge	zero,r19,10002b28 <__alt_data_end+0xf8002b28>
100033b8:	05400404 	movi	r21,16
100033bc:	d8811f17 	ldw	r2,1148(sp)
100033c0:	acc3870e 	bge	r21,r19,100041e0 <___vfprintf_internal_r+0x1e2c>
100033c4:	01440074 	movhi	r5,4097
100033c8:	2946dd84 	addi	r5,r5,7030
100033cc:	d9412c15 	stw	r5,1200(sp)
100033d0:	048001c4 	movi	r18,7
100033d4:	00000306 	br	100033e4 <___vfprintf_internal_r+0x1030>
100033d8:	9cfffc04 	addi	r19,r19,-16
100033dc:	42000204 	addi	r8,r8,8
100033e0:	acc0110e 	bge	r21,r19,10003428 <___vfprintf_internal_r+0x1074>
100033e4:	18c00404 	addi	r3,r3,16
100033e8:	10800044 	addi	r2,r2,1
100033ec:	45000015 	stw	r20,0(r8)
100033f0:	45400115 	stw	r21,4(r8)
100033f4:	d8c12015 	stw	r3,1152(sp)
100033f8:	d8811f15 	stw	r2,1148(sp)
100033fc:	90bff60e 	bge	r18,r2,100033d8 <__alt_data_end+0xf80033d8>
10003400:	b809883a 	mov	r4,r23
10003404:	b00b883a 	mov	r5,r22
10003408:	d9811e04 	addi	r6,sp,1144
1000340c:	00097f40 	call	100097f4 <__sprint_r>
10003410:	103d001e 	bne	r2,zero,10002814 <__alt_data_end+0xf8002814>
10003414:	9cfffc04 	addi	r19,r19,-16
10003418:	d8c12017 	ldw	r3,1152(sp)
1000341c:	d8811f17 	ldw	r2,1148(sp)
10003420:	da000404 	addi	r8,sp,16
10003424:	acffef16 	blt	r21,r19,100033e4 <__alt_data_end+0xf80033e4>
10003428:	d9012c17 	ldw	r4,1200(sp)
1000342c:	1cc7883a 	add	r3,r3,r19
10003430:	10800044 	addi	r2,r2,1
10003434:	41000015 	stw	r4,0(r8)
10003438:	44c00115 	stw	r19,4(r8)
1000343c:	d8c12015 	stw	r3,1152(sp)
10003440:	d8811f15 	stw	r2,1148(sp)
10003444:	010001c4 	movi	r4,7
10003448:	20817816 	blt	r4,r2,10003a2c <___vfprintf_internal_r+0x1678>
1000344c:	42000204 	addi	r8,r8,8
10003450:	003db506 	br	10002b28 <__alt_data_end+0xf8002b28>
10003454:	d9413317 	ldw	r5,1228(sp)
10003458:	00800044 	movi	r2,1
1000345c:	18c00044 	addi	r3,r3,1
10003460:	11413e0e 	bge	r2,r5,1000395c <___vfprintf_internal_r+0x15a8>
10003464:	dc011f17 	ldw	r16,1148(sp)
10003468:	d8813117 	ldw	r2,1220(sp)
1000346c:	d8c12015 	stw	r3,1152(sp)
10003470:	84000044 	addi	r16,r16,1
10003474:	40800015 	stw	r2,0(r8)
10003478:	00800044 	movi	r2,1
1000347c:	40800115 	stw	r2,4(r8)
10003480:	dc011f15 	stw	r16,1148(sp)
10003484:	008001c4 	movi	r2,7
10003488:	14015616 	blt	r2,r16,100039e4 <___vfprintf_internal_r+0x1630>
1000348c:	42000204 	addi	r8,r8,8
10003490:	d9013817 	ldw	r4,1248(sp)
10003494:	d9413517 	ldw	r5,1236(sp)
10003498:	84000044 	addi	r16,r16,1
1000349c:	1907883a 	add	r3,r3,r4
100034a0:	41400015 	stw	r5,0(r8)
100034a4:	41000115 	stw	r4,4(r8)
100034a8:	d8c12015 	stw	r3,1152(sp)
100034ac:	dc011f15 	stw	r16,1148(sp)
100034b0:	008001c4 	movi	r2,7
100034b4:	14015416 	blt	r2,r16,10003a08 <___vfprintf_internal_r+0x1654>
100034b8:	44400204 	addi	r17,r8,8
100034bc:	d9013717 	ldw	r4,1244(sp)
100034c0:	d9413917 	ldw	r5,1252(sp)
100034c4:	000d883a 	mov	r6,zero
100034c8:	000f883a 	mov	r7,zero
100034cc:	d8c13d15 	stw	r3,1268(sp)
100034d0:	000d56c0 	call	1000d56c <__eqdf2>
100034d4:	d8c13d17 	ldw	r3,1268(sp)
100034d8:	1000a726 	beq	r2,zero,10003778 <___vfprintf_internal_r+0x13c4>
100034dc:	d9013317 	ldw	r4,1228(sp)
100034e0:	d9413117 	ldw	r5,1220(sp)
100034e4:	84000044 	addi	r16,r16,1
100034e8:	20bfffc4 	addi	r2,r4,-1
100034ec:	1887883a 	add	r3,r3,r2
100034f0:	29000044 	addi	r4,r5,1
100034f4:	88800115 	stw	r2,4(r17)
100034f8:	89000015 	stw	r4,0(r17)
100034fc:	d8c12015 	stw	r3,1152(sp)
10003500:	dc011f15 	stw	r16,1148(sp)
10003504:	008001c4 	movi	r2,7
10003508:	14012d16 	blt	r2,r16,100039c0 <___vfprintf_internal_r+0x160c>
1000350c:	8c400204 	addi	r17,r17,8
10003510:	d9413a17 	ldw	r5,1256(sp)
10003514:	dcc122c4 	addi	r19,sp,1163
10003518:	84000044 	addi	r16,r16,1
1000351c:	28c7883a 	add	r3,r5,r3
10003520:	8cc00015 	stw	r19,0(r17)
10003524:	89400115 	stw	r5,4(r17)
10003528:	d8c12015 	stw	r3,1152(sp)
1000352c:	dc011f15 	stw	r16,1148(sp)
10003530:	008001c4 	movi	r2,7
10003534:	14000e16 	blt	r2,r16,10003570 <___vfprintf_internal_r+0x11bc>
10003538:	8a000204 	addi	r8,r17,8
1000353c:	003db006 	br	10002c00 <__alt_data_end+0xf8002c00>
10003540:	01040074 	movhi	r4,4097
10003544:	2106dd84 	addi	r4,r4,7030
10003548:	d9012c15 	stw	r4,1200(sp)
1000354c:	d9012c17 	ldw	r4,1200(sp)
10003550:	1c07883a 	add	r3,r3,r16
10003554:	44000115 	stw	r16,4(r8)
10003558:	41000015 	stw	r4,0(r8)
1000355c:	10800044 	addi	r2,r2,1
10003560:	d8c12015 	stw	r3,1152(sp)
10003564:	d8811f15 	stw	r2,1148(sp)
10003568:	010001c4 	movi	r4,7
1000356c:	20bda30e 	bge	r4,r2,10002bfc <__alt_data_end+0xf8002bfc>
10003570:	b809883a 	mov	r4,r23
10003574:	b00b883a 	mov	r5,r22
10003578:	d9811e04 	addi	r6,sp,1144
1000357c:	00097f40 	call	100097f4 <__sprint_r>
10003580:	103ca41e 	bne	r2,zero,10002814 <__alt_data_end+0xf8002814>
10003584:	d8c12017 	ldw	r3,1152(sp)
10003588:	da000404 	addi	r8,sp,16
1000358c:	003d9c06 	br	10002c00 <__alt_data_end+0xf8002c00>
10003590:	b809883a 	mov	r4,r23
10003594:	b00b883a 	mov	r5,r22
10003598:	d9811e04 	addi	r6,sp,1144
1000359c:	00097f40 	call	100097f4 <__sprint_r>
100035a0:	103dd226 	beq	r2,zero,10002cec <__alt_data_end+0xf8002cec>
100035a4:	003c9b06 	br	10002814 <__alt_data_end+0xf8002814>
100035a8:	10803fcc 	andi	r2,r2,255
100035ac:	1000311e 	bne	r2,zero,10003674 <___vfprintf_internal_r+0x12c0>
100035b0:	e080004c 	andi	r2,fp,1
100035b4:	10002f26 	beq	r2,zero,10003674 <___vfprintf_internal_r+0x12c0>
100035b8:	00800c04 	movi	r2,48
100035bc:	d8c10dc4 	addi	r3,sp,1079
100035c0:	d8810dc5 	stb	r2,1079(sp)
100035c4:	dc413c17 	ldw	r17,1264(sp)
100035c8:	d8c13115 	stw	r3,1220(sp)
100035cc:	003cf406 	br	100029a0 <__alt_data_end+0xf80029a0>
100035d0:	b809883a 	mov	r4,r23
100035d4:	b00b883a 	mov	r5,r22
100035d8:	d9811e04 	addi	r6,sp,1144
100035dc:	00097f40 	call	100097f4 <__sprint_r>
100035e0:	103c8c1e 	bne	r2,zero,10002814 <__alt_data_end+0xf8002814>
100035e4:	d8c12017 	ldw	r3,1152(sp)
100035e8:	da000404 	addi	r8,sp,16
100035ec:	003d7706 	br	10002bcc <__alt_data_end+0xf8002bcc>
100035f0:	b809883a 	mov	r4,r23
100035f4:	b00b883a 	mov	r5,r22
100035f8:	d9811e04 	addi	r6,sp,1144
100035fc:	00097f40 	call	100097f4 <__sprint_r>
10003600:	103c841e 	bne	r2,zero,10002814 <__alt_data_end+0xf8002814>
10003604:	d8c12017 	ldw	r3,1152(sp)
10003608:	da000404 	addi	r8,sp,16
1000360c:	003d3506 	br	10002ae4 <__alt_data_end+0xf8002ae4>
10003610:	b809883a 	mov	r4,r23
10003614:	b00b883a 	mov	r5,r22
10003618:	d9811e04 	addi	r6,sp,1144
1000361c:	00097f40 	call	100097f4 <__sprint_r>
10003620:	103c7c1e 	bne	r2,zero,10002814 <__alt_data_end+0xf8002814>
10003624:	d8c12017 	ldw	r3,1152(sp)
10003628:	da000404 	addi	r8,sp,16
1000362c:	003d3b06 	br	10002b1c <__alt_data_end+0xf8002b1c>
10003630:	d9413b17 	ldw	r5,1260(sp)
10003634:	d8c10e04 	addi	r3,sp,1080
10003638:	908003cc 	andi	r2,r18,15
1000363c:	a808973a 	slli	r4,r21,28
10003640:	2885883a 	add	r2,r5,r2
10003644:	9024d13a 	srli	r18,r18,4
10003648:	10800003 	ldbu	r2,0(r2)
1000364c:	a82ad13a 	srli	r21,r21,4
10003650:	18ffffc4 	addi	r3,r3,-1
10003654:	24a4b03a 	or	r18,r4,r18
10003658:	18800005 	stb	r2,0(r3)
1000365c:	9544b03a 	or	r2,r18,r21
10003660:	103ff51e 	bne	r2,zero,10003638 <__alt_data_end+0xf8003638>
10003664:	d9412817 	ldw	r5,1184(sp)
10003668:	d8c13115 	stw	r3,1220(sp)
1000366c:	28e3c83a 	sub	r17,r5,r3
10003670:	003ccb06 	br	100029a0 <__alt_data_end+0xf80029a0>
10003674:	d8c10e04 	addi	r3,sp,1080
10003678:	0023883a 	mov	r17,zero
1000367c:	d8c13115 	stw	r3,1220(sp)
10003680:	003cc706 	br	100029a0 <__alt_data_end+0xf80029a0>
10003684:	dc012617 	ldw	r16,1176(sp)
10003688:	0401ab0e 	bge	zero,r16,10003d38 <___vfprintf_internal_r+0x1984>
1000368c:	d8813317 	ldw	r2,1228(sp)
10003690:	d9413117 	ldw	r5,1220(sp)
10003694:	d9013417 	ldw	r4,1232(sp)
10003698:	1023883a 	mov	r17,r2
1000369c:	28a1883a 	add	r16,r5,r2
100036a0:	2080010e 	bge	r4,r2,100036a8 <___vfprintf_internal_r+0x12f4>
100036a4:	2023883a 	mov	r17,r4
100036a8:	04400b0e 	bge	zero,r17,100036d8 <___vfprintf_internal_r+0x1324>
100036ac:	d8811f17 	ldw	r2,1148(sp)
100036b0:	d9413117 	ldw	r5,1220(sp)
100036b4:	1c47883a 	add	r3,r3,r17
100036b8:	10800044 	addi	r2,r2,1
100036bc:	41400015 	stw	r5,0(r8)
100036c0:	44400115 	stw	r17,4(r8)
100036c4:	d8c12015 	stw	r3,1152(sp)
100036c8:	d8811f15 	stw	r2,1148(sp)
100036cc:	010001c4 	movi	r4,7
100036d0:	20826716 	blt	r4,r2,10004070 <___vfprintf_internal_r+0x1cbc>
100036d4:	42000204 	addi	r8,r8,8
100036d8:	88026316 	blt	r17,zero,10004068 <___vfprintf_internal_r+0x1cb4>
100036dc:	d8813417 	ldw	r2,1232(sp)
100036e0:	1463c83a 	sub	r17,r2,r17
100036e4:	0440590e 	bge	zero,r17,1000384c <___vfprintf_internal_r+0x1498>
100036e8:	04c00404 	movi	r19,16
100036ec:	d8811f17 	ldw	r2,1148(sp)
100036f0:	9c41770e 	bge	r19,r17,10003cd0 <___vfprintf_internal_r+0x191c>
100036f4:	01440074 	movhi	r5,4097
100036f8:	2946dd84 	addi	r5,r5,7030
100036fc:	d9412c15 	stw	r5,1200(sp)
10003700:	054001c4 	movi	r21,7
10003704:	00000306 	br	10003714 <___vfprintf_internal_r+0x1360>
10003708:	42000204 	addi	r8,r8,8
1000370c:	8c7ffc04 	addi	r17,r17,-16
10003710:	9c41720e 	bge	r19,r17,10003cdc <___vfprintf_internal_r+0x1928>
10003714:	18c00404 	addi	r3,r3,16
10003718:	10800044 	addi	r2,r2,1
1000371c:	45000015 	stw	r20,0(r8)
10003720:	44c00115 	stw	r19,4(r8)
10003724:	d8c12015 	stw	r3,1152(sp)
10003728:	d8811f15 	stw	r2,1148(sp)
1000372c:	a8bff60e 	bge	r21,r2,10003708 <__alt_data_end+0xf8003708>
10003730:	b809883a 	mov	r4,r23
10003734:	b00b883a 	mov	r5,r22
10003738:	d9811e04 	addi	r6,sp,1144
1000373c:	00097f40 	call	100097f4 <__sprint_r>
10003740:	103c341e 	bne	r2,zero,10002814 <__alt_data_end+0xf8002814>
10003744:	d8c12017 	ldw	r3,1152(sp)
10003748:	d8811f17 	ldw	r2,1148(sp)
1000374c:	da000404 	addi	r8,sp,16
10003750:	003fee06 	br	1000370c <__alt_data_end+0xf800370c>
10003754:	b809883a 	mov	r4,r23
10003758:	b00b883a 	mov	r5,r22
1000375c:	d9811e04 	addi	r6,sp,1144
10003760:	00097f40 	call	100097f4 <__sprint_r>
10003764:	103c2b1e 	bne	r2,zero,10002814 <__alt_data_end+0xf8002814>
10003768:	d8c12017 	ldw	r3,1152(sp)
1000376c:	d8812787 	ldb	r2,1182(sp)
10003770:	da000404 	addi	r8,sp,16
10003774:	003cce06 	br	10002ab0 <__alt_data_end+0xf8002ab0>
10003778:	d8813317 	ldw	r2,1228(sp)
1000377c:	14ffffc4 	addi	r19,r2,-1
10003780:	04ff630e 	bge	zero,r19,10003510 <__alt_data_end+0xf8003510>
10003784:	05400404 	movi	r21,16
10003788:	acc0810e 	bge	r21,r19,10003990 <___vfprintf_internal_r+0x15dc>
1000378c:	01440074 	movhi	r5,4097
10003790:	2946dd84 	addi	r5,r5,7030
10003794:	d9412c15 	stw	r5,1200(sp)
10003798:	01c001c4 	movi	r7,7
1000379c:	00000306 	br	100037ac <___vfprintf_internal_r+0x13f8>
100037a0:	8c400204 	addi	r17,r17,8
100037a4:	9cfffc04 	addi	r19,r19,-16
100037a8:	acc07c0e 	bge	r21,r19,1000399c <___vfprintf_internal_r+0x15e8>
100037ac:	18c00404 	addi	r3,r3,16
100037b0:	84000044 	addi	r16,r16,1
100037b4:	8d000015 	stw	r20,0(r17)
100037b8:	8d400115 	stw	r21,4(r17)
100037bc:	d8c12015 	stw	r3,1152(sp)
100037c0:	dc011f15 	stw	r16,1148(sp)
100037c4:	3c3ff60e 	bge	r7,r16,100037a0 <__alt_data_end+0xf80037a0>
100037c8:	b809883a 	mov	r4,r23
100037cc:	b00b883a 	mov	r5,r22
100037d0:	d9811e04 	addi	r6,sp,1144
100037d4:	d9c13d15 	stw	r7,1268(sp)
100037d8:	00097f40 	call	100097f4 <__sprint_r>
100037dc:	d9c13d17 	ldw	r7,1268(sp)
100037e0:	103c0c1e 	bne	r2,zero,10002814 <__alt_data_end+0xf8002814>
100037e4:	d8c12017 	ldw	r3,1152(sp)
100037e8:	dc011f17 	ldw	r16,1148(sp)
100037ec:	dc400404 	addi	r17,sp,16
100037f0:	003fec06 	br	100037a4 <__alt_data_end+0xf80037a4>
100037f4:	00800084 	movi	r2,2
100037f8:	9546b03a 	or	r3,r18,r21
100037fc:	003d7d06 	br	10002df4 <__alt_data_end+0xf8002df4>
10003800:	10803fcc 	andi	r2,r2,255
10003804:	1080201c 	xori	r2,r2,128
10003808:	10bfe004 	addi	r2,r2,-128
1000380c:	01000c04 	movi	r4,48
10003810:	1101d726 	beq	r2,r4,10003f70 <___vfprintf_internal_r+0x1bbc>
10003814:	d9413117 	ldw	r5,1220(sp)
10003818:	d8812817 	ldw	r2,1184(sp)
1000381c:	193fffc5 	stb	r4,-1(r3)
10003820:	297fffc4 	addi	r5,r5,-1
10003824:	d9413115 	stw	r5,1220(sp)
10003828:	1163c83a 	sub	r17,r2,r5
1000382c:	003c5c06 	br	100029a0 <__alt_data_end+0xf80029a0>
10003830:	b809883a 	mov	r4,r23
10003834:	b00b883a 	mov	r5,r22
10003838:	d9811e04 	addi	r6,sp,1144
1000383c:	00097f40 	call	100097f4 <__sprint_r>
10003840:	103bf41e 	bne	r2,zero,10002814 <__alt_data_end+0xf8002814>
10003844:	d8c12017 	ldw	r3,1152(sp)
10003848:	da000404 	addi	r8,sp,16
1000384c:	d9413117 	ldw	r5,1220(sp)
10003850:	d9013417 	ldw	r4,1232(sp)
10003854:	d8812617 	ldw	r2,1176(sp)
10003858:	2923883a 	add	r17,r5,r4
1000385c:	d9413317 	ldw	r5,1228(sp)
10003860:	11400216 	blt	r2,r5,1000386c <___vfprintf_internal_r+0x14b8>
10003864:	e100004c 	andi	r4,fp,1
10003868:	20000d26 	beq	r4,zero,100038a0 <___vfprintf_internal_r+0x14ec>
1000386c:	d9013817 	ldw	r4,1248(sp)
10003870:	d9413517 	ldw	r5,1236(sp)
10003874:	1907883a 	add	r3,r3,r4
10003878:	d9011f17 	ldw	r4,1148(sp)
1000387c:	41400015 	stw	r5,0(r8)
10003880:	d9413817 	ldw	r5,1248(sp)
10003884:	21000044 	addi	r4,r4,1
10003888:	d8c12015 	stw	r3,1152(sp)
1000388c:	41400115 	stw	r5,4(r8)
10003890:	d9011f15 	stw	r4,1148(sp)
10003894:	014001c4 	movi	r5,7
10003898:	2901fd16 	blt	r5,r4,10004090 <___vfprintf_internal_r+0x1cdc>
1000389c:	42000204 	addi	r8,r8,8
100038a0:	d9013317 	ldw	r4,1228(sp)
100038a4:	2085c83a 	sub	r2,r4,r2
100038a8:	8449c83a 	sub	r4,r16,r17
100038ac:	1021883a 	mov	r16,r2
100038b0:	2080010e 	bge	r4,r2,100038b8 <___vfprintf_internal_r+0x1504>
100038b4:	2021883a 	mov	r16,r4
100038b8:	04000a0e 	bge	zero,r16,100038e4 <___vfprintf_internal_r+0x1530>
100038bc:	d9011f17 	ldw	r4,1148(sp)
100038c0:	1c07883a 	add	r3,r3,r16
100038c4:	44400015 	stw	r17,0(r8)
100038c8:	21000044 	addi	r4,r4,1
100038cc:	44000115 	stw	r16,4(r8)
100038d0:	d8c12015 	stw	r3,1152(sp)
100038d4:	d9011f15 	stw	r4,1148(sp)
100038d8:	014001c4 	movi	r5,7
100038dc:	29020916 	blt	r5,r4,10004104 <___vfprintf_internal_r+0x1d50>
100038e0:	42000204 	addi	r8,r8,8
100038e4:	80020116 	blt	r16,zero,100040ec <___vfprintf_internal_r+0x1d38>
100038e8:	1421c83a 	sub	r16,r2,r16
100038ec:	043cc40e 	bge	zero,r16,10002c00 <__alt_data_end+0xf8002c00>
100038f0:	04400404 	movi	r17,16
100038f4:	d8811f17 	ldw	r2,1148(sp)
100038f8:	8c3f110e 	bge	r17,r16,10003540 <__alt_data_end+0xf8003540>
100038fc:	01440074 	movhi	r5,4097
10003900:	2946dd84 	addi	r5,r5,7030
10003904:	d9412c15 	stw	r5,1200(sp)
10003908:	04c001c4 	movi	r19,7
1000390c:	00000306 	br	1000391c <___vfprintf_internal_r+0x1568>
10003910:	42000204 	addi	r8,r8,8
10003914:	843ffc04 	addi	r16,r16,-16
10003918:	8c3f0c0e 	bge	r17,r16,1000354c <__alt_data_end+0xf800354c>
1000391c:	18c00404 	addi	r3,r3,16
10003920:	10800044 	addi	r2,r2,1
10003924:	45000015 	stw	r20,0(r8)
10003928:	44400115 	stw	r17,4(r8)
1000392c:	d8c12015 	stw	r3,1152(sp)
10003930:	d8811f15 	stw	r2,1148(sp)
10003934:	98bff60e 	bge	r19,r2,10003910 <__alt_data_end+0xf8003910>
10003938:	b809883a 	mov	r4,r23
1000393c:	b00b883a 	mov	r5,r22
10003940:	d9811e04 	addi	r6,sp,1144
10003944:	00097f40 	call	100097f4 <__sprint_r>
10003948:	103bb21e 	bne	r2,zero,10002814 <__alt_data_end+0xf8002814>
1000394c:	d8c12017 	ldw	r3,1152(sp)
10003950:	d8811f17 	ldw	r2,1148(sp)
10003954:	da000404 	addi	r8,sp,16
10003958:	003fee06 	br	10003914 <__alt_data_end+0xf8003914>
1000395c:	e088703a 	and	r4,fp,r2
10003960:	203ec01e 	bne	r4,zero,10003464 <__alt_data_end+0xf8003464>
10003964:	dc011f17 	ldw	r16,1148(sp)
10003968:	d9013117 	ldw	r4,1220(sp)
1000396c:	40800115 	stw	r2,4(r8)
10003970:	84000044 	addi	r16,r16,1
10003974:	41000015 	stw	r4,0(r8)
10003978:	d8c12015 	stw	r3,1152(sp)
1000397c:	dc011f15 	stw	r16,1148(sp)
10003980:	008001c4 	movi	r2,7
10003984:	14000e16 	blt	r2,r16,100039c0 <___vfprintf_internal_r+0x160c>
10003988:	44400204 	addi	r17,r8,8
1000398c:	003ee006 	br	10003510 <__alt_data_end+0xf8003510>
10003990:	01040074 	movhi	r4,4097
10003994:	2106dd84 	addi	r4,r4,7030
10003998:	d9012c15 	stw	r4,1200(sp)
1000399c:	d8812c17 	ldw	r2,1200(sp)
100039a0:	1cc7883a 	add	r3,r3,r19
100039a4:	84000044 	addi	r16,r16,1
100039a8:	88800015 	stw	r2,0(r17)
100039ac:	8cc00115 	stw	r19,4(r17)
100039b0:	d8c12015 	stw	r3,1152(sp)
100039b4:	dc011f15 	stw	r16,1148(sp)
100039b8:	008001c4 	movi	r2,7
100039bc:	143ed30e 	bge	r2,r16,1000350c <__alt_data_end+0xf800350c>
100039c0:	b809883a 	mov	r4,r23
100039c4:	b00b883a 	mov	r5,r22
100039c8:	d9811e04 	addi	r6,sp,1144
100039cc:	00097f40 	call	100097f4 <__sprint_r>
100039d0:	103b901e 	bne	r2,zero,10002814 <__alt_data_end+0xf8002814>
100039d4:	d8c12017 	ldw	r3,1152(sp)
100039d8:	dc011f17 	ldw	r16,1148(sp)
100039dc:	dc400404 	addi	r17,sp,16
100039e0:	003ecb06 	br	10003510 <__alt_data_end+0xf8003510>
100039e4:	b809883a 	mov	r4,r23
100039e8:	b00b883a 	mov	r5,r22
100039ec:	d9811e04 	addi	r6,sp,1144
100039f0:	00097f40 	call	100097f4 <__sprint_r>
100039f4:	103b871e 	bne	r2,zero,10002814 <__alt_data_end+0xf8002814>
100039f8:	d8c12017 	ldw	r3,1152(sp)
100039fc:	dc011f17 	ldw	r16,1148(sp)
10003a00:	da000404 	addi	r8,sp,16
10003a04:	003ea206 	br	10003490 <__alt_data_end+0xf8003490>
10003a08:	b809883a 	mov	r4,r23
10003a0c:	b00b883a 	mov	r5,r22
10003a10:	d9811e04 	addi	r6,sp,1144
10003a14:	00097f40 	call	100097f4 <__sprint_r>
10003a18:	103b7e1e 	bne	r2,zero,10002814 <__alt_data_end+0xf8002814>
10003a1c:	d8c12017 	ldw	r3,1152(sp)
10003a20:	dc011f17 	ldw	r16,1148(sp)
10003a24:	dc400404 	addi	r17,sp,16
10003a28:	003ea406 	br	100034bc <__alt_data_end+0xf80034bc>
10003a2c:	b809883a 	mov	r4,r23
10003a30:	b00b883a 	mov	r5,r22
10003a34:	d9811e04 	addi	r6,sp,1144
10003a38:	00097f40 	call	100097f4 <__sprint_r>
10003a3c:	103b751e 	bne	r2,zero,10002814 <__alt_data_end+0xf8002814>
10003a40:	d8c12017 	ldw	r3,1152(sp)
10003a44:	da000404 	addi	r8,sp,16
10003a48:	003c3706 	br	10002b28 <__alt_data_end+0xf8002b28>
10003a4c:	04a5c83a 	sub	r18,zero,r18
10003a50:	9004c03a 	cmpne	r2,r18,zero
10003a54:	056bc83a 	sub	r21,zero,r21
10003a58:	a8abc83a 	sub	r21,r21,r2
10003a5c:	04c00b44 	movi	r19,45
10003a60:	dcc12785 	stb	r19,1182(sp)
10003a64:	da413215 	stw	r9,1224(sp)
10003a68:	00800044 	movi	r2,1
10003a6c:	9546b03a 	or	r3,r18,r21
10003a70:	003bb106 	br	10002938 <__alt_data_end+0xf8002938>
10003a74:	da013f15 	stw	r8,1276(sp)
10003a78:	da413e15 	stw	r9,1272(sp)
10003a7c:	00094500 	call	10009450 <__fpclassifyd>
10003a80:	da013f17 	ldw	r8,1276(sp)
10003a84:	da413e17 	ldw	r9,1272(sp)
10003a88:	1000e526 	beq	r2,zero,10003e20 <___vfprintf_internal_r+0x1a6c>
10003a8c:	04fff7c4 	movi	r19,-33
10003a90:	00bfffc4 	movi	r2,-1
10003a94:	84e6703a 	and	r19,r16,r19
10003a98:	48822926 	beq	r9,r2,10004340 <___vfprintf_internal_r+0x1f8c>
10003a9c:	008011c4 	movi	r2,71
10003aa0:	98821626 	beq	r19,r2,100042fc <___vfprintf_internal_r+0x1f48>
10003aa4:	d9013917 	ldw	r4,1252(sp)
10003aa8:	e0c04014 	ori	r3,fp,256
10003aac:	d8c12d15 	stw	r3,1204(sp)
10003ab0:	20021f16 	blt	r4,zero,10004330 <___vfprintf_internal_r+0x1f7c>
10003ab4:	dc413917 	ldw	r17,1252(sp)
10003ab8:	d8012b05 	stb	zero,1196(sp)
10003abc:	00801984 	movi	r2,102
10003ac0:	80814d26 	beq	r16,r2,10003ff8 <___vfprintf_internal_r+0x1c44>
10003ac4:	00801184 	movi	r2,70
10003ac8:	80814b26 	beq	r16,r2,10003ff8 <___vfprintf_internal_r+0x1c44>
10003acc:	00801144 	movi	r2,69
10003ad0:	98821d26 	beq	r19,r2,10004348 <___vfprintf_internal_r+0x1f94>
10003ad4:	482b883a 	mov	r21,r9
10003ad8:	d8812604 	addi	r2,sp,1176
10003adc:	d8800115 	stw	r2,4(sp)
10003ae0:	d9413717 	ldw	r5,1244(sp)
10003ae4:	d8812504 	addi	r2,sp,1172
10003ae8:	d8800215 	stw	r2,8(sp)
10003aec:	d8812104 	addi	r2,sp,1156
10003af0:	dd400015 	stw	r21,0(sp)
10003af4:	d8800315 	stw	r2,12(sp)
10003af8:	b809883a 	mov	r4,r23
10003afc:	880d883a 	mov	r6,r17
10003b00:	01c00084 	movi	r7,2
10003b04:	da013f15 	stw	r8,1276(sp)
10003b08:	da413e15 	stw	r9,1272(sp)
10003b0c:	000482c0 	call	1000482c <_dtoa_r>
10003b10:	d8813115 	stw	r2,1220(sp)
10003b14:	008019c4 	movi	r2,103
10003b18:	da013f17 	ldw	r8,1276(sp)
10003b1c:	da413e17 	ldw	r9,1272(sp)
10003b20:	80800226 	beq	r16,r2,10003b2c <___vfprintf_internal_r+0x1778>
10003b24:	008011c4 	movi	r2,71
10003b28:	8081451e 	bne	r16,r2,10004040 <___vfprintf_internal_r+0x1c8c>
10003b2c:	e080004c 	andi	r2,fp,1
10003b30:	10021e26 	beq	r2,zero,100043ac <___vfprintf_internal_r+0x1ff8>
10003b34:	d8c13117 	ldw	r3,1220(sp)
10003b38:	1d55883a 	add	r10,r3,r21
10003b3c:	d9013717 	ldw	r4,1244(sp)
10003b40:	880b883a 	mov	r5,r17
10003b44:	000d883a 	mov	r6,zero
10003b48:	000f883a 	mov	r7,zero
10003b4c:	da013f15 	stw	r8,1276(sp)
10003b50:	da413e15 	stw	r9,1272(sp)
10003b54:	da813d15 	stw	r10,1268(sp)
10003b58:	000d56c0 	call	1000d56c <__eqdf2>
10003b5c:	da013f17 	ldw	r8,1276(sp)
10003b60:	da413e17 	ldw	r9,1272(sp)
10003b64:	da813d17 	ldw	r10,1268(sp)
10003b68:	1001a126 	beq	r2,zero,100041f0 <___vfprintf_internal_r+0x1e3c>
10003b6c:	d8812117 	ldw	r2,1156(sp)
10003b70:	1280062e 	bgeu	r2,r10,10003b8c <___vfprintf_internal_r+0x17d8>
10003b74:	01000c04 	movi	r4,48
10003b78:	10c00044 	addi	r3,r2,1
10003b7c:	d8c12115 	stw	r3,1156(sp)
10003b80:	11000005 	stb	r4,0(r2)
10003b84:	d8812117 	ldw	r2,1156(sp)
10003b88:	12bffb36 	bltu	r2,r10,10003b78 <__alt_data_end+0xf8003b78>
10003b8c:	d8c13117 	ldw	r3,1220(sp)
10003b90:	10c5c83a 	sub	r2,r2,r3
10003b94:	d8813315 	stw	r2,1228(sp)
10003b98:	008011c4 	movi	r2,71
10003b9c:	98818926 	beq	r19,r2,100041c4 <___vfprintf_internal_r+0x1e10>
10003ba0:	00801944 	movi	r2,101
10003ba4:	14023c0e 	bge	r2,r16,10004498 <___vfprintf_internal_r+0x20e4>
10003ba8:	d8c12617 	ldw	r3,1176(sp)
10003bac:	00801984 	movi	r2,102
10003bb0:	d8c13415 	stw	r3,1232(sp)
10003bb4:	8081ef26 	beq	r16,r2,10004374 <___vfprintf_internal_r+0x1fc0>
10003bb8:	d8c13417 	ldw	r3,1232(sp)
10003bbc:	d9013317 	ldw	r4,1228(sp)
10003bc0:	1901e316 	blt	r3,r4,10004350 <___vfprintf_internal_r+0x1f9c>
10003bc4:	e080004c 	andi	r2,fp,1
10003bc8:	1001f426 	beq	r2,zero,1000439c <___vfprintf_internal_r+0x1fe8>
10003bcc:	d8c13417 	ldw	r3,1232(sp)
10003bd0:	1c400044 	addi	r17,r3,1
10003bd4:	8839883a 	mov	fp,r17
10003bd8:	8801e416 	blt	r17,zero,1000436c <___vfprintf_internal_r+0x1fb8>
10003bdc:	dd412b07 	ldb	r21,1196(sp)
10003be0:	a801701e 	bne	r21,zero,100041a4 <___vfprintf_internal_r+0x1df0>
10003be4:	df012b15 	stw	fp,1196(sp)
10003be8:	dcc12783 	ldbu	r19,1182(sp)
10003bec:	df012d17 	ldw	fp,1204(sp)
10003bf0:	d8013215 	stw	zero,1224(sp)
10003bf4:	dc812d15 	stw	r18,1204(sp)
10003bf8:	003b6e06 	br	100029b4 <__alt_data_end+0xf80029b4>
10003bfc:	e080040c 	andi	r2,fp,16
10003c00:	1000b51e 	bne	r2,zero,10003ed8 <___vfprintf_internal_r+0x1b24>
10003c04:	e080100c 	andi	r2,fp,64
10003c08:	10015b26 	beq	r2,zero,10004178 <___vfprintf_internal_r+0x1dc4>
10003c0c:	d9012d17 	ldw	r4,1204(sp)
10003c10:	d9412f17 	ldw	r5,1212(sp)
10003c14:	20800017 	ldw	r2,0(r4)
10003c18:	21000104 	addi	r4,r4,4
10003c1c:	d9012d15 	stw	r4,1204(sp)
10003c20:	1140000d 	sth	r5,0(r2)
10003c24:	003a2006 	br	100024a8 <__alt_data_end+0xf80024a8>
10003c28:	e0c0100c 	andi	r3,fp,64
10003c2c:	1800a226 	beq	r3,zero,10003eb8 <___vfprintf_internal_r+0x1b04>
10003c30:	d8c12d17 	ldw	r3,1204(sp)
10003c34:	1480000b 	ldhu	r18,0(r2)
10003c38:	002b883a 	mov	r21,zero
10003c3c:	18c00104 	addi	r3,r3,4
10003c40:	d8c12d15 	stw	r3,1204(sp)
10003c44:	0005883a 	mov	r2,zero
10003c48:	9007883a 	mov	r3,r18
10003c4c:	003c6906 	br	10002df4 <__alt_data_end+0xf8002df4>
10003c50:	e0c0100c 	andi	r3,fp,64
10003c54:	18009026 	beq	r3,zero,10003e98 <___vfprintf_internal_r+0x1ae4>
10003c58:	1480000b 	ldhu	r18,0(r2)
10003c5c:	d8812d17 	ldw	r2,1204(sp)
10003c60:	002b883a 	mov	r21,zero
10003c64:	9007883a 	mov	r3,r18
10003c68:	10800104 	addi	r2,r2,4
10003c6c:	d8812d15 	stw	r2,1204(sp)
10003c70:	00800044 	movi	r2,1
10003c74:	003c5f06 	br	10002df4 <__alt_data_end+0xf8002df4>
10003c78:	e0c0100c 	andi	r3,fp,64
10003c7c:	18008026 	beq	r3,zero,10003e80 <___vfprintf_internal_r+0x1acc>
10003c80:	d9012d17 	ldw	r4,1204(sp)
10003c84:	1480000b 	ldhu	r18,0(r2)
10003c88:	002b883a 	mov	r21,zero
10003c8c:	21000104 	addi	r4,r4,4
10003c90:	d9012d15 	stw	r4,1204(sp)
10003c94:	003c7906 	br	10002e7c <__alt_data_end+0xf8002e7c>
10003c98:	e080100c 	andi	r2,fp,64
10003c9c:	10007126 	beq	r2,zero,10003e64 <___vfprintf_internal_r+0x1ab0>
10003ca0:	1c80000f 	ldh	r18,0(r3)
10003ca4:	d8812d17 	ldw	r2,1204(sp)
10003ca8:	902bd7fa 	srai	r21,r18,31
10003cac:	10800104 	addi	r2,r2,4
10003cb0:	d8812d15 	stw	r2,1204(sp)
10003cb4:	a805883a 	mov	r2,r21
10003cb8:	003b1a06 	br	10002924 <__alt_data_end+0xf8002924>
10003cbc:	e4000007 	ldb	r16,0(fp)
10003cc0:	e005883a 	mov	r2,fp
10003cc4:	003a2306 	br	10002554 <__alt_data_end+0xf8002554>
10003cc8:	00800084 	movi	r2,2
10003ccc:	003c4906 	br	10002df4 <__alt_data_end+0xf8002df4>
10003cd0:	01040074 	movhi	r4,4097
10003cd4:	2106dd84 	addi	r4,r4,7030
10003cd8:	d9012c15 	stw	r4,1200(sp)
10003cdc:	d9012c17 	ldw	r4,1200(sp)
10003ce0:	1c47883a 	add	r3,r3,r17
10003ce4:	10800044 	addi	r2,r2,1
10003ce8:	41000015 	stw	r4,0(r8)
10003cec:	44400115 	stw	r17,4(r8)
10003cf0:	d8c12015 	stw	r3,1152(sp)
10003cf4:	d8811f15 	stw	r2,1148(sp)
10003cf8:	010001c4 	movi	r4,7
10003cfc:	20becc16 	blt	r4,r2,10003830 <__alt_data_end+0xf8003830>
10003d00:	42000204 	addi	r8,r8,8
10003d04:	003ed106 	br	1000384c <__alt_data_end+0xf800384c>
10003d08:	01040074 	movhi	r4,4097
10003d0c:	2106dd84 	addi	r4,r4,7030
10003d10:	d9012c15 	stw	r4,1200(sp)
10003d14:	003ba306 	br	10002ba4 <__alt_data_end+0xf8002ba4>
10003d18:	b809883a 	mov	r4,r23
10003d1c:	b00b883a 	mov	r5,r22
10003d20:	d9811e04 	addi	r6,sp,1144
10003d24:	00097f40 	call	100097f4 <__sprint_r>
10003d28:	103aba1e 	bne	r2,zero,10002814 <__alt_data_end+0xf8002814>
10003d2c:	d8c12017 	ldw	r3,1152(sp)
10003d30:	da000404 	addi	r8,sp,16
10003d34:	003d6c06 	br	100032e8 <__alt_data_end+0xf80032e8>
10003d38:	d8811f17 	ldw	r2,1148(sp)
10003d3c:	01440074 	movhi	r5,4097
10003d40:	01000044 	movi	r4,1
10003d44:	18c00044 	addi	r3,r3,1
10003d48:	10800044 	addi	r2,r2,1
10003d4c:	2946dd04 	addi	r5,r5,7028
10003d50:	41000115 	stw	r4,4(r8)
10003d54:	41400015 	stw	r5,0(r8)
10003d58:	d8c12015 	stw	r3,1152(sp)
10003d5c:	d8811f15 	stw	r2,1148(sp)
10003d60:	010001c4 	movi	r4,7
10003d64:	20806716 	blt	r4,r2,10003f04 <___vfprintf_internal_r+0x1b50>
10003d68:	42000204 	addi	r8,r8,8
10003d6c:	8000041e 	bne	r16,zero,10003d80 <___vfprintf_internal_r+0x19cc>
10003d70:	d8813317 	ldw	r2,1228(sp)
10003d74:	1000021e 	bne	r2,zero,10003d80 <___vfprintf_internal_r+0x19cc>
10003d78:	e080004c 	andi	r2,fp,1
10003d7c:	103ba026 	beq	r2,zero,10002c00 <__alt_data_end+0xf8002c00>
10003d80:	d9013817 	ldw	r4,1248(sp)
10003d84:	d8811f17 	ldw	r2,1148(sp)
10003d88:	d9413517 	ldw	r5,1236(sp)
10003d8c:	1907883a 	add	r3,r3,r4
10003d90:	10800044 	addi	r2,r2,1
10003d94:	41000115 	stw	r4,4(r8)
10003d98:	41400015 	stw	r5,0(r8)
10003d9c:	d8c12015 	stw	r3,1152(sp)
10003da0:	d8811f15 	stw	r2,1148(sp)
10003da4:	010001c4 	movi	r4,7
10003da8:	20815716 	blt	r4,r2,10004308 <___vfprintf_internal_r+0x1f54>
10003dac:	42000204 	addi	r8,r8,8
10003db0:	0421c83a 	sub	r16,zero,r16
10003db4:	0400810e 	bge	zero,r16,10003fbc <___vfprintf_internal_r+0x1c08>
10003db8:	04400404 	movi	r17,16
10003dbc:	8c00bd0e 	bge	r17,r16,100040b4 <___vfprintf_internal_r+0x1d00>
10003dc0:	01440074 	movhi	r5,4097
10003dc4:	2946dd84 	addi	r5,r5,7030
10003dc8:	d9412c15 	stw	r5,1200(sp)
10003dcc:	04c001c4 	movi	r19,7
10003dd0:	00000306 	br	10003de0 <___vfprintf_internal_r+0x1a2c>
10003dd4:	42000204 	addi	r8,r8,8
10003dd8:	843ffc04 	addi	r16,r16,-16
10003ddc:	8c00b80e 	bge	r17,r16,100040c0 <___vfprintf_internal_r+0x1d0c>
10003de0:	18c00404 	addi	r3,r3,16
10003de4:	10800044 	addi	r2,r2,1
10003de8:	45000015 	stw	r20,0(r8)
10003dec:	44400115 	stw	r17,4(r8)
10003df0:	d8c12015 	stw	r3,1152(sp)
10003df4:	d8811f15 	stw	r2,1148(sp)
10003df8:	98bff60e 	bge	r19,r2,10003dd4 <__alt_data_end+0xf8003dd4>
10003dfc:	b809883a 	mov	r4,r23
10003e00:	b00b883a 	mov	r5,r22
10003e04:	d9811e04 	addi	r6,sp,1144
10003e08:	00097f40 	call	100097f4 <__sprint_r>
10003e0c:	103a811e 	bne	r2,zero,10002814 <__alt_data_end+0xf8002814>
10003e10:	d8c12017 	ldw	r3,1152(sp)
10003e14:	d8811f17 	ldw	r2,1148(sp)
10003e18:	da000404 	addi	r8,sp,16
10003e1c:	003fee06 	br	10003dd8 <__alt_data_end+0xf8003dd8>
10003e20:	008011c4 	movi	r2,71
10003e24:	1400db16 	blt	r2,r16,10004194 <___vfprintf_internal_r+0x1de0>
10003e28:	01040074 	movhi	r4,4097
10003e2c:	2106cf04 	addi	r4,r4,6972
10003e30:	d9013115 	stw	r4,1220(sp)
10003e34:	00c000c4 	movi	r3,3
10003e38:	00bfdfc4 	movi	r2,-129
10003e3c:	d8c12b15 	stw	r3,1196(sp)
10003e40:	e0b8703a 	and	fp,fp,r2
10003e44:	dcc12783 	ldbu	r19,1182(sp)
10003e48:	dc812d15 	stw	r18,1204(sp)
10003e4c:	1823883a 	mov	r17,r3
10003e50:	d8013215 	stw	zero,1224(sp)
10003e54:	d8013415 	stw	zero,1232(sp)
10003e58:	003ad606 	br	100029b4 <__alt_data_end+0xf80029b4>
10003e5c:	4823883a 	mov	r17,r9
10003e60:	003cc906 	br	10003188 <__alt_data_end+0xf8003188>
10003e64:	1c800017 	ldw	r18,0(r3)
10003e68:	d8c12d17 	ldw	r3,1204(sp)
10003e6c:	902bd7fa 	srai	r21,r18,31
10003e70:	18c00104 	addi	r3,r3,4
10003e74:	d8c12d15 	stw	r3,1204(sp)
10003e78:	a805883a 	mov	r2,r21
10003e7c:	003aa906 	br	10002924 <__alt_data_end+0xf8002924>
10003e80:	d9412d17 	ldw	r5,1204(sp)
10003e84:	14800017 	ldw	r18,0(r2)
10003e88:	002b883a 	mov	r21,zero
10003e8c:	29400104 	addi	r5,r5,4
10003e90:	d9412d15 	stw	r5,1204(sp)
10003e94:	003bf906 	br	10002e7c <__alt_data_end+0xf8002e7c>
10003e98:	d8c12d17 	ldw	r3,1204(sp)
10003e9c:	14800017 	ldw	r18,0(r2)
10003ea0:	002b883a 	mov	r21,zero
10003ea4:	18c00104 	addi	r3,r3,4
10003ea8:	d8c12d15 	stw	r3,1204(sp)
10003eac:	00800044 	movi	r2,1
10003eb0:	9007883a 	mov	r3,r18
10003eb4:	003bcf06 	br	10002df4 <__alt_data_end+0xf8002df4>
10003eb8:	d9012d17 	ldw	r4,1204(sp)
10003ebc:	14800017 	ldw	r18,0(r2)
10003ec0:	002b883a 	mov	r21,zero
10003ec4:	21000104 	addi	r4,r4,4
10003ec8:	d9012d15 	stw	r4,1204(sp)
10003ecc:	0005883a 	mov	r2,zero
10003ed0:	9007883a 	mov	r3,r18
10003ed4:	003bc706 	br	10002df4 <__alt_data_end+0xf8002df4>
10003ed8:	d9412d17 	ldw	r5,1204(sp)
10003edc:	d8c12f17 	ldw	r3,1212(sp)
10003ee0:	28800017 	ldw	r2,0(r5)
10003ee4:	29400104 	addi	r5,r5,4
10003ee8:	d9412d15 	stw	r5,1204(sp)
10003eec:	10c00015 	stw	r3,0(r2)
10003ef0:	00396d06 	br	100024a8 <__alt_data_end+0xf80024a8>
10003ef4:	01040074 	movhi	r4,4097
10003ef8:	2106cd04 	addi	r4,r4,6964
10003efc:	d9013115 	stw	r4,1220(sp)
10003f00:	003ba206 	br	10002d8c <__alt_data_end+0xf8002d8c>
10003f04:	b809883a 	mov	r4,r23
10003f08:	b00b883a 	mov	r5,r22
10003f0c:	d9811e04 	addi	r6,sp,1144
10003f10:	00097f40 	call	100097f4 <__sprint_r>
10003f14:	103a3f1e 	bne	r2,zero,10002814 <__alt_data_end+0xf8002814>
10003f18:	dc012617 	ldw	r16,1176(sp)
10003f1c:	d8c12017 	ldw	r3,1152(sp)
10003f20:	da000404 	addi	r8,sp,16
10003f24:	003f9106 	br	10003d6c <__alt_data_end+0xf8003d6c>
10003f28:	e0800044 	addi	r2,fp,1
10003f2c:	9cc00814 	ori	r19,r19,32
10003f30:	e4000047 	ldb	r16,1(fp)
10003f34:	00398706 	br	10002554 <__alt_data_end+0xf8002554>
10003f38:	d8812e17 	ldw	r2,1208(sp)
10003f3c:	d8c12d15 	stw	r3,1204(sp)
10003f40:	0085c83a 	sub	r2,zero,r2
10003f44:	d8812e15 	stw	r2,1208(sp)
10003f48:	e005883a 	mov	r2,fp
10003f4c:	003a3a06 	br	10002838 <__alt_data_end+0xf8002838>
10003f50:	b809883a 	mov	r4,r23
10003f54:	b00b883a 	mov	r5,r22
10003f58:	d9811e04 	addi	r6,sp,1144
10003f5c:	00097f40 	call	100097f4 <__sprint_r>
10003f60:	103a2c1e 	bne	r2,zero,10002814 <__alt_data_end+0xf8002814>
10003f64:	d8c12017 	ldw	r3,1152(sp)
10003f68:	da000404 	addi	r8,sp,16
10003f6c:	003cf006 	br	10003330 <__alt_data_end+0xf8003330>
10003f70:	d8c12817 	ldw	r3,1184(sp)
10003f74:	d9013117 	ldw	r4,1220(sp)
10003f78:	1923c83a 	sub	r17,r3,r4
10003f7c:	003a8806 	br	100029a0 <__alt_data_end+0xf80029a0>
10003f80:	da013f15 	stw	r8,1276(sp)
10003f84:	000231c0 	call	1000231c <strlen>
10003f88:	1023883a 	mov	r17,r2
10003f8c:	da013f17 	ldw	r8,1276(sp)
10003f90:	883c7f0e 	bge	r17,zero,10003190 <__alt_data_end+0xf8003190>
10003f94:	0005883a 	mov	r2,zero
10003f98:	003c7d06 	br	10003190 <__alt_data_end+0xf8003190>
10003f9c:	b809883a 	mov	r4,r23
10003fa0:	b00b883a 	mov	r5,r22
10003fa4:	d9811e04 	addi	r6,sp,1144
10003fa8:	00097f40 	call	100097f4 <__sprint_r>
10003fac:	103a191e 	bne	r2,zero,10002814 <__alt_data_end+0xf8002814>
10003fb0:	d8c12017 	ldw	r3,1152(sp)
10003fb4:	d8811f17 	ldw	r2,1148(sp)
10003fb8:	da000404 	addi	r8,sp,16
10003fbc:	d9413317 	ldw	r5,1228(sp)
10003fc0:	d9013117 	ldw	r4,1220(sp)
10003fc4:	10800044 	addi	r2,r2,1
10003fc8:	28c7883a 	add	r3,r5,r3
10003fcc:	41000015 	stw	r4,0(r8)
10003fd0:	41400115 	stw	r5,4(r8)
10003fd4:	d8c12015 	stw	r3,1152(sp)
10003fd8:	d8811f15 	stw	r2,1148(sp)
10003fdc:	010001c4 	movi	r4,7
10003fe0:	20bb060e 	bge	r4,r2,10002bfc <__alt_data_end+0xf8002bfc>
10003fe4:	003d6206 	br	10003570 <__alt_data_end+0xf8003570>
10003fe8:	01040074 	movhi	r4,4097
10003fec:	2106e184 	addi	r4,r4,7046
10003ff0:	d9013615 	stw	r4,1240(sp)
10003ff4:	003aa306 	br	10002a84 <__alt_data_end+0xf8002a84>
10003ff8:	d8812604 	addi	r2,sp,1176
10003ffc:	d8800115 	stw	r2,4(sp)
10004000:	d9413717 	ldw	r5,1244(sp)
10004004:	d8812504 	addi	r2,sp,1172
10004008:	d8800215 	stw	r2,8(sp)
1000400c:	d8812104 	addi	r2,sp,1156
10004010:	da400015 	stw	r9,0(sp)
10004014:	d8800315 	stw	r2,12(sp)
10004018:	b809883a 	mov	r4,r23
1000401c:	880d883a 	mov	r6,r17
10004020:	01c000c4 	movi	r7,3
10004024:	da013f15 	stw	r8,1276(sp)
10004028:	da413e15 	stw	r9,1272(sp)
1000402c:	000482c0 	call	1000482c <_dtoa_r>
10004030:	da413e17 	ldw	r9,1272(sp)
10004034:	da013f17 	ldw	r8,1276(sp)
10004038:	d8813115 	stw	r2,1220(sp)
1000403c:	482b883a 	mov	r21,r9
10004040:	d8c13117 	ldw	r3,1220(sp)
10004044:	00801184 	movi	r2,70
10004048:	1d55883a 	add	r10,r3,r21
1000404c:	98bebb1e 	bne	r19,r2,10003b3c <__alt_data_end+0xf8003b3c>
10004050:	19000007 	ldb	r4,0(r3)
10004054:	00800c04 	movi	r2,48
10004058:	2080dd26 	beq	r4,r2,100043d0 <___vfprintf_internal_r+0x201c>
1000405c:	d8c12617 	ldw	r3,1176(sp)
10004060:	50d5883a 	add	r10,r10,r3
10004064:	003eb506 	br	10003b3c <__alt_data_end+0xf8003b3c>
10004068:	0023883a 	mov	r17,zero
1000406c:	003d9b06 	br	100036dc <__alt_data_end+0xf80036dc>
10004070:	b809883a 	mov	r4,r23
10004074:	b00b883a 	mov	r5,r22
10004078:	d9811e04 	addi	r6,sp,1144
1000407c:	00097f40 	call	100097f4 <__sprint_r>
10004080:	1039e41e 	bne	r2,zero,10002814 <__alt_data_end+0xf8002814>
10004084:	d8c12017 	ldw	r3,1152(sp)
10004088:	da000404 	addi	r8,sp,16
1000408c:	003d9206 	br	100036d8 <__alt_data_end+0xf80036d8>
10004090:	b809883a 	mov	r4,r23
10004094:	b00b883a 	mov	r5,r22
10004098:	d9811e04 	addi	r6,sp,1144
1000409c:	00097f40 	call	100097f4 <__sprint_r>
100040a0:	1039dc1e 	bne	r2,zero,10002814 <__alt_data_end+0xf8002814>
100040a4:	d8812617 	ldw	r2,1176(sp)
100040a8:	d8c12017 	ldw	r3,1152(sp)
100040ac:	da000404 	addi	r8,sp,16
100040b0:	003dfb06 	br	100038a0 <__alt_data_end+0xf80038a0>
100040b4:	01040074 	movhi	r4,4097
100040b8:	2106dd84 	addi	r4,r4,7030
100040bc:	d9012c15 	stw	r4,1200(sp)
100040c0:	d9012c17 	ldw	r4,1200(sp)
100040c4:	1c07883a 	add	r3,r3,r16
100040c8:	10800044 	addi	r2,r2,1
100040cc:	41000015 	stw	r4,0(r8)
100040d0:	44000115 	stw	r16,4(r8)
100040d4:	d8c12015 	stw	r3,1152(sp)
100040d8:	d8811f15 	stw	r2,1148(sp)
100040dc:	010001c4 	movi	r4,7
100040e0:	20bfae16 	blt	r4,r2,10003f9c <__alt_data_end+0xf8003f9c>
100040e4:	42000204 	addi	r8,r8,8
100040e8:	003fb406 	br	10003fbc <__alt_data_end+0xf8003fbc>
100040ec:	0021883a 	mov	r16,zero
100040f0:	003dfd06 	br	100038e8 <__alt_data_end+0xf80038e8>
100040f4:	01440074 	movhi	r5,4097
100040f8:	2946e184 	addi	r5,r5,7046
100040fc:	d9413615 	stw	r5,1240(sp)
10004100:	003ae306 	br	10002c90 <__alt_data_end+0xf8002c90>
10004104:	b809883a 	mov	r4,r23
10004108:	b00b883a 	mov	r5,r22
1000410c:	d9811e04 	addi	r6,sp,1144
10004110:	00097f40 	call	100097f4 <__sprint_r>
10004114:	1039bf1e 	bne	r2,zero,10002814 <__alt_data_end+0xf8002814>
10004118:	d8812617 	ldw	r2,1176(sp)
1000411c:	d9413317 	ldw	r5,1228(sp)
10004120:	d8c12017 	ldw	r3,1152(sp)
10004124:	da000404 	addi	r8,sp,16
10004128:	2885c83a 	sub	r2,r5,r2
1000412c:	003ded06 	br	100038e4 <__alt_data_end+0xf80038e4>
10004130:	00800184 	movi	r2,6
10004134:	1240012e 	bgeu	r2,r9,1000413c <___vfprintf_internal_r+0x1d88>
10004138:	1013883a 	mov	r9,r2
1000413c:	4823883a 	mov	r17,r9
10004140:	4805883a 	mov	r2,r9
10004144:	4800b216 	blt	r9,zero,10004410 <___vfprintf_internal_r+0x205c>
10004148:	01440074 	movhi	r5,4097
1000414c:	2946db04 	addi	r5,r5,7020
10004150:	d8812b15 	stw	r2,1196(sp)
10004154:	dc812d15 	stw	r18,1204(sp)
10004158:	d8013215 	stw	zero,1224(sp)
1000415c:	d8013415 	stw	zero,1232(sp)
10004160:	d9413115 	stw	r5,1220(sp)
10004164:	0005883a 	mov	r2,zero
10004168:	003a1906 	br	100029d0 <__alt_data_end+0xf80029d0>
1000416c:	04c00b44 	movi	r19,45
10004170:	dcc12785 	stb	r19,1182(sp)
10004174:	003b0006 	br	10002d78 <__alt_data_end+0xf8002d78>
10004178:	d8c12d17 	ldw	r3,1204(sp)
1000417c:	d9012f17 	ldw	r4,1212(sp)
10004180:	18800017 	ldw	r2,0(r3)
10004184:	18c00104 	addi	r3,r3,4
10004188:	d8c12d15 	stw	r3,1204(sp)
1000418c:	11000015 	stw	r4,0(r2)
10004190:	0038c506 	br	100024a8 <__alt_data_end+0xf80024a8>
10004194:	01440074 	movhi	r5,4097
10004198:	2946d004 	addi	r5,r5,6976
1000419c:	d9413115 	stw	r5,1220(sp)
100041a0:	003f2406 	br	10003e34 <__alt_data_end+0xf8003e34>
100041a4:	00800b44 	movi	r2,45
100041a8:	d8812785 	stb	r2,1182(sp)
100041ac:	df012b15 	stw	fp,1196(sp)
100041b0:	d8013215 	stw	zero,1224(sp)
100041b4:	df012d17 	ldw	fp,1204(sp)
100041b8:	00800b44 	movi	r2,45
100041bc:	dc812d15 	stw	r18,1204(sp)
100041c0:	003a0006 	br	100029c4 <__alt_data_end+0xf80029c4>
100041c4:	d8c12617 	ldw	r3,1176(sp)
100041c8:	00bfff44 	movi	r2,-3
100041cc:	18800a16 	blt	r3,r2,100041f8 <___vfprintf_internal_r+0x1e44>
100041d0:	48c00916 	blt	r9,r3,100041f8 <___vfprintf_internal_r+0x1e44>
100041d4:	d8c13415 	stw	r3,1232(sp)
100041d8:	040019c4 	movi	r16,103
100041dc:	003e7606 	br	10003bb8 <__alt_data_end+0xf8003bb8>
100041e0:	01040074 	movhi	r4,4097
100041e4:	2106dd84 	addi	r4,r4,7030
100041e8:	d9012c15 	stw	r4,1200(sp)
100041ec:	003c8e06 	br	10003428 <__alt_data_end+0xf8003428>
100041f0:	5005883a 	mov	r2,r10
100041f4:	003e6506 	br	10003b8c <__alt_data_end+0xf8003b8c>
100041f8:	843fff84 	addi	r16,r16,-2
100041fc:	1d7fffc4 	addi	r21,r3,-1
10004200:	dd412615 	stw	r21,1176(sp)
10004204:	dc0122c5 	stb	r16,1163(sp)
10004208:	a8009216 	blt	r21,zero,10004454 <___vfprintf_internal_r+0x20a0>
1000420c:	00800ac4 	movi	r2,43
10004210:	d8812305 	stb	r2,1164(sp)
10004214:	00800244 	movi	r2,9
10004218:	1540660e 	bge	r2,r21,100043b4 <___vfprintf_internal_r+0x2000>
1000421c:	dcc122c4 	addi	r19,sp,1163
10004220:	dc012c15 	stw	r16,1200(sp)
10004224:	4023883a 	mov	r17,r8
10004228:	9821883a 	mov	r16,r19
1000422c:	a809883a 	mov	r4,r21
10004230:	01400284 	movi	r5,10
10004234:	000c2bc0 	call	1000c2bc <__modsi3>
10004238:	10800c04 	addi	r2,r2,48
1000423c:	843fffc4 	addi	r16,r16,-1
10004240:	a809883a 	mov	r4,r21
10004244:	01400284 	movi	r5,10
10004248:	80800005 	stb	r2,0(r16)
1000424c:	000c2680 	call	1000c268 <__divsi3>
10004250:	01000244 	movi	r4,9
10004254:	102b883a 	mov	r21,r2
10004258:	20bff416 	blt	r4,r2,1000422c <__alt_data_end+0xf800422c>
1000425c:	8811883a 	mov	r8,r17
10004260:	10800c04 	addi	r2,r2,48
10004264:	8023883a 	mov	r17,r16
10004268:	897fffc4 	addi	r5,r17,-1
1000426c:	88bfffc5 	stb	r2,-1(r17)
10004270:	dc012c17 	ldw	r16,1200(sp)
10004274:	2cc08a2e 	bgeu	r5,r19,100044a0 <___vfprintf_internal_r+0x20ec>
10004278:	d9812384 	addi	r6,sp,1166
1000427c:	344dc83a 	sub	r6,r6,r17
10004280:	d9012344 	addi	r4,sp,1165
10004284:	998d883a 	add	r6,r19,r6
10004288:	00000106 	br	10004290 <___vfprintf_internal_r+0x1edc>
1000428c:	28800003 	ldbu	r2,0(r5)
10004290:	20800005 	stb	r2,0(r4)
10004294:	21000044 	addi	r4,r4,1
10004298:	29400044 	addi	r5,r5,1
1000429c:	21bffb1e 	bne	r4,r6,1000428c <__alt_data_end+0xf800428c>
100042a0:	d8812304 	addi	r2,sp,1164
100042a4:	1445c83a 	sub	r2,r2,r17
100042a8:	d9412344 	addi	r5,sp,1165
100042ac:	2885883a 	add	r2,r5,r2
100042b0:	14e7c83a 	sub	r19,r2,r19
100042b4:	d8813317 	ldw	r2,1228(sp)
100042b8:	d8c13317 	ldw	r3,1228(sp)
100042bc:	dcc13a15 	stw	r19,1256(sp)
100042c0:	14e3883a 	add	r17,r2,r19
100042c4:	00800044 	movi	r2,1
100042c8:	10c0550e 	bge	r2,r3,10004420 <___vfprintf_internal_r+0x206c>
100042cc:	8c400044 	addi	r17,r17,1
100042d0:	8839883a 	mov	fp,r17
100042d4:	88005016 	blt	r17,zero,10004418 <___vfprintf_internal_r+0x2064>
100042d8:	d8013415 	stw	zero,1232(sp)
100042dc:	003e3f06 	br	10003bdc <__alt_data_end+0xf8003bdc>
100042e0:	da412b15 	stw	r9,1196(sp)
100042e4:	dcc12783 	ldbu	r19,1182(sp)
100042e8:	4823883a 	mov	r17,r9
100042ec:	dc812d15 	stw	r18,1204(sp)
100042f0:	d8013215 	stw	zero,1224(sp)
100042f4:	d8013415 	stw	zero,1232(sp)
100042f8:	0039ae06 	br	100029b4 <__alt_data_end+0xf80029b4>
100042fc:	483de91e 	bne	r9,zero,10003aa4 <__alt_data_end+0xf8003aa4>
10004300:	8813883a 	mov	r9,r17
10004304:	003de706 	br	10003aa4 <__alt_data_end+0xf8003aa4>
10004308:	b809883a 	mov	r4,r23
1000430c:	b00b883a 	mov	r5,r22
10004310:	d9811e04 	addi	r6,sp,1144
10004314:	00097f40 	call	100097f4 <__sprint_r>
10004318:	10393e1e 	bne	r2,zero,10002814 <__alt_data_end+0xf8002814>
1000431c:	dc012617 	ldw	r16,1176(sp)
10004320:	d8c12017 	ldw	r3,1152(sp)
10004324:	d8811f17 	ldw	r2,1148(sp)
10004328:	da000404 	addi	r8,sp,16
1000432c:	003ea006 	br	10003db0 <__alt_data_end+0xf8003db0>
10004330:	00c00b44 	movi	r3,45
10004334:	2460003c 	xorhi	r17,r4,32768
10004338:	d8c12b05 	stb	r3,1196(sp)
1000433c:	003ddf06 	br	10003abc <__alt_data_end+0xf8003abc>
10004340:	02400184 	movi	r9,6
10004344:	003dd706 	br	10003aa4 <__alt_data_end+0xf8003aa4>
10004348:	4d400044 	addi	r21,r9,1
1000434c:	003de206 	br	10003ad8 <__alt_data_end+0xf8003ad8>
10004350:	d8c13417 	ldw	r3,1232(sp)
10004354:	00c0490e 	bge	zero,r3,1000447c <___vfprintf_internal_r+0x20c8>
10004358:	04400044 	movi	r17,1
1000435c:	d9013317 	ldw	r4,1228(sp)
10004360:	8923883a 	add	r17,r17,r4
10004364:	8839883a 	mov	fp,r17
10004368:	883e1c0e 	bge	r17,zero,10003bdc <__alt_data_end+0xf8003bdc>
1000436c:	0039883a 	mov	fp,zero
10004370:	003e1a06 	br	10003bdc <__alt_data_end+0xf8003bdc>
10004374:	00c03b0e 	bge	zero,r3,10004464 <___vfprintf_internal_r+0x20b0>
10004378:	4800021e 	bne	r9,zero,10004384 <___vfprintf_internal_r+0x1fd0>
1000437c:	e080004c 	andi	r2,fp,1
10004380:	10000626 	beq	r2,zero,1000439c <___vfprintf_internal_r+0x1fe8>
10004384:	d8c13417 	ldw	r3,1232(sp)
10004388:	4a400044 	addi	r9,r9,1
1000438c:	1a63883a 	add	r17,r3,r9
10004390:	8839883a 	mov	fp,r17
10004394:	883e110e 	bge	r17,zero,10003bdc <__alt_data_end+0xf8003bdc>
10004398:	003ff406 	br	1000436c <__alt_data_end+0xf800436c>
1000439c:	1839883a 	mov	fp,r3
100043a0:	18004116 	blt	r3,zero,100044a8 <___vfprintf_internal_r+0x20f4>
100043a4:	dc413417 	ldw	r17,1232(sp)
100043a8:	003e0c06 	br	10003bdc <__alt_data_end+0xf8003bdc>
100043ac:	d8812117 	ldw	r2,1156(sp)
100043b0:	003df606 	br	10003b8c <__alt_data_end+0xf8003b8c>
100043b4:	00800c04 	movi	r2,48
100043b8:	a8c00c04 	addi	r3,r21,48
100043bc:	d8812345 	stb	r2,1165(sp)
100043c0:	d8c12385 	stb	r3,1166(sp)
100043c4:	d88123c4 	addi	r2,sp,1167
100043c8:	dcc122c4 	addi	r19,sp,1163
100043cc:	003fb806 	br	100042b0 <__alt_data_end+0xf80042b0>
100043d0:	d9013717 	ldw	r4,1244(sp)
100043d4:	880b883a 	mov	r5,r17
100043d8:	000d883a 	mov	r6,zero
100043dc:	000f883a 	mov	r7,zero
100043e0:	da013f15 	stw	r8,1276(sp)
100043e4:	da413e15 	stw	r9,1272(sp)
100043e8:	da813d15 	stw	r10,1268(sp)
100043ec:	000d56c0 	call	1000d56c <__eqdf2>
100043f0:	da013f17 	ldw	r8,1276(sp)
100043f4:	da413e17 	ldw	r9,1272(sp)
100043f8:	da813d17 	ldw	r10,1268(sp)
100043fc:	103f1726 	beq	r2,zero,1000405c <__alt_data_end+0xf800405c>
10004400:	00800044 	movi	r2,1
10004404:	1547c83a 	sub	r3,r2,r21
10004408:	d8c12615 	stw	r3,1176(sp)
1000440c:	003f1406 	br	10004060 <__alt_data_end+0xf8004060>
10004410:	0005883a 	mov	r2,zero
10004414:	003f4c06 	br	10004148 <__alt_data_end+0xf8004148>
10004418:	0039883a 	mov	fp,zero
1000441c:	003fae06 	br	100042d8 <__alt_data_end+0xf80042d8>
10004420:	e084703a 	and	r2,fp,r2
10004424:	103faa26 	beq	r2,zero,100042d0 <__alt_data_end+0xf80042d0>
10004428:	003fa806 	br	100042cc <__alt_data_end+0xf80042cc>
1000442c:	d9412d17 	ldw	r5,1204(sp)
10004430:	2a400017 	ldw	r9,0(r5)
10004434:	28c00104 	addi	r3,r5,4
10004438:	d8c12d15 	stw	r3,1204(sp)
1000443c:	483ebc0e 	bge	r9,zero,10003f30 <__alt_data_end+0xf8003f30>
10004440:	027fffc4 	movi	r9,-1
10004444:	e4000047 	ldb	r16,1(fp)
10004448:	00384206 	br	10002554 <__alt_data_end+0xf8002554>
1000444c:	043fffc4 	movi	r16,-1
10004450:	0038ce06 	br	1000278c <__alt_data_end+0xf800278c>
10004454:	00800b44 	movi	r2,45
10004458:	056bc83a 	sub	r21,zero,r21
1000445c:	d8812305 	stb	r2,1164(sp)
10004460:	003f6c06 	br	10004214 <__alt_data_end+0xf8004214>
10004464:	4800081e 	bne	r9,zero,10004488 <___vfprintf_internal_r+0x20d4>
10004468:	e080004c 	andi	r2,fp,1
1000446c:	1000061e 	bne	r2,zero,10004488 <___vfprintf_internal_r+0x20d4>
10004470:	07000044 	movi	fp,1
10004474:	e023883a 	mov	r17,fp
10004478:	003dd806 	br	10003bdc <__alt_data_end+0xf8003bdc>
1000447c:	04400084 	movi	r17,2
10004480:	88e3c83a 	sub	r17,r17,r3
10004484:	003fb506 	br	1000435c <__alt_data_end+0xf800435c>
10004488:	4c400084 	addi	r17,r9,2
1000448c:	8839883a 	mov	fp,r17
10004490:	883dd20e 	bge	r17,zero,10003bdc <__alt_data_end+0xf8003bdc>
10004494:	003fb506 	br	1000436c <__alt_data_end+0xf800436c>
10004498:	d8c12617 	ldw	r3,1176(sp)
1000449c:	003f5706 	br	100041fc <__alt_data_end+0xf80041fc>
100044a0:	d8812344 	addi	r2,sp,1165
100044a4:	003f8206 	br	100042b0 <__alt_data_end+0xf80042b0>
100044a8:	0039883a 	mov	fp,zero
100044ac:	003fbd06 	br	100043a4 <__alt_data_end+0xf80043a4>

100044b0 <__vfprintf_internal>:
100044b0:	2007883a 	mov	r3,r4
100044b4:	01040074 	movhi	r4,4097
100044b8:	210e3904 	addi	r4,r4,14564
100044bc:	21000017 	ldw	r4,0(r4)
100044c0:	2805883a 	mov	r2,r5
100044c4:	300f883a 	mov	r7,r6
100044c8:	180b883a 	mov	r5,r3
100044cc:	100d883a 	mov	r6,r2
100044d0:	00023b41 	jmpi	100023b4 <___vfprintf_internal_r>

100044d4 <__swsetup_r>:
100044d4:	00840074 	movhi	r2,4097
100044d8:	defffd04 	addi	sp,sp,-12
100044dc:	108e3904 	addi	r2,r2,14564
100044e0:	dc400115 	stw	r17,4(sp)
100044e4:	2023883a 	mov	r17,r4
100044e8:	11000017 	ldw	r4,0(r2)
100044ec:	dc000015 	stw	r16,0(sp)
100044f0:	dfc00215 	stw	ra,8(sp)
100044f4:	2821883a 	mov	r16,r5
100044f8:	20000226 	beq	r4,zero,10004504 <__swsetup_r+0x30>
100044fc:	20c00e17 	ldw	r3,56(r4)
10004500:	18002e26 	beq	r3,zero,100045bc <__swsetup_r+0xe8>
10004504:	8080030b 	ldhu	r2,12(r16)
10004508:	10c0020c 	andi	r3,r2,8
1000450c:	100d883a 	mov	r6,r2
10004510:	18000f26 	beq	r3,zero,10004550 <__swsetup_r+0x7c>
10004514:	80c00417 	ldw	r3,16(r16)
10004518:	18001526 	beq	r3,zero,10004570 <__swsetup_r+0x9c>
1000451c:	1100004c 	andi	r4,r2,1
10004520:	20001c1e 	bne	r4,zero,10004594 <__swsetup_r+0xc0>
10004524:	1080008c 	andi	r2,r2,2
10004528:	1000261e 	bne	r2,zero,100045c4 <__swsetup_r+0xf0>
1000452c:	80800517 	ldw	r2,20(r16)
10004530:	80800215 	stw	r2,8(r16)
10004534:	18001c26 	beq	r3,zero,100045a8 <__swsetup_r+0xd4>
10004538:	0005883a 	mov	r2,zero
1000453c:	dfc00217 	ldw	ra,8(sp)
10004540:	dc400117 	ldw	r17,4(sp)
10004544:	dc000017 	ldw	r16,0(sp)
10004548:	dec00304 	addi	sp,sp,12
1000454c:	f800283a 	ret
10004550:	3080040c 	andi	r2,r6,16
10004554:	10001726 	beq	r2,zero,100045b4 <__swsetup_r+0xe0>
10004558:	3080010c 	andi	r2,r6,4
1000455c:	10001b1e 	bne	r2,zero,100045cc <__swsetup_r+0xf8>
10004560:	80c00417 	ldw	r3,16(r16)
10004564:	30800214 	ori	r2,r6,8
10004568:	8080030d 	sth	r2,12(r16)
1000456c:	183feb1e 	bne	r3,zero,1000451c <__alt_data_end+0xf800451c>
10004570:	1140a00c 	andi	r5,r2,640
10004574:	01008004 	movi	r4,512
10004578:	293fe826 	beq	r5,r4,1000451c <__alt_data_end+0xf800451c>
1000457c:	8809883a 	mov	r4,r17
10004580:	800b883a 	mov	r5,r16
10004584:	00070680 	call	10007068 <__smakebuf_r>
10004588:	8080030b 	ldhu	r2,12(r16)
1000458c:	80c00417 	ldw	r3,16(r16)
10004590:	003fe206 	br	1000451c <__alt_data_end+0xf800451c>
10004594:	80800517 	ldw	r2,20(r16)
10004598:	80000215 	stw	zero,8(r16)
1000459c:	0085c83a 	sub	r2,zero,r2
100045a0:	80800615 	stw	r2,24(r16)
100045a4:	183fe41e 	bne	r3,zero,10004538 <__alt_data_end+0xf8004538>
100045a8:	8080030b 	ldhu	r2,12(r16)
100045ac:	1080200c 	andi	r2,r2,128
100045b0:	103fe226 	beq	r2,zero,1000453c <__alt_data_end+0xf800453c>
100045b4:	00bfffc4 	movi	r2,-1
100045b8:	003fe006 	br	1000453c <__alt_data_end+0xf800453c>
100045bc:	00065100 	call	10006510 <__sinit>
100045c0:	003fd006 	br	10004504 <__alt_data_end+0xf8004504>
100045c4:	0005883a 	mov	r2,zero
100045c8:	003fd906 	br	10004530 <__alt_data_end+0xf8004530>
100045cc:	81400c17 	ldw	r5,48(r16)
100045d0:	28000626 	beq	r5,zero,100045ec <__swsetup_r+0x118>
100045d4:	80801004 	addi	r2,r16,64
100045d8:	28800326 	beq	r5,r2,100045e8 <__swsetup_r+0x114>
100045dc:	8809883a 	mov	r4,r17
100045e0:	00066840 	call	10006684 <_free_r>
100045e4:	8180030b 	ldhu	r6,12(r16)
100045e8:	80000c15 	stw	zero,48(r16)
100045ec:	80c00417 	ldw	r3,16(r16)
100045f0:	00bff6c4 	movi	r2,-37
100045f4:	118c703a 	and	r6,r2,r6
100045f8:	80000115 	stw	zero,4(r16)
100045fc:	80c00015 	stw	r3,0(r16)
10004600:	003fd806 	br	10004564 <__alt_data_end+0xf8004564>

10004604 <quorem>:
10004604:	defff204 	addi	sp,sp,-56
10004608:	ddc00b15 	stw	r23,44(sp)
1000460c:	20800417 	ldw	r2,16(r4)
10004610:	2dc00417 	ldw	r23,16(r5)
10004614:	dfc00d15 	stw	ra,52(sp)
10004618:	df000c15 	stw	fp,48(sp)
1000461c:	dd800a15 	stw	r22,40(sp)
10004620:	dd400915 	stw	r21,36(sp)
10004624:	dd000815 	stw	r20,32(sp)
10004628:	dcc00715 	stw	r19,28(sp)
1000462c:	dc800615 	stw	r18,24(sp)
10004630:	dc400515 	stw	r17,20(sp)
10004634:	dc000415 	stw	r16,16(sp)
10004638:	15c07a16 	blt	r2,r23,10004824 <quorem+0x220>
1000463c:	bdffffc4 	addi	r23,r23,-1
10004640:	bde9883a 	add	r20,r23,r23
10004644:	28c00504 	addi	r3,r5,20
10004648:	a529883a 	add	r20,r20,r20
1000464c:	1d39883a 	add	fp,r3,r20
10004650:	24c00504 	addi	r19,r4,20
10004654:	d9400215 	stw	r5,8(sp)
10004658:	9d29883a 	add	r20,r19,r20
1000465c:	e1400017 	ldw	r5,0(fp)
10004660:	d9000015 	stw	r4,0(sp)
10004664:	a1000017 	ldw	r4,0(r20)
10004668:	29400044 	addi	r5,r5,1
1000466c:	d8c00115 	stw	r3,4(sp)
10004670:	dd000315 	stw	r20,12(sp)
10004674:	000c3180 	call	1000c318 <__udivsi3>
10004678:	1025883a 	mov	r18,r2
1000467c:	10003026 	beq	r2,zero,10004740 <quorem+0x13c>
10004680:	dc400117 	ldw	r17,4(sp)
10004684:	9829883a 	mov	r20,r19
10004688:	002d883a 	mov	r22,zero
1000468c:	0021883a 	mov	r16,zero
10004690:	8d400017 	ldw	r21,0(r17)
10004694:	900b883a 	mov	r5,r18
10004698:	8c400104 	addi	r17,r17,4
1000469c:	a93fffcc 	andi	r4,r21,65535
100046a0:	000c3280 	call	1000c328 <__mulsi3>
100046a4:	a808d43a 	srli	r4,r21,16
100046a8:	900b883a 	mov	r5,r18
100046ac:	b0ad883a 	add	r22,r22,r2
100046b0:	000c3280 	call	1000c328 <__mulsi3>
100046b4:	a1000017 	ldw	r4,0(r20)
100046b8:	b00cd43a 	srli	r6,r22,16
100046bc:	b0ffffcc 	andi	r3,r22,65535
100046c0:	217fffcc 	andi	r5,r4,65535
100046c4:	2c21883a 	add	r16,r5,r16
100046c8:	80c7c83a 	sub	r3,r16,r3
100046cc:	2008d43a 	srli	r4,r4,16
100046d0:	3085883a 	add	r2,r6,r2
100046d4:	1821d43a 	srai	r16,r3,16
100046d8:	117fffcc 	andi	r5,r2,65535
100046dc:	2149c83a 	sub	r4,r4,r5
100046e0:	2421883a 	add	r16,r4,r16
100046e4:	8008943a 	slli	r4,r16,16
100046e8:	18ffffcc 	andi	r3,r3,65535
100046ec:	102cd43a 	srli	r22,r2,16
100046f0:	20c8b03a 	or	r4,r4,r3
100046f4:	a1000015 	stw	r4,0(r20)
100046f8:	8021d43a 	srai	r16,r16,16
100046fc:	a5000104 	addi	r20,r20,4
10004700:	e47fe32e 	bgeu	fp,r17,10004690 <__alt_data_end+0xf8004690>
10004704:	d8c00317 	ldw	r3,12(sp)
10004708:	18800017 	ldw	r2,0(r3)
1000470c:	10000c1e 	bne	r2,zero,10004740 <quorem+0x13c>
10004710:	18bfff04 	addi	r2,r3,-4
10004714:	9880082e 	bgeu	r19,r2,10004738 <quorem+0x134>
10004718:	18ffff17 	ldw	r3,-4(r3)
1000471c:	18000326 	beq	r3,zero,1000472c <quorem+0x128>
10004720:	00000506 	br	10004738 <quorem+0x134>
10004724:	10c00017 	ldw	r3,0(r2)
10004728:	1800031e 	bne	r3,zero,10004738 <quorem+0x134>
1000472c:	10bfff04 	addi	r2,r2,-4
10004730:	bdffffc4 	addi	r23,r23,-1
10004734:	98bffb36 	bltu	r19,r2,10004724 <__alt_data_end+0xf8004724>
10004738:	d8c00017 	ldw	r3,0(sp)
1000473c:	1dc00415 	stw	r23,16(r3)
10004740:	d9000017 	ldw	r4,0(sp)
10004744:	d9400217 	ldw	r5,8(sp)
10004748:	00087e40 	call	100087e4 <__mcmp>
1000474c:	10002816 	blt	r2,zero,100047f0 <quorem+0x1ec>
10004750:	dc400117 	ldw	r17,4(sp)
10004754:	94800044 	addi	r18,r18,1
10004758:	980d883a 	mov	r6,r19
1000475c:	0007883a 	mov	r3,zero
10004760:	31000017 	ldw	r4,0(r6)
10004764:	89400017 	ldw	r5,0(r17)
10004768:	31800104 	addi	r6,r6,4
1000476c:	20bfffcc 	andi	r2,r4,65535
10004770:	10c7883a 	add	r3,r2,r3
10004774:	28bfffcc 	andi	r2,r5,65535
10004778:	1885c83a 	sub	r2,r3,r2
1000477c:	280ad43a 	srli	r5,r5,16
10004780:	2008d43a 	srli	r4,r4,16
10004784:	1007d43a 	srai	r3,r2,16
10004788:	10bfffcc 	andi	r2,r2,65535
1000478c:	2149c83a 	sub	r4,r4,r5
10004790:	20c9883a 	add	r4,r4,r3
10004794:	200a943a 	slli	r5,r4,16
10004798:	8c400104 	addi	r17,r17,4
1000479c:	2007d43a 	srai	r3,r4,16
100047a0:	2884b03a 	or	r2,r5,r2
100047a4:	30bfff15 	stw	r2,-4(r6)
100047a8:	e47fed2e 	bgeu	fp,r17,10004760 <__alt_data_end+0xf8004760>
100047ac:	bdc5883a 	add	r2,r23,r23
100047b0:	1085883a 	add	r2,r2,r2
100047b4:	9887883a 	add	r3,r19,r2
100047b8:	18800017 	ldw	r2,0(r3)
100047bc:	10000c1e 	bne	r2,zero,100047f0 <quorem+0x1ec>
100047c0:	18bfff04 	addi	r2,r3,-4
100047c4:	9880082e 	bgeu	r19,r2,100047e8 <quorem+0x1e4>
100047c8:	18ffff17 	ldw	r3,-4(r3)
100047cc:	18000326 	beq	r3,zero,100047dc <quorem+0x1d8>
100047d0:	00000506 	br	100047e8 <quorem+0x1e4>
100047d4:	10c00017 	ldw	r3,0(r2)
100047d8:	1800031e 	bne	r3,zero,100047e8 <quorem+0x1e4>
100047dc:	10bfff04 	addi	r2,r2,-4
100047e0:	bdffffc4 	addi	r23,r23,-1
100047e4:	98bffb36 	bltu	r19,r2,100047d4 <__alt_data_end+0xf80047d4>
100047e8:	d8c00017 	ldw	r3,0(sp)
100047ec:	1dc00415 	stw	r23,16(r3)
100047f0:	9005883a 	mov	r2,r18
100047f4:	dfc00d17 	ldw	ra,52(sp)
100047f8:	df000c17 	ldw	fp,48(sp)
100047fc:	ddc00b17 	ldw	r23,44(sp)
10004800:	dd800a17 	ldw	r22,40(sp)
10004804:	dd400917 	ldw	r21,36(sp)
10004808:	dd000817 	ldw	r20,32(sp)
1000480c:	dcc00717 	ldw	r19,28(sp)
10004810:	dc800617 	ldw	r18,24(sp)
10004814:	dc400517 	ldw	r17,20(sp)
10004818:	dc000417 	ldw	r16,16(sp)
1000481c:	dec00e04 	addi	sp,sp,56
10004820:	f800283a 	ret
10004824:	0005883a 	mov	r2,zero
10004828:	003ff206 	br	100047f4 <__alt_data_end+0xf80047f4>

1000482c <_dtoa_r>:
1000482c:	20801017 	ldw	r2,64(r4)
10004830:	deffde04 	addi	sp,sp,-136
10004834:	dd401d15 	stw	r21,116(sp)
10004838:	dcc01b15 	stw	r19,108(sp)
1000483c:	dc801a15 	stw	r18,104(sp)
10004840:	dc401915 	stw	r17,100(sp)
10004844:	dc001815 	stw	r16,96(sp)
10004848:	dfc02115 	stw	ra,132(sp)
1000484c:	df002015 	stw	fp,128(sp)
10004850:	ddc01f15 	stw	r23,124(sp)
10004854:	dd801e15 	stw	r22,120(sp)
10004858:	dd001c15 	stw	r20,112(sp)
1000485c:	d9c00315 	stw	r7,12(sp)
10004860:	2021883a 	mov	r16,r4
10004864:	302b883a 	mov	r21,r6
10004868:	2825883a 	mov	r18,r5
1000486c:	dc402417 	ldw	r17,144(sp)
10004870:	3027883a 	mov	r19,r6
10004874:	10000826 	beq	r2,zero,10004898 <_dtoa_r+0x6c>
10004878:	21801117 	ldw	r6,68(r4)
1000487c:	00c00044 	movi	r3,1
10004880:	100b883a 	mov	r5,r2
10004884:	1986983a 	sll	r3,r3,r6
10004888:	11800115 	stw	r6,4(r2)
1000488c:	10c00215 	stw	r3,8(r2)
10004890:	0007f100 	call	10007f10 <_Bfree>
10004894:	80001015 	stw	zero,64(r16)
10004898:	a8002d16 	blt	r21,zero,10004950 <_dtoa_r+0x124>
1000489c:	88000015 	stw	zero,0(r17)
100048a0:	a8dffc2c 	andhi	r3,r21,32752
100048a4:	009ffc34 	movhi	r2,32752
100048a8:	18801b26 	beq	r3,r2,10004918 <_dtoa_r+0xec>
100048ac:	9009883a 	mov	r4,r18
100048b0:	980b883a 	mov	r5,r19
100048b4:	000d883a 	mov	r6,zero
100048b8:	000f883a 	mov	r7,zero
100048bc:	000d56c0 	call	1000d56c <__eqdf2>
100048c0:	10002a1e 	bne	r2,zero,1000496c <_dtoa_r+0x140>
100048c4:	d8c02317 	ldw	r3,140(sp)
100048c8:	d9002517 	ldw	r4,148(sp)
100048cc:	00800044 	movi	r2,1
100048d0:	18800015 	stw	r2,0(r3)
100048d4:	2001a226 	beq	r4,zero,10004f60 <_dtoa_r+0x734>
100048d8:	00840074 	movhi	r2,4097
100048dc:	1086dd44 	addi	r2,r2,7029
100048e0:	20800015 	stw	r2,0(r4)
100048e4:	10bfffc4 	addi	r2,r2,-1
100048e8:	dfc02117 	ldw	ra,132(sp)
100048ec:	df002017 	ldw	fp,128(sp)
100048f0:	ddc01f17 	ldw	r23,124(sp)
100048f4:	dd801e17 	ldw	r22,120(sp)
100048f8:	dd401d17 	ldw	r21,116(sp)
100048fc:	dd001c17 	ldw	r20,112(sp)
10004900:	dcc01b17 	ldw	r19,108(sp)
10004904:	dc801a17 	ldw	r18,104(sp)
10004908:	dc401917 	ldw	r17,100(sp)
1000490c:	dc001817 	ldw	r16,96(sp)
10004910:	dec02204 	addi	sp,sp,136
10004914:	f800283a 	ret
10004918:	d8c02317 	ldw	r3,140(sp)
1000491c:	0089c3c4 	movi	r2,9999
10004920:	18800015 	stw	r2,0(r3)
10004924:	90017c26 	beq	r18,zero,10004f18 <_dtoa_r+0x6ec>
10004928:	00840074 	movhi	r2,4097
1000492c:	1086e904 	addi	r2,r2,7076
10004930:	d9002517 	ldw	r4,148(sp)
10004934:	203fec26 	beq	r4,zero,100048e8 <__alt_data_end+0xf80048e8>
10004938:	10c000c7 	ldb	r3,3(r2)
1000493c:	18017d1e 	bne	r3,zero,10004f34 <_dtoa_r+0x708>
10004940:	10c000c4 	addi	r3,r2,3
10004944:	d9802517 	ldw	r6,148(sp)
10004948:	30c00015 	stw	r3,0(r6)
1000494c:	003fe606 	br	100048e8 <__alt_data_end+0xf80048e8>
10004950:	04e00034 	movhi	r19,32768
10004954:	9cffffc4 	addi	r19,r19,-1
10004958:	00800044 	movi	r2,1
1000495c:	ace6703a 	and	r19,r21,r19
10004960:	88800015 	stw	r2,0(r17)
10004964:	982b883a 	mov	r21,r19
10004968:	003fcd06 	br	100048a0 <__alt_data_end+0xf80048a0>
1000496c:	d8800204 	addi	r2,sp,8
10004970:	a822d53a 	srli	r17,r21,20
10004974:	d8800015 	stw	r2,0(sp)
10004978:	8009883a 	mov	r4,r16
1000497c:	900b883a 	mov	r5,r18
10004980:	980d883a 	mov	r6,r19
10004984:	d9c00104 	addi	r7,sp,4
10004988:	0008b580 	call	10008b58 <__d2b>
1000498c:	1039883a 	mov	fp,r2
10004990:	88016a1e 	bne	r17,zero,10004f3c <_dtoa_r+0x710>
10004994:	dd000217 	ldw	r20,8(sp)
10004998:	dc400117 	ldw	r17,4(sp)
1000499c:	00befbc4 	movi	r2,-1041
100049a0:	a463883a 	add	r17,r20,r17
100049a4:	8882ea16 	blt	r17,r2,10005550 <_dtoa_r+0xd24>
100049a8:	00bf0384 	movi	r2,-1010
100049ac:	1445c83a 	sub	r2,r2,r17
100049b0:	89010484 	addi	r4,r17,1042
100049b4:	a8aa983a 	sll	r21,r21,r2
100049b8:	9108d83a 	srl	r4,r18,r4
100049bc:	a908b03a 	or	r4,r21,r4
100049c0:	000ea440 	call	1000ea44 <__floatunsidf>
100049c4:	017f8434 	movhi	r5,65040
100049c8:	01800044 	movi	r6,1
100049cc:	1009883a 	mov	r4,r2
100049d0:	194b883a 	add	r5,r3,r5
100049d4:	8c7fffc4 	addi	r17,r17,-1
100049d8:	d9800f15 	stw	r6,60(sp)
100049dc:	000d883a 	mov	r6,zero
100049e0:	01cffe34 	movhi	r7,16376
100049e4:	000e01c0 	call	1000e01c <__subdf3>
100049e8:	0198dbf4 	movhi	r6,25455
100049ec:	01cff4f4 	movhi	r7,16339
100049f0:	1009883a 	mov	r4,r2
100049f4:	180b883a 	mov	r5,r3
100049f8:	3190d844 	addi	r6,r6,17249
100049fc:	39e1e9c4 	addi	r7,r7,-30809
10004a00:	000d7b00 	call	1000d7b0 <__muldf3>
10004a04:	01a2d874 	movhi	r6,35681
10004a08:	01cff1f4 	movhi	r7,16327
10004a0c:	180b883a 	mov	r5,r3
10004a10:	31b22cc4 	addi	r6,r6,-14157
10004a14:	39e28a04 	addi	r7,r7,-30168
10004a18:	1009883a 	mov	r4,r2
10004a1c:	000c3500 	call	1000c350 <__adddf3>
10004a20:	8809883a 	mov	r4,r17
10004a24:	102d883a 	mov	r22,r2
10004a28:	182b883a 	mov	r21,r3
10004a2c:	000e9740 	call	1000e974 <__floatsidf>
10004a30:	019427f4 	movhi	r6,20639
10004a34:	01cff4f4 	movhi	r7,16339
10004a38:	1009883a 	mov	r4,r2
10004a3c:	180b883a 	mov	r5,r3
10004a40:	319e7ec4 	addi	r6,r6,31227
10004a44:	39d104c4 	addi	r7,r7,17427
10004a48:	000d7b00 	call	1000d7b0 <__muldf3>
10004a4c:	b009883a 	mov	r4,r22
10004a50:	a80b883a 	mov	r5,r21
10004a54:	100d883a 	mov	r6,r2
10004a58:	180f883a 	mov	r7,r3
10004a5c:	000c3500 	call	1000c350 <__adddf3>
10004a60:	1009883a 	mov	r4,r2
10004a64:	180b883a 	mov	r5,r3
10004a68:	102d883a 	mov	r22,r2
10004a6c:	182b883a 	mov	r21,r3
10004a70:	000e8ec0 	call	1000e8ec <__fixdfsi>
10004a74:	b009883a 	mov	r4,r22
10004a78:	a80b883a 	mov	r5,r21
10004a7c:	000d883a 	mov	r6,zero
10004a80:	000f883a 	mov	r7,zero
10004a84:	d8800515 	stw	r2,20(sp)
10004a88:	000d6d00 	call	1000d6d0 <__ledf2>
10004a8c:	10023116 	blt	r2,zero,10005354 <_dtoa_r+0xb28>
10004a90:	d8c00517 	ldw	r3,20(sp)
10004a94:	00800584 	movi	r2,22
10004a98:	10c21f36 	bltu	r2,r3,10005318 <_dtoa_r+0xaec>
10004a9c:	180490fa 	slli	r2,r3,3
10004aa0:	00c40074 	movhi	r3,4097
10004aa4:	18c70504 	addi	r3,r3,7188
10004aa8:	1885883a 	add	r2,r3,r2
10004aac:	11000017 	ldw	r4,0(r2)
10004ab0:	11400117 	ldw	r5,4(r2)
10004ab4:	900d883a 	mov	r6,r18
10004ab8:	980f883a 	mov	r7,r19
10004abc:	000d5f00 	call	1000d5f0 <__gedf2>
10004ac0:	0082a70e 	bge	zero,r2,10005560 <_dtoa_r+0xd34>
10004ac4:	d9000517 	ldw	r4,20(sp)
10004ac8:	d8000c15 	stw	zero,48(sp)
10004acc:	213fffc4 	addi	r4,r4,-1
10004ad0:	d9000515 	stw	r4,20(sp)
10004ad4:	a463c83a 	sub	r17,r20,r17
10004ad8:	8dbfffc4 	addi	r22,r17,-1
10004adc:	b0021916 	blt	r22,zero,10005344 <_dtoa_r+0xb18>
10004ae0:	d8000815 	stw	zero,32(sp)
10004ae4:	d8800517 	ldw	r2,20(sp)
10004ae8:	10020e16 	blt	r2,zero,10005324 <_dtoa_r+0xaf8>
10004aec:	b0ad883a 	add	r22,r22,r2
10004af0:	d8800a15 	stw	r2,40(sp)
10004af4:	d8000915 	stw	zero,36(sp)
10004af8:	d8c00317 	ldw	r3,12(sp)
10004afc:	00800244 	movi	r2,9
10004b00:	10c11a36 	bltu	r2,r3,10004f6c <_dtoa_r+0x740>
10004b04:	00800144 	movi	r2,5
10004b08:	10c4fc0e 	bge	r2,r3,10005efc <_dtoa_r+0x16d0>
10004b0c:	18ffff04 	addi	r3,r3,-4
10004b10:	d8c00315 	stw	r3,12(sp)
10004b14:	0029883a 	mov	r20,zero
10004b18:	d9800317 	ldw	r6,12(sp)
10004b1c:	008000c4 	movi	r2,3
10004b20:	3083bd26 	beq	r6,r2,10005a18 <_dtoa_r+0x11ec>
10004b24:	1183670e 	bge	r2,r6,100058c4 <_dtoa_r+0x1098>
10004b28:	d8c00317 	ldw	r3,12(sp)
10004b2c:	00800104 	movi	r2,4
10004b30:	1882e726 	beq	r3,r2,100056d0 <_dtoa_r+0xea4>
10004b34:	00800144 	movi	r2,5
10004b38:	1884f21e 	bne	r3,r2,10005f04 <_dtoa_r+0x16d8>
10004b3c:	00800044 	movi	r2,1
10004b40:	d8800b15 	stw	r2,44(sp)
10004b44:	d8c02217 	ldw	r3,136(sp)
10004b48:	d9000517 	ldw	r4,20(sp)
10004b4c:	1907883a 	add	r3,r3,r4
10004b50:	19800044 	addi	r6,r3,1
10004b54:	d8c00d15 	stw	r3,52(sp)
10004b58:	d9800615 	stw	r6,24(sp)
10004b5c:	0183c30e 	bge	zero,r6,10005a6c <_dtoa_r+0x1240>
10004b60:	d9800617 	ldw	r6,24(sp)
10004b64:	3023883a 	mov	r17,r6
10004b68:	80001115 	stw	zero,68(r16)
10004b6c:	008005c4 	movi	r2,23
10004b70:	1184f62e 	bgeu	r2,r6,10005f4c <_dtoa_r+0x1720>
10004b74:	00c00044 	movi	r3,1
10004b78:	00800104 	movi	r2,4
10004b7c:	1085883a 	add	r2,r2,r2
10004b80:	11000504 	addi	r4,r2,20
10004b84:	180b883a 	mov	r5,r3
10004b88:	18c00044 	addi	r3,r3,1
10004b8c:	313ffb2e 	bgeu	r6,r4,10004b7c <__alt_data_end+0xf8004b7c>
10004b90:	81401115 	stw	r5,68(r16)
10004b94:	8009883a 	mov	r4,r16
10004b98:	0007e680 	call	10007e68 <_Balloc>
10004b9c:	d8800715 	stw	r2,28(sp)
10004ba0:	80801015 	stw	r2,64(r16)
10004ba4:	00800384 	movi	r2,14
10004ba8:	1440fd36 	bltu	r2,r17,10004fa0 <_dtoa_r+0x774>
10004bac:	a000fc26 	beq	r20,zero,10004fa0 <_dtoa_r+0x774>
10004bb0:	d8800517 	ldw	r2,20(sp)
10004bb4:	0083b90e 	bge	zero,r2,10005a9c <_dtoa_r+0x1270>
10004bb8:	d8c00517 	ldw	r3,20(sp)
10004bbc:	108003cc 	andi	r2,r2,15
10004bc0:	100490fa 	slli	r2,r2,3
10004bc4:	182fd13a 	srai	r23,r3,4
10004bc8:	00c40074 	movhi	r3,4097
10004bcc:	18c70504 	addi	r3,r3,7188
10004bd0:	1885883a 	add	r2,r3,r2
10004bd4:	b8c0040c 	andi	r3,r23,16
10004bd8:	12c00017 	ldw	r11,0(r2)
10004bdc:	12800117 	ldw	r10,4(r2)
10004be0:	18039726 	beq	r3,zero,10005a40 <_dtoa_r+0x1214>
10004be4:	00840074 	movhi	r2,4097
10004be8:	1086fb04 	addi	r2,r2,7148
10004bec:	11800817 	ldw	r6,32(r2)
10004bf0:	11c00917 	ldw	r7,36(r2)
10004bf4:	9009883a 	mov	r4,r18
10004bf8:	980b883a 	mov	r5,r19
10004bfc:	da801615 	stw	r10,88(sp)
10004c00:	dac01515 	stw	r11,84(sp)
10004c04:	000cbec0 	call	1000cbec <__divdf3>
10004c08:	da801617 	ldw	r10,88(sp)
10004c0c:	dac01517 	ldw	r11,84(sp)
10004c10:	bdc003cc 	andi	r23,r23,15
10004c14:	044000c4 	movi	r17,3
10004c18:	d8800e15 	stw	r2,56(sp)
10004c1c:	182b883a 	mov	r21,r3
10004c20:	b8001126 	beq	r23,zero,10004c68 <_dtoa_r+0x43c>
10004c24:	05040074 	movhi	r20,4097
10004c28:	a506fb04 	addi	r20,r20,7148
10004c2c:	5805883a 	mov	r2,r11
10004c30:	5007883a 	mov	r3,r10
10004c34:	b980004c 	andi	r6,r23,1
10004c38:	1009883a 	mov	r4,r2
10004c3c:	b82fd07a 	srai	r23,r23,1
10004c40:	180b883a 	mov	r5,r3
10004c44:	30000426 	beq	r6,zero,10004c58 <_dtoa_r+0x42c>
10004c48:	a1800017 	ldw	r6,0(r20)
10004c4c:	a1c00117 	ldw	r7,4(r20)
10004c50:	8c400044 	addi	r17,r17,1
10004c54:	000d7b00 	call	1000d7b0 <__muldf3>
10004c58:	a5000204 	addi	r20,r20,8
10004c5c:	b83ff51e 	bne	r23,zero,10004c34 <__alt_data_end+0xf8004c34>
10004c60:	1017883a 	mov	r11,r2
10004c64:	1815883a 	mov	r10,r3
10004c68:	d9000e17 	ldw	r4,56(sp)
10004c6c:	a80b883a 	mov	r5,r21
10004c70:	580d883a 	mov	r6,r11
10004c74:	500f883a 	mov	r7,r10
10004c78:	000cbec0 	call	1000cbec <__divdf3>
10004c7c:	1029883a 	mov	r20,r2
10004c80:	182b883a 	mov	r21,r3
10004c84:	d9800c17 	ldw	r6,48(sp)
10004c88:	30000626 	beq	r6,zero,10004ca4 <_dtoa_r+0x478>
10004c8c:	a009883a 	mov	r4,r20
10004c90:	a80b883a 	mov	r5,r21
10004c94:	000d883a 	mov	r6,zero
10004c98:	01cffc34 	movhi	r7,16368
10004c9c:	000d6d00 	call	1000d6d0 <__ledf2>
10004ca0:	10043216 	blt	r2,zero,10005d6c <_dtoa_r+0x1540>
10004ca4:	8809883a 	mov	r4,r17
10004ca8:	000e9740 	call	1000e974 <__floatsidf>
10004cac:	1009883a 	mov	r4,r2
10004cb0:	180b883a 	mov	r5,r3
10004cb4:	a00d883a 	mov	r6,r20
10004cb8:	a80f883a 	mov	r7,r21
10004cbc:	000d7b00 	call	1000d7b0 <__muldf3>
10004cc0:	000d883a 	mov	r6,zero
10004cc4:	1009883a 	mov	r4,r2
10004cc8:	180b883a 	mov	r5,r3
10004ccc:	01d00734 	movhi	r7,16412
10004cd0:	000c3500 	call	1000c350 <__adddf3>
10004cd4:	1023883a 	mov	r17,r2
10004cd8:	d9800617 	ldw	r6,24(sp)
10004cdc:	00bf3034 	movhi	r2,64704
10004ce0:	1885883a 	add	r2,r3,r2
10004ce4:	d8800e15 	stw	r2,56(sp)
10004ce8:	30032e26 	beq	r6,zero,100059a4 <_dtoa_r+0x1178>
10004cec:	d8c00517 	ldw	r3,20(sp)
10004cf0:	da800617 	ldw	r10,24(sp)
10004cf4:	d8c01215 	stw	r3,72(sp)
10004cf8:	d9000b17 	ldw	r4,44(sp)
10004cfc:	2003b026 	beq	r4,zero,10005bc0 <_dtoa_r+0x1394>
10004d00:	50bfffc4 	addi	r2,r10,-1
10004d04:	100490fa 	slli	r2,r2,3
10004d08:	00c40074 	movhi	r3,4097
10004d0c:	18c70504 	addi	r3,r3,7188
10004d10:	1885883a 	add	r2,r3,r2
10004d14:	11800017 	ldw	r6,0(r2)
10004d18:	11c00117 	ldw	r7,4(r2)
10004d1c:	d8800717 	ldw	r2,28(sp)
10004d20:	0009883a 	mov	r4,zero
10004d24:	014ff834 	movhi	r5,16352
10004d28:	da801615 	stw	r10,88(sp)
10004d2c:	15c00044 	addi	r23,r2,1
10004d30:	000cbec0 	call	1000cbec <__divdf3>
10004d34:	d9c00e17 	ldw	r7,56(sp)
10004d38:	880d883a 	mov	r6,r17
10004d3c:	1009883a 	mov	r4,r2
10004d40:	180b883a 	mov	r5,r3
10004d44:	000e01c0 	call	1000e01c <__subdf3>
10004d48:	a80b883a 	mov	r5,r21
10004d4c:	a009883a 	mov	r4,r20
10004d50:	d8c01015 	stw	r3,64(sp)
10004d54:	d8800e15 	stw	r2,56(sp)
10004d58:	000e8ec0 	call	1000e8ec <__fixdfsi>
10004d5c:	1009883a 	mov	r4,r2
10004d60:	d8801715 	stw	r2,92(sp)
10004d64:	000e9740 	call	1000e974 <__floatsidf>
10004d68:	a009883a 	mov	r4,r20
10004d6c:	a80b883a 	mov	r5,r21
10004d70:	100d883a 	mov	r6,r2
10004d74:	180f883a 	mov	r7,r3
10004d78:	000e01c0 	call	1000e01c <__subdf3>
10004d7c:	da001717 	ldw	r8,92(sp)
10004d80:	1829883a 	mov	r20,r3
10004d84:	d8c00717 	ldw	r3,28(sp)
10004d88:	d9000e17 	ldw	r4,56(sp)
10004d8c:	d9401017 	ldw	r5,64(sp)
10004d90:	42000c04 	addi	r8,r8,48
10004d94:	1023883a 	mov	r17,r2
10004d98:	1a000005 	stb	r8,0(r3)
10004d9c:	880d883a 	mov	r6,r17
10004da0:	a00f883a 	mov	r7,r20
10004da4:	402b883a 	mov	r21,r8
10004da8:	000d5f00 	call	1000d5f0 <__gedf2>
10004dac:	00844516 	blt	zero,r2,10005ec4 <_dtoa_r+0x1698>
10004db0:	0009883a 	mov	r4,zero
10004db4:	014ffc34 	movhi	r5,16368
10004db8:	880d883a 	mov	r6,r17
10004dbc:	a00f883a 	mov	r7,r20
10004dc0:	000e01c0 	call	1000e01c <__subdf3>
10004dc4:	d9000e17 	ldw	r4,56(sp)
10004dc8:	d9401017 	ldw	r5,64(sp)
10004dcc:	100d883a 	mov	r6,r2
10004dd0:	180f883a 	mov	r7,r3
10004dd4:	000d5f00 	call	1000d5f0 <__gedf2>
10004dd8:	da801617 	ldw	r10,88(sp)
10004ddc:	00843616 	blt	zero,r2,10005eb8 <_dtoa_r+0x168c>
10004de0:	00800044 	movi	r2,1
10004de4:	12806e0e 	bge	r2,r10,10004fa0 <_dtoa_r+0x774>
10004de8:	d9000717 	ldw	r4,28(sp)
10004dec:	dd801315 	stw	r22,76(sp)
10004df0:	dc001115 	stw	r16,68(sp)
10004df4:	2295883a 	add	r10,r4,r10
10004df8:	dcc01415 	stw	r19,80(sp)
10004dfc:	502d883a 	mov	r22,r10
10004e00:	dcc01017 	ldw	r19,64(sp)
10004e04:	b821883a 	mov	r16,r23
10004e08:	dc801015 	stw	r18,64(sp)
10004e0c:	dc800e17 	ldw	r18,56(sp)
10004e10:	00000906 	br	10004e38 <_dtoa_r+0x60c>
10004e14:	000e01c0 	call	1000e01c <__subdf3>
10004e18:	1009883a 	mov	r4,r2
10004e1c:	180b883a 	mov	r5,r3
10004e20:	900d883a 	mov	r6,r18
10004e24:	980f883a 	mov	r7,r19
10004e28:	000d6d00 	call	1000d6d0 <__ledf2>
10004e2c:	10040e16 	blt	r2,zero,10005e68 <_dtoa_r+0x163c>
10004e30:	b821883a 	mov	r16,r23
10004e34:	bd841026 	beq	r23,r22,10005e78 <_dtoa_r+0x164c>
10004e38:	9009883a 	mov	r4,r18
10004e3c:	980b883a 	mov	r5,r19
10004e40:	000d883a 	mov	r6,zero
10004e44:	01d00934 	movhi	r7,16420
10004e48:	000d7b00 	call	1000d7b0 <__muldf3>
10004e4c:	000d883a 	mov	r6,zero
10004e50:	01d00934 	movhi	r7,16420
10004e54:	8809883a 	mov	r4,r17
10004e58:	a00b883a 	mov	r5,r20
10004e5c:	1025883a 	mov	r18,r2
10004e60:	1827883a 	mov	r19,r3
10004e64:	000d7b00 	call	1000d7b0 <__muldf3>
10004e68:	180b883a 	mov	r5,r3
10004e6c:	1009883a 	mov	r4,r2
10004e70:	1823883a 	mov	r17,r3
10004e74:	1029883a 	mov	r20,r2
10004e78:	000e8ec0 	call	1000e8ec <__fixdfsi>
10004e7c:	1009883a 	mov	r4,r2
10004e80:	102b883a 	mov	r21,r2
10004e84:	000e9740 	call	1000e974 <__floatsidf>
10004e88:	a009883a 	mov	r4,r20
10004e8c:	880b883a 	mov	r5,r17
10004e90:	100d883a 	mov	r6,r2
10004e94:	180f883a 	mov	r7,r3
10004e98:	000e01c0 	call	1000e01c <__subdf3>
10004e9c:	ad400c04 	addi	r21,r21,48
10004ea0:	1009883a 	mov	r4,r2
10004ea4:	180b883a 	mov	r5,r3
10004ea8:	900d883a 	mov	r6,r18
10004eac:	980f883a 	mov	r7,r19
10004eb0:	85400005 	stb	r21,0(r16)
10004eb4:	1023883a 	mov	r17,r2
10004eb8:	1829883a 	mov	r20,r3
10004ebc:	000d6d00 	call	1000d6d0 <__ledf2>
10004ec0:	bdc00044 	addi	r23,r23,1
10004ec4:	0009883a 	mov	r4,zero
10004ec8:	014ffc34 	movhi	r5,16368
10004ecc:	880d883a 	mov	r6,r17
10004ed0:	a00f883a 	mov	r7,r20
10004ed4:	103fcf0e 	bge	r2,zero,10004e14 <__alt_data_end+0xf8004e14>
10004ed8:	d9801217 	ldw	r6,72(sp)
10004edc:	dc001117 	ldw	r16,68(sp)
10004ee0:	d9800515 	stw	r6,20(sp)
10004ee4:	8009883a 	mov	r4,r16
10004ee8:	e00b883a 	mov	r5,fp
10004eec:	0007f100 	call	10007f10 <_Bfree>
10004ef0:	d8c00517 	ldw	r3,20(sp)
10004ef4:	d9002317 	ldw	r4,140(sp)
10004ef8:	d9802517 	ldw	r6,148(sp)
10004efc:	b8000005 	stb	zero,0(r23)
10004f00:	18800044 	addi	r2,r3,1
10004f04:	20800015 	stw	r2,0(r4)
10004f08:	30027226 	beq	r6,zero,100058d4 <_dtoa_r+0x10a8>
10004f0c:	35c00015 	stw	r23,0(r6)
10004f10:	d8800717 	ldw	r2,28(sp)
10004f14:	003e7406 	br	100048e8 <__alt_data_end+0xf80048e8>
10004f18:	00800434 	movhi	r2,16
10004f1c:	10bfffc4 	addi	r2,r2,-1
10004f20:	a8aa703a 	and	r21,r21,r2
10004f24:	a83e801e 	bne	r21,zero,10004928 <__alt_data_end+0xf8004928>
10004f28:	00840074 	movhi	r2,4097
10004f2c:	1086e604 	addi	r2,r2,7064
10004f30:	003e7f06 	br	10004930 <__alt_data_end+0xf8004930>
10004f34:	10c00204 	addi	r3,r2,8
10004f38:	003e8206 	br	10004944 <__alt_data_end+0xf8004944>
10004f3c:	01400434 	movhi	r5,16
10004f40:	297fffc4 	addi	r5,r5,-1
10004f44:	994a703a 	and	r5,r19,r5
10004f48:	9009883a 	mov	r4,r18
10004f4c:	8c7f0044 	addi	r17,r17,-1023
10004f50:	294ffc34 	orhi	r5,r5,16368
10004f54:	dd000217 	ldw	r20,8(sp)
10004f58:	d8000f15 	stw	zero,60(sp)
10004f5c:	003e9f06 	br	100049dc <__alt_data_end+0xf80049dc>
10004f60:	00840074 	movhi	r2,4097
10004f64:	1086dd04 	addi	r2,r2,7028
10004f68:	003e5f06 	br	100048e8 <__alt_data_end+0xf80048e8>
10004f6c:	80001115 	stw	zero,68(r16)
10004f70:	8009883a 	mov	r4,r16
10004f74:	000b883a 	mov	r5,zero
10004f78:	0007e680 	call	10007e68 <_Balloc>
10004f7c:	01bfffc4 	movi	r6,-1
10004f80:	d8800715 	stw	r2,28(sp)
10004f84:	80801015 	stw	r2,64(r16)
10004f88:	00800044 	movi	r2,1
10004f8c:	d9800615 	stw	r6,24(sp)
10004f90:	d8800b15 	stw	r2,44(sp)
10004f94:	d8002215 	stw	zero,136(sp)
10004f98:	d9800d15 	stw	r6,52(sp)
10004f9c:	d8000315 	stw	zero,12(sp)
10004fa0:	d8800117 	ldw	r2,4(sp)
10004fa4:	10008e16 	blt	r2,zero,100051e0 <_dtoa_r+0x9b4>
10004fa8:	d9000517 	ldw	r4,20(sp)
10004fac:	00c00384 	movi	r3,14
10004fb0:	19008b16 	blt	r3,r4,100051e0 <_dtoa_r+0x9b4>
10004fb4:	200490fa 	slli	r2,r4,3
10004fb8:	00c40074 	movhi	r3,4097
10004fbc:	d9802217 	ldw	r6,136(sp)
10004fc0:	18c70504 	addi	r3,r3,7188
10004fc4:	1885883a 	add	r2,r3,r2
10004fc8:	14400017 	ldw	r17,0(r2)
10004fcc:	15000117 	ldw	r20,4(r2)
10004fd0:	3001c716 	blt	r6,zero,100056f0 <_dtoa_r+0xec4>
10004fd4:	880d883a 	mov	r6,r17
10004fd8:	a00f883a 	mov	r7,r20
10004fdc:	9009883a 	mov	r4,r18
10004fe0:	980b883a 	mov	r5,r19
10004fe4:	000cbec0 	call	1000cbec <__divdf3>
10004fe8:	180b883a 	mov	r5,r3
10004fec:	1009883a 	mov	r4,r2
10004ff0:	000e8ec0 	call	1000e8ec <__fixdfsi>
10004ff4:	1009883a 	mov	r4,r2
10004ff8:	102d883a 	mov	r22,r2
10004ffc:	000e9740 	call	1000e974 <__floatsidf>
10005000:	1009883a 	mov	r4,r2
10005004:	180b883a 	mov	r5,r3
10005008:	880d883a 	mov	r6,r17
1000500c:	a00f883a 	mov	r7,r20
10005010:	000d7b00 	call	1000d7b0 <__muldf3>
10005014:	9009883a 	mov	r4,r18
10005018:	980b883a 	mov	r5,r19
1000501c:	100d883a 	mov	r6,r2
10005020:	180f883a 	mov	r7,r3
10005024:	000e01c0 	call	1000e01c <__subdf3>
10005028:	d9000717 	ldw	r4,28(sp)
1000502c:	d9800617 	ldw	r6,24(sp)
10005030:	180b883a 	mov	r5,r3
10005034:	b0c00c04 	addi	r3,r22,48
10005038:	20c00005 	stb	r3,0(r4)
1000503c:	25c00044 	addi	r23,r4,1
10005040:	01000044 	movi	r4,1
10005044:	1011883a 	mov	r8,r2
10005048:	2807883a 	mov	r3,r5
1000504c:	31003d26 	beq	r6,r4,10005144 <_dtoa_r+0x918>
10005050:	000d883a 	mov	r6,zero
10005054:	01d00934 	movhi	r7,16420
10005058:	1009883a 	mov	r4,r2
1000505c:	000d7b00 	call	1000d7b0 <__muldf3>
10005060:	1009883a 	mov	r4,r2
10005064:	180b883a 	mov	r5,r3
10005068:	000d883a 	mov	r6,zero
1000506c:	000f883a 	mov	r7,zero
10005070:	1027883a 	mov	r19,r2
10005074:	182b883a 	mov	r21,r3
10005078:	000d56c0 	call	1000d56c <__eqdf2>
1000507c:	103f9926 	beq	r2,zero,10004ee4 <__alt_data_end+0xf8004ee4>
10005080:	d8c00617 	ldw	r3,24(sp)
10005084:	d9000717 	ldw	r4,28(sp)
10005088:	b825883a 	mov	r18,r23
1000508c:	18bfffc4 	addi	r2,r3,-1
10005090:	20ad883a 	add	r22,r4,r2
10005094:	dc000315 	stw	r16,12(sp)
10005098:	00000a06 	br	100050c4 <_dtoa_r+0x898>
1000509c:	000d7b00 	call	1000d7b0 <__muldf3>
100050a0:	1009883a 	mov	r4,r2
100050a4:	180b883a 	mov	r5,r3
100050a8:	000d883a 	mov	r6,zero
100050ac:	000f883a 	mov	r7,zero
100050b0:	1027883a 	mov	r19,r2
100050b4:	182b883a 	mov	r21,r3
100050b8:	b825883a 	mov	r18,r23
100050bc:	000d56c0 	call	1000d56c <__eqdf2>
100050c0:	10022626 	beq	r2,zero,1000595c <_dtoa_r+0x1130>
100050c4:	880d883a 	mov	r6,r17
100050c8:	a00f883a 	mov	r7,r20
100050cc:	9809883a 	mov	r4,r19
100050d0:	a80b883a 	mov	r5,r21
100050d4:	000cbec0 	call	1000cbec <__divdf3>
100050d8:	180b883a 	mov	r5,r3
100050dc:	1009883a 	mov	r4,r2
100050e0:	000e8ec0 	call	1000e8ec <__fixdfsi>
100050e4:	1009883a 	mov	r4,r2
100050e8:	1021883a 	mov	r16,r2
100050ec:	000e9740 	call	1000e974 <__floatsidf>
100050f0:	1009883a 	mov	r4,r2
100050f4:	180b883a 	mov	r5,r3
100050f8:	880d883a 	mov	r6,r17
100050fc:	a00f883a 	mov	r7,r20
10005100:	000d7b00 	call	1000d7b0 <__muldf3>
10005104:	9809883a 	mov	r4,r19
10005108:	a80b883a 	mov	r5,r21
1000510c:	100d883a 	mov	r6,r2
10005110:	180f883a 	mov	r7,r3
10005114:	000e01c0 	call	1000e01c <__subdf3>
10005118:	82000c04 	addi	r8,r16,48
1000511c:	92000005 	stb	r8,0(r18)
10005120:	1009883a 	mov	r4,r2
10005124:	180b883a 	mov	r5,r3
10005128:	000d883a 	mov	r6,zero
1000512c:	01d00934 	movhi	r7,16420
10005130:	1011883a 	mov	r8,r2
10005134:	bdc00044 	addi	r23,r23,1
10005138:	95bfd81e 	bne	r18,r22,1000509c <__alt_data_end+0xf800509c>
1000513c:	802d883a 	mov	r22,r16
10005140:	dc000317 	ldw	r16,12(sp)
10005144:	4009883a 	mov	r4,r8
10005148:	180b883a 	mov	r5,r3
1000514c:	400d883a 	mov	r6,r8
10005150:	180f883a 	mov	r7,r3
10005154:	000c3500 	call	1000c350 <__adddf3>
10005158:	8809883a 	mov	r4,r17
1000515c:	a00b883a 	mov	r5,r20
10005160:	100d883a 	mov	r6,r2
10005164:	180f883a 	mov	r7,r3
10005168:	1027883a 	mov	r19,r2
1000516c:	1825883a 	mov	r18,r3
10005170:	000d6d00 	call	1000d6d0 <__ledf2>
10005174:	10000816 	blt	r2,zero,10005198 <_dtoa_r+0x96c>
10005178:	8809883a 	mov	r4,r17
1000517c:	a00b883a 	mov	r5,r20
10005180:	980d883a 	mov	r6,r19
10005184:	900f883a 	mov	r7,r18
10005188:	000d56c0 	call	1000d56c <__eqdf2>
1000518c:	103f551e 	bne	r2,zero,10004ee4 <__alt_data_end+0xf8004ee4>
10005190:	b580004c 	andi	r22,r22,1
10005194:	b03f5326 	beq	r22,zero,10004ee4 <__alt_data_end+0xf8004ee4>
10005198:	bd7fffc3 	ldbu	r21,-1(r23)
1000519c:	b8bfffc4 	addi	r2,r23,-1
100051a0:	1007883a 	mov	r3,r2
100051a4:	01400e44 	movi	r5,57
100051a8:	d9800717 	ldw	r6,28(sp)
100051ac:	00000506 	br	100051c4 <_dtoa_r+0x998>
100051b0:	18ffffc4 	addi	r3,r3,-1
100051b4:	30825e26 	beq	r6,r2,10005b30 <_dtoa_r+0x1304>
100051b8:	1d400003 	ldbu	r21,0(r3)
100051bc:	102f883a 	mov	r23,r2
100051c0:	10bfffc4 	addi	r2,r2,-1
100051c4:	a9003fcc 	andi	r4,r21,255
100051c8:	2100201c 	xori	r4,r4,128
100051cc:	213fe004 	addi	r4,r4,-128
100051d0:	217ff726 	beq	r4,r5,100051b0 <__alt_data_end+0xf80051b0>
100051d4:	aa000044 	addi	r8,r21,1
100051d8:	12000005 	stb	r8,0(r2)
100051dc:	003f4106 	br	10004ee4 <__alt_data_end+0xf8004ee4>
100051e0:	d8c00b17 	ldw	r3,44(sp)
100051e4:	18006726 	beq	r3,zero,10005384 <_dtoa_r+0xb58>
100051e8:	d9000317 	ldw	r4,12(sp)
100051ec:	00c00044 	movi	r3,1
100051f0:	19016a0e 	bge	r3,r4,1000579c <_dtoa_r+0xf70>
100051f4:	d8800617 	ldw	r2,24(sp)
100051f8:	d8c00917 	ldw	r3,36(sp)
100051fc:	157fffc4 	addi	r21,r2,-1
10005200:	1d420716 	blt	r3,r21,10005a20 <_dtoa_r+0x11f4>
10005204:	1d6bc83a 	sub	r21,r3,r21
10005208:	d8800617 	ldw	r2,24(sp)
1000520c:	1002c716 	blt	r2,zero,10005d2c <_dtoa_r+0x1500>
10005210:	dd000817 	ldw	r20,32(sp)
10005214:	d8800617 	ldw	r2,24(sp)
10005218:	d9800817 	ldw	r6,32(sp)
1000521c:	8009883a 	mov	r4,r16
10005220:	01400044 	movi	r5,1
10005224:	308d883a 	add	r6,r6,r2
10005228:	d9800815 	stw	r6,32(sp)
1000522c:	b0ad883a 	add	r22,r22,r2
10005230:	00082900 	call	10008290 <__i2b>
10005234:	1023883a 	mov	r17,r2
10005238:	a0000826 	beq	r20,zero,1000525c <_dtoa_r+0xa30>
1000523c:	0580070e 	bge	zero,r22,1000525c <_dtoa_r+0xa30>
10005240:	b005883a 	mov	r2,r22
10005244:	a5812016 	blt	r20,r22,100056c8 <_dtoa_r+0xe9c>
10005248:	d8c00817 	ldw	r3,32(sp)
1000524c:	a0a9c83a 	sub	r20,r20,r2
10005250:	b0adc83a 	sub	r22,r22,r2
10005254:	1887c83a 	sub	r3,r3,r2
10005258:	d8c00815 	stw	r3,32(sp)
1000525c:	d9000917 	ldw	r4,36(sp)
10005260:	0100140e 	bge	zero,r4,100052b4 <_dtoa_r+0xa88>
10005264:	d9800b17 	ldw	r6,44(sp)
10005268:	3001e526 	beq	r6,zero,10005a00 <_dtoa_r+0x11d4>
1000526c:	05400e0e 	bge	zero,r21,100052a8 <_dtoa_r+0xa7c>
10005270:	880b883a 	mov	r5,r17
10005274:	8009883a 	mov	r4,r16
10005278:	a80d883a 	mov	r6,r21
1000527c:	000855c0 	call	1000855c <__pow5mult>
10005280:	e00d883a 	mov	r6,fp
10005284:	8009883a 	mov	r4,r16
10005288:	100b883a 	mov	r5,r2
1000528c:	1023883a 	mov	r17,r2
10005290:	00082cc0 	call	100082cc <__multiply>
10005294:	102f883a 	mov	r23,r2
10005298:	e00b883a 	mov	r5,fp
1000529c:	8009883a 	mov	r4,r16
100052a0:	0007f100 	call	10007f10 <_Bfree>
100052a4:	b839883a 	mov	fp,r23
100052a8:	d8800917 	ldw	r2,36(sp)
100052ac:	154dc83a 	sub	r6,r2,r21
100052b0:	3001281e 	bne	r6,zero,10005754 <_dtoa_r+0xf28>
100052b4:	05c00044 	movi	r23,1
100052b8:	8009883a 	mov	r4,r16
100052bc:	b80b883a 	mov	r5,r23
100052c0:	00082900 	call	10008290 <__i2b>
100052c4:	d8c00a17 	ldw	r3,40(sp)
100052c8:	102b883a 	mov	r21,r2
100052cc:	00c0310e 	bge	zero,r3,10005394 <_dtoa_r+0xb68>
100052d0:	8009883a 	mov	r4,r16
100052d4:	100b883a 	mov	r5,r2
100052d8:	180d883a 	mov	r6,r3
100052dc:	000855c0 	call	1000855c <__pow5mult>
100052e0:	d9000317 	ldw	r4,12(sp)
100052e4:	102b883a 	mov	r21,r2
100052e8:	b9011f0e 	bge	r23,r4,10005768 <_dtoa_r+0xf3c>
100052ec:	0027883a 	mov	r19,zero
100052f0:	a8800417 	ldw	r2,16(r21)
100052f4:	10800104 	addi	r2,r2,4
100052f8:	1085883a 	add	r2,r2,r2
100052fc:	1085883a 	add	r2,r2,r2
10005300:	a885883a 	add	r2,r21,r2
10005304:	11000017 	ldw	r4,0(r2)
10005308:	00081780 	call	10008178 <__hi0bits>
1000530c:	00c00804 	movi	r3,32
10005310:	1885c83a 	sub	r2,r3,r2
10005314:	00002506 	br	100053ac <_dtoa_r+0xb80>
10005318:	01800044 	movi	r6,1
1000531c:	d9800c15 	stw	r6,48(sp)
10005320:	003dec06 	br	10004ad4 <__alt_data_end+0xf8004ad4>
10005324:	d8c00817 	ldw	r3,32(sp)
10005328:	d9000517 	ldw	r4,20(sp)
1000532c:	d8000a15 	stw	zero,40(sp)
10005330:	1907c83a 	sub	r3,r3,r4
10005334:	010dc83a 	sub	r6,zero,r4
10005338:	d8c00815 	stw	r3,32(sp)
1000533c:	d9800915 	stw	r6,36(sp)
10005340:	003ded06 	br	10004af8 <__alt_data_end+0xf8004af8>
10005344:	05adc83a 	sub	r22,zero,r22
10005348:	dd800815 	stw	r22,32(sp)
1000534c:	002d883a 	mov	r22,zero
10005350:	003de406 	br	10004ae4 <__alt_data_end+0xf8004ae4>
10005354:	d9000517 	ldw	r4,20(sp)
10005358:	000e9740 	call	1000e974 <__floatsidf>
1000535c:	1009883a 	mov	r4,r2
10005360:	180b883a 	mov	r5,r3
10005364:	b00d883a 	mov	r6,r22
10005368:	a80f883a 	mov	r7,r21
1000536c:	000d56c0 	call	1000d56c <__eqdf2>
10005370:	103dc726 	beq	r2,zero,10004a90 <__alt_data_end+0xf8004a90>
10005374:	d8800517 	ldw	r2,20(sp)
10005378:	10bfffc4 	addi	r2,r2,-1
1000537c:	d8800515 	stw	r2,20(sp)
10005380:	003dc306 	br	10004a90 <__alt_data_end+0xf8004a90>
10005384:	dd400917 	ldw	r21,36(sp)
10005388:	dd000817 	ldw	r20,32(sp)
1000538c:	0023883a 	mov	r17,zero
10005390:	003fa906 	br	10005238 <__alt_data_end+0xf8005238>
10005394:	d9800317 	ldw	r6,12(sp)
10005398:	b981670e 	bge	r23,r6,10005938 <_dtoa_r+0x110c>
1000539c:	0027883a 	mov	r19,zero
100053a0:	d8c00a17 	ldw	r3,40(sp)
100053a4:	183fd21e 	bne	r3,zero,100052f0 <__alt_data_end+0xf80052f0>
100053a8:	00800044 	movi	r2,1
100053ac:	1585883a 	add	r2,r2,r22
100053b0:	108007cc 	andi	r2,r2,31
100053b4:	10005f26 	beq	r2,zero,10005534 <_dtoa_r+0xd08>
100053b8:	00c00804 	movi	r3,32
100053bc:	1887c83a 	sub	r3,r3,r2
100053c0:	01000104 	movi	r4,4
100053c4:	20c2dd0e 	bge	r4,r3,10005f3c <_dtoa_r+0x1710>
100053c8:	d9000817 	ldw	r4,32(sp)
100053cc:	00c00704 	movi	r3,28
100053d0:	1885c83a 	sub	r2,r3,r2
100053d4:	2089883a 	add	r4,r4,r2
100053d8:	d9000815 	stw	r4,32(sp)
100053dc:	a0a9883a 	add	r20,r20,r2
100053e0:	b0ad883a 	add	r22,r22,r2
100053e4:	d8800817 	ldw	r2,32(sp)
100053e8:	0080050e 	bge	zero,r2,10005400 <_dtoa_r+0xbd4>
100053ec:	e00b883a 	mov	r5,fp
100053f0:	8009883a 	mov	r4,r16
100053f4:	100d883a 	mov	r6,r2
100053f8:	000869c0 	call	1000869c <__lshift>
100053fc:	1039883a 	mov	fp,r2
10005400:	0580050e 	bge	zero,r22,10005418 <_dtoa_r+0xbec>
10005404:	a80b883a 	mov	r5,r21
10005408:	8009883a 	mov	r4,r16
1000540c:	b00d883a 	mov	r6,r22
10005410:	000869c0 	call	1000869c <__lshift>
10005414:	102b883a 	mov	r21,r2
10005418:	d8c00c17 	ldw	r3,48(sp)
1000541c:	1801161e 	bne	r3,zero,10005878 <_dtoa_r+0x104c>
10005420:	d8c00617 	ldw	r3,24(sp)
10005424:	00c12d0e 	bge	zero,r3,100058dc <_dtoa_r+0x10b0>
10005428:	d8c00b17 	ldw	r3,44(sp)
1000542c:	1800571e 	bne	r3,zero,1000558c <_dtoa_r+0xd60>
10005430:	dc800717 	ldw	r18,28(sp)
10005434:	dcc00617 	ldw	r19,24(sp)
10005438:	9029883a 	mov	r20,r18
1000543c:	00000206 	br	10005448 <_dtoa_r+0xc1c>
10005440:	0007f380 	call	10007f38 <__multadd>
10005444:	1039883a 	mov	fp,r2
10005448:	e009883a 	mov	r4,fp
1000544c:	a80b883a 	mov	r5,r21
10005450:	00046040 	call	10004604 <quorem>
10005454:	10800c04 	addi	r2,r2,48
10005458:	90800005 	stb	r2,0(r18)
1000545c:	94800044 	addi	r18,r18,1
10005460:	9507c83a 	sub	r3,r18,r20
10005464:	8009883a 	mov	r4,r16
10005468:	e00b883a 	mov	r5,fp
1000546c:	01800284 	movi	r6,10
10005470:	000f883a 	mov	r7,zero
10005474:	1cfff216 	blt	r3,r19,10005440 <__alt_data_end+0xf8005440>
10005478:	1011883a 	mov	r8,r2
1000547c:	d8800617 	ldw	r2,24(sp)
10005480:	00822e0e 	bge	zero,r2,10005d3c <_dtoa_r+0x1510>
10005484:	d9000717 	ldw	r4,28(sp)
10005488:	0025883a 	mov	r18,zero
1000548c:	20af883a 	add	r23,r4,r2
10005490:	e00b883a 	mov	r5,fp
10005494:	01800044 	movi	r6,1
10005498:	8009883a 	mov	r4,r16
1000549c:	da001715 	stw	r8,92(sp)
100054a0:	000869c0 	call	1000869c <__lshift>
100054a4:	1009883a 	mov	r4,r2
100054a8:	a80b883a 	mov	r5,r21
100054ac:	1039883a 	mov	fp,r2
100054b0:	00087e40 	call	100087e4 <__mcmp>
100054b4:	da001717 	ldw	r8,92(sp)
100054b8:	00816e0e 	bge	zero,r2,10005a74 <_dtoa_r+0x1248>
100054bc:	b93fffc3 	ldbu	r4,-1(r23)
100054c0:	b8bfffc4 	addi	r2,r23,-1
100054c4:	1007883a 	mov	r3,r2
100054c8:	01800e44 	movi	r6,57
100054cc:	d9c00717 	ldw	r7,28(sp)
100054d0:	00000506 	br	100054e8 <_dtoa_r+0xcbc>
100054d4:	18ffffc4 	addi	r3,r3,-1
100054d8:	38811926 	beq	r7,r2,10005940 <_dtoa_r+0x1114>
100054dc:	19000003 	ldbu	r4,0(r3)
100054e0:	102f883a 	mov	r23,r2
100054e4:	10bfffc4 	addi	r2,r2,-1
100054e8:	21403fcc 	andi	r5,r4,255
100054ec:	2940201c 	xori	r5,r5,128
100054f0:	297fe004 	addi	r5,r5,-128
100054f4:	29bff726 	beq	r5,r6,100054d4 <__alt_data_end+0xf80054d4>
100054f8:	21000044 	addi	r4,r4,1
100054fc:	11000005 	stb	r4,0(r2)
10005500:	8009883a 	mov	r4,r16
10005504:	a80b883a 	mov	r5,r21
10005508:	0007f100 	call	10007f10 <_Bfree>
1000550c:	883e7526 	beq	r17,zero,10004ee4 <__alt_data_end+0xf8004ee4>
10005510:	90000426 	beq	r18,zero,10005524 <_dtoa_r+0xcf8>
10005514:	94400326 	beq	r18,r17,10005524 <_dtoa_r+0xcf8>
10005518:	8009883a 	mov	r4,r16
1000551c:	900b883a 	mov	r5,r18
10005520:	0007f100 	call	10007f10 <_Bfree>
10005524:	8009883a 	mov	r4,r16
10005528:	880b883a 	mov	r5,r17
1000552c:	0007f100 	call	10007f10 <_Bfree>
10005530:	003e6c06 	br	10004ee4 <__alt_data_end+0xf8004ee4>
10005534:	00800704 	movi	r2,28
10005538:	d9800817 	ldw	r6,32(sp)
1000553c:	a0a9883a 	add	r20,r20,r2
10005540:	b0ad883a 	add	r22,r22,r2
10005544:	308d883a 	add	r6,r6,r2
10005548:	d9800815 	stw	r6,32(sp)
1000554c:	003fa506 	br	100053e4 <__alt_data_end+0xf80053e4>
10005550:	013efb84 	movi	r4,-1042
10005554:	246bc83a 	sub	r21,r4,r17
10005558:	9548983a 	sll	r4,r18,r21
1000555c:	003d1806 	br	100049c0 <__alt_data_end+0xf80049c0>
10005560:	d8000c15 	stw	zero,48(sp)
10005564:	003d5b06 	br	10004ad4 <__alt_data_end+0xf8004ad4>
10005568:	880b883a 	mov	r5,r17
1000556c:	8009883a 	mov	r4,r16
10005570:	01800284 	movi	r6,10
10005574:	000f883a 	mov	r7,zero
10005578:	0007f380 	call	10007f38 <__multadd>
1000557c:	1023883a 	mov	r17,r2
10005580:	d8800d17 	ldw	r2,52(sp)
10005584:	0082550e 	bge	zero,r2,10005edc <_dtoa_r+0x16b0>
10005588:	d8800615 	stw	r2,24(sp)
1000558c:	0500050e 	bge	zero,r20,100055a4 <_dtoa_r+0xd78>
10005590:	880b883a 	mov	r5,r17
10005594:	8009883a 	mov	r4,r16
10005598:	a00d883a 	mov	r6,r20
1000559c:	000869c0 	call	1000869c <__lshift>
100055a0:	1023883a 	mov	r17,r2
100055a4:	98016a1e 	bne	r19,zero,10005b50 <_dtoa_r+0x1324>
100055a8:	8829883a 	mov	r20,r17
100055ac:	d9000617 	ldw	r4,24(sp)
100055b0:	dcc00717 	ldw	r19,28(sp)
100055b4:	9480004c 	andi	r18,r18,1
100055b8:	20bfffc4 	addi	r2,r4,-1
100055bc:	9885883a 	add	r2,r19,r2
100055c0:	d8800415 	stw	r2,16(sp)
100055c4:	dc800615 	stw	r18,24(sp)
100055c8:	e009883a 	mov	r4,fp
100055cc:	a80b883a 	mov	r5,r21
100055d0:	00046040 	call	10004604 <quorem>
100055d4:	e009883a 	mov	r4,fp
100055d8:	880b883a 	mov	r5,r17
100055dc:	102f883a 	mov	r23,r2
100055e0:	00087e40 	call	100087e4 <__mcmp>
100055e4:	8009883a 	mov	r4,r16
100055e8:	a80b883a 	mov	r5,r21
100055ec:	a00d883a 	mov	r6,r20
100055f0:	102d883a 	mov	r22,r2
100055f4:	00088440 	call	10008844 <__mdiff>
100055f8:	1007883a 	mov	r3,r2
100055fc:	10800317 	ldw	r2,12(r2)
10005600:	bc800c04 	addi	r18,r23,48
10005604:	1000971e 	bne	r2,zero,10005864 <_dtoa_r+0x1038>
10005608:	180b883a 	mov	r5,r3
1000560c:	e009883a 	mov	r4,fp
10005610:	d8c01515 	stw	r3,84(sp)
10005614:	00087e40 	call	100087e4 <__mcmp>
10005618:	d8c01517 	ldw	r3,84(sp)
1000561c:	8009883a 	mov	r4,r16
10005620:	d8801515 	stw	r2,84(sp)
10005624:	180b883a 	mov	r5,r3
10005628:	0007f100 	call	10007f10 <_Bfree>
1000562c:	d8801517 	ldw	r2,84(sp)
10005630:	1000041e 	bne	r2,zero,10005644 <_dtoa_r+0xe18>
10005634:	d9800317 	ldw	r6,12(sp)
10005638:	3000021e 	bne	r6,zero,10005644 <_dtoa_r+0xe18>
1000563c:	d8c00617 	ldw	r3,24(sp)
10005640:	18007626 	beq	r3,zero,1000581c <_dtoa_r+0xff0>
10005644:	b0005b16 	blt	r22,zero,100057b4 <_dtoa_r+0xf88>
10005648:	b000041e 	bne	r22,zero,1000565c <_dtoa_r+0xe30>
1000564c:	d9000317 	ldw	r4,12(sp)
10005650:	2000021e 	bne	r4,zero,1000565c <_dtoa_r+0xe30>
10005654:	d8c00617 	ldw	r3,24(sp)
10005658:	18005626 	beq	r3,zero,100057b4 <_dtoa_r+0xf88>
1000565c:	00814d16 	blt	zero,r2,10005b94 <_dtoa_r+0x1368>
10005660:	d8c00417 	ldw	r3,16(sp)
10005664:	9d800044 	addi	r22,r19,1
10005668:	9c800005 	stb	r18,0(r19)
1000566c:	b02f883a 	mov	r23,r22
10005670:	98c14c26 	beq	r19,r3,10005ba4 <_dtoa_r+0x1378>
10005674:	e00b883a 	mov	r5,fp
10005678:	8009883a 	mov	r4,r16
1000567c:	01800284 	movi	r6,10
10005680:	000f883a 	mov	r7,zero
10005684:	0007f380 	call	10007f38 <__multadd>
10005688:	1039883a 	mov	fp,r2
1000568c:	8d006d26 	beq	r17,r20,10005844 <_dtoa_r+0x1018>
10005690:	880b883a 	mov	r5,r17
10005694:	01800284 	movi	r6,10
10005698:	000f883a 	mov	r7,zero
1000569c:	8009883a 	mov	r4,r16
100056a0:	0007f380 	call	10007f38 <__multadd>
100056a4:	a00b883a 	mov	r5,r20
100056a8:	8009883a 	mov	r4,r16
100056ac:	01800284 	movi	r6,10
100056b0:	000f883a 	mov	r7,zero
100056b4:	1023883a 	mov	r17,r2
100056b8:	0007f380 	call	10007f38 <__multadd>
100056bc:	1029883a 	mov	r20,r2
100056c0:	b027883a 	mov	r19,r22
100056c4:	003fc006 	br	100055c8 <__alt_data_end+0xf80055c8>
100056c8:	a005883a 	mov	r2,r20
100056cc:	003ede06 	br	10005248 <__alt_data_end+0xf8005248>
100056d0:	01000044 	movi	r4,1
100056d4:	d9000b15 	stw	r4,44(sp)
100056d8:	d9802217 	ldw	r6,136(sp)
100056dc:	0180dc0e 	bge	zero,r6,10005a50 <_dtoa_r+0x1224>
100056e0:	3023883a 	mov	r17,r6
100056e4:	d9800d15 	stw	r6,52(sp)
100056e8:	d9800615 	stw	r6,24(sp)
100056ec:	003d1e06 	br	10004b68 <__alt_data_end+0xf8004b68>
100056f0:	d8800617 	ldw	r2,24(sp)
100056f4:	00be3716 	blt	zero,r2,10004fd4 <__alt_data_end+0xf8004fd4>
100056f8:	1000be1e 	bne	r2,zero,100059f4 <_dtoa_r+0x11c8>
100056fc:	8809883a 	mov	r4,r17
10005700:	a00b883a 	mov	r5,r20
10005704:	000d883a 	mov	r6,zero
10005708:	01d00534 	movhi	r7,16404
1000570c:	000d7b00 	call	1000d7b0 <__muldf3>
10005710:	1009883a 	mov	r4,r2
10005714:	180b883a 	mov	r5,r3
10005718:	900d883a 	mov	r6,r18
1000571c:	980f883a 	mov	r7,r19
10005720:	000d5f00 	call	1000d5f0 <__gedf2>
10005724:	002b883a 	mov	r21,zero
10005728:	0023883a 	mov	r17,zero
1000572c:	10007a16 	blt	r2,zero,10005918 <_dtoa_r+0x10ec>
10005730:	d9002217 	ldw	r4,136(sp)
10005734:	ddc00717 	ldw	r23,28(sp)
10005738:	0108303a 	nor	r4,zero,r4
1000573c:	d9000515 	stw	r4,20(sp)
10005740:	8009883a 	mov	r4,r16
10005744:	a80b883a 	mov	r5,r21
10005748:	0007f100 	call	10007f10 <_Bfree>
1000574c:	883f751e 	bne	r17,zero,10005524 <__alt_data_end+0xf8005524>
10005750:	003de406 	br	10004ee4 <__alt_data_end+0xf8004ee4>
10005754:	e00b883a 	mov	r5,fp
10005758:	8009883a 	mov	r4,r16
1000575c:	000855c0 	call	1000855c <__pow5mult>
10005760:	1039883a 	mov	fp,r2
10005764:	003ed306 	br	100052b4 <__alt_data_end+0xf80052b4>
10005768:	903ee01e 	bne	r18,zero,100052ec <__alt_data_end+0xf80052ec>
1000576c:	00800434 	movhi	r2,16
10005770:	10bfffc4 	addi	r2,r2,-1
10005774:	9884703a 	and	r2,r19,r2
10005778:	103f081e 	bne	r2,zero,1000539c <__alt_data_end+0xf800539c>
1000577c:	9cdffc2c 	andhi	r19,r19,32752
10005780:	983f0626 	beq	r19,zero,1000539c <__alt_data_end+0xf800539c>
10005784:	d8800817 	ldw	r2,32(sp)
10005788:	b5800044 	addi	r22,r22,1
1000578c:	04c00044 	movi	r19,1
10005790:	10800044 	addi	r2,r2,1
10005794:	d8800815 	stw	r2,32(sp)
10005798:	003f0106 	br	100053a0 <__alt_data_end+0xf80053a0>
1000579c:	d9800f17 	ldw	r6,60(sp)
100057a0:	30016826 	beq	r6,zero,10005d44 <_dtoa_r+0x1518>
100057a4:	10810cc4 	addi	r2,r2,1075
100057a8:	dd400917 	ldw	r21,36(sp)
100057ac:	dd000817 	ldw	r20,32(sp)
100057b0:	003e9906 	br	10005218 <__alt_data_end+0xf8005218>
100057b4:	9011883a 	mov	r8,r18
100057b8:	4007883a 	mov	r3,r8
100057bc:	e02d883a 	mov	r22,fp
100057c0:	0080100e 	bge	zero,r2,10005804 <_dtoa_r+0xfd8>
100057c4:	01800044 	movi	r6,1
100057c8:	8009883a 	mov	r4,r16
100057cc:	e00b883a 	mov	r5,fp
100057d0:	da001515 	stw	r8,84(sp)
100057d4:	da001715 	stw	r8,92(sp)
100057d8:	000869c0 	call	1000869c <__lshift>
100057dc:	1009883a 	mov	r4,r2
100057e0:	a80b883a 	mov	r5,r21
100057e4:	102d883a 	mov	r22,r2
100057e8:	00087e40 	call	100087e4 <__mcmp>
100057ec:	d8c01517 	ldw	r3,84(sp)
100057f0:	da001717 	ldw	r8,92(sp)
100057f4:	0081a50e 	bge	zero,r2,10005e8c <_dtoa_r+0x1660>
100057f8:	00800e44 	movi	r2,57
100057fc:	40817b26 	beq	r8,r2,10005dec <_dtoa_r+0x15c0>
10005800:	40c00044 	addi	r3,r8,1
10005804:	8825883a 	mov	r18,r17
10005808:	9dc00044 	addi	r23,r19,1
1000580c:	98c00005 	stb	r3,0(r19)
10005810:	a023883a 	mov	r17,r20
10005814:	b039883a 	mov	fp,r22
10005818:	003f3906 	br	10005500 <__alt_data_end+0xf8005500>
1000581c:	00800e44 	movi	r2,57
10005820:	9011883a 	mov	r8,r18
10005824:	90817226 	beq	r18,r2,10005df0 <_dtoa_r+0x15c4>
10005828:	0580010e 	bge	zero,r22,10005830 <_dtoa_r+0x1004>
1000582c:	ba000c44 	addi	r8,r23,49
10005830:	8825883a 	mov	r18,r17
10005834:	9dc00044 	addi	r23,r19,1
10005838:	9a000005 	stb	r8,0(r19)
1000583c:	a023883a 	mov	r17,r20
10005840:	003f2f06 	br	10005500 <__alt_data_end+0xf8005500>
10005844:	880b883a 	mov	r5,r17
10005848:	8009883a 	mov	r4,r16
1000584c:	01800284 	movi	r6,10
10005850:	000f883a 	mov	r7,zero
10005854:	0007f380 	call	10007f38 <__multadd>
10005858:	1023883a 	mov	r17,r2
1000585c:	1029883a 	mov	r20,r2
10005860:	003f9706 	br	100056c0 <__alt_data_end+0xf80056c0>
10005864:	8009883a 	mov	r4,r16
10005868:	180b883a 	mov	r5,r3
1000586c:	0007f100 	call	10007f10 <_Bfree>
10005870:	00800044 	movi	r2,1
10005874:	003f7306 	br	10005644 <__alt_data_end+0xf8005644>
10005878:	e009883a 	mov	r4,fp
1000587c:	a80b883a 	mov	r5,r21
10005880:	00087e40 	call	100087e4 <__mcmp>
10005884:	103ee60e 	bge	r2,zero,10005420 <__alt_data_end+0xf8005420>
10005888:	8009883a 	mov	r4,r16
1000588c:	e00b883a 	mov	r5,fp
10005890:	01800284 	movi	r6,10
10005894:	000f883a 	mov	r7,zero
10005898:	0007f380 	call	10007f38 <__multadd>
1000589c:	d9000517 	ldw	r4,20(sp)
100058a0:	d9800b17 	ldw	r6,44(sp)
100058a4:	1039883a 	mov	fp,r2
100058a8:	213fffc4 	addi	r4,r4,-1
100058ac:	d9000515 	stw	r4,20(sp)
100058b0:	303f2d1e 	bne	r6,zero,10005568 <__alt_data_end+0xf8005568>
100058b4:	d9000d17 	ldw	r4,52(sp)
100058b8:	0101780e 	bge	zero,r4,10005e9c <_dtoa_r+0x1670>
100058bc:	d9000615 	stw	r4,24(sp)
100058c0:	003edb06 	br	10005430 <__alt_data_end+0xf8005430>
100058c4:	00800084 	movi	r2,2
100058c8:	30818e1e 	bne	r6,r2,10005f04 <_dtoa_r+0x16d8>
100058cc:	d8000b15 	stw	zero,44(sp)
100058d0:	003f8106 	br	100056d8 <__alt_data_end+0xf80056d8>
100058d4:	d8800717 	ldw	r2,28(sp)
100058d8:	003c0306 	br	100048e8 <__alt_data_end+0xf80048e8>
100058dc:	d9000317 	ldw	r4,12(sp)
100058e0:	00800084 	movi	r2,2
100058e4:	113ed00e 	bge	r2,r4,10005428 <__alt_data_end+0xf8005428>
100058e8:	d8c00617 	ldw	r3,24(sp)
100058ec:	183f901e 	bne	r3,zero,10005730 <__alt_data_end+0xf8005730>
100058f0:	a80b883a 	mov	r5,r21
100058f4:	8009883a 	mov	r4,r16
100058f8:	01800144 	movi	r6,5
100058fc:	000f883a 	mov	r7,zero
10005900:	0007f380 	call	10007f38 <__multadd>
10005904:	e009883a 	mov	r4,fp
10005908:	100b883a 	mov	r5,r2
1000590c:	102b883a 	mov	r21,r2
10005910:	00087e40 	call	100087e4 <__mcmp>
10005914:	00bf860e 	bge	zero,r2,10005730 <__alt_data_end+0xf8005730>
10005918:	d9800717 	ldw	r6,28(sp)
1000591c:	00800c44 	movi	r2,49
10005920:	30800005 	stb	r2,0(r6)
10005924:	d8800517 	ldw	r2,20(sp)
10005928:	35c00044 	addi	r23,r6,1
1000592c:	10800044 	addi	r2,r2,1
10005930:	d8800515 	stw	r2,20(sp)
10005934:	003f8206 	br	10005740 <__alt_data_end+0xf8005740>
10005938:	903e981e 	bne	r18,zero,1000539c <__alt_data_end+0xf800539c>
1000593c:	003f8b06 	br	1000576c <__alt_data_end+0xf800576c>
10005940:	d9800517 	ldw	r6,20(sp)
10005944:	d8c00717 	ldw	r3,28(sp)
10005948:	00800c44 	movi	r2,49
1000594c:	31800044 	addi	r6,r6,1
10005950:	d9800515 	stw	r6,20(sp)
10005954:	18800005 	stb	r2,0(r3)
10005958:	003ee906 	br	10005500 <__alt_data_end+0xf8005500>
1000595c:	dc000317 	ldw	r16,12(sp)
10005960:	003d6006 	br	10004ee4 <__alt_data_end+0xf8004ee4>
10005964:	8809883a 	mov	r4,r17
10005968:	000e9740 	call	1000e974 <__floatsidf>
1000596c:	a009883a 	mov	r4,r20
10005970:	a80b883a 	mov	r5,r21
10005974:	100d883a 	mov	r6,r2
10005978:	180f883a 	mov	r7,r3
1000597c:	000d7b00 	call	1000d7b0 <__muldf3>
10005980:	1009883a 	mov	r4,r2
10005984:	180b883a 	mov	r5,r3
10005988:	000d883a 	mov	r6,zero
1000598c:	01d00734 	movhi	r7,16412
10005990:	000c3500 	call	1000c350 <__adddf3>
10005994:	1023883a 	mov	r17,r2
10005998:	00bf3034 	movhi	r2,64704
1000599c:	1885883a 	add	r2,r3,r2
100059a0:	d8800e15 	stw	r2,56(sp)
100059a4:	a009883a 	mov	r4,r20
100059a8:	a80b883a 	mov	r5,r21
100059ac:	000d883a 	mov	r6,zero
100059b0:	01d00534 	movhi	r7,16404
100059b4:	000e01c0 	call	1000e01c <__subdf3>
100059b8:	d9c00e17 	ldw	r7,56(sp)
100059bc:	1009883a 	mov	r4,r2
100059c0:	180b883a 	mov	r5,r3
100059c4:	880d883a 	mov	r6,r17
100059c8:	102b883a 	mov	r21,r2
100059cc:	1829883a 	mov	r20,r3
100059d0:	000d5f00 	call	1000d5f0 <__gedf2>
100059d4:	00807716 	blt	zero,r2,10005bb4 <_dtoa_r+0x1388>
100059d8:	d8800e17 	ldw	r2,56(sp)
100059dc:	a809883a 	mov	r4,r21
100059e0:	a00b883a 	mov	r5,r20
100059e4:	11e0003c 	xorhi	r7,r2,32768
100059e8:	880d883a 	mov	r6,r17
100059ec:	000d6d00 	call	1000d6d0 <__ledf2>
100059f0:	103d6b0e 	bge	r2,zero,10004fa0 <__alt_data_end+0xf8004fa0>
100059f4:	002b883a 	mov	r21,zero
100059f8:	0023883a 	mov	r17,zero
100059fc:	003f4c06 	br	10005730 <__alt_data_end+0xf8005730>
10005a00:	d9800917 	ldw	r6,36(sp)
10005a04:	e00b883a 	mov	r5,fp
10005a08:	8009883a 	mov	r4,r16
10005a0c:	000855c0 	call	1000855c <__pow5mult>
10005a10:	1039883a 	mov	fp,r2
10005a14:	003e2706 	br	100052b4 <__alt_data_end+0xf80052b4>
10005a18:	d8000b15 	stw	zero,44(sp)
10005a1c:	003c4906 	br	10004b44 <__alt_data_end+0xf8004b44>
10005a20:	d9000917 	ldw	r4,36(sp)
10005a24:	d9800a17 	ldw	r6,40(sp)
10005a28:	dd400915 	stw	r21,36(sp)
10005a2c:	a905c83a 	sub	r2,r21,r4
10005a30:	308d883a 	add	r6,r6,r2
10005a34:	d9800a15 	stw	r6,40(sp)
10005a38:	002b883a 	mov	r21,zero
10005a3c:	003df206 	br	10005208 <__alt_data_end+0xf8005208>
10005a40:	dc800e15 	stw	r18,56(sp)
10005a44:	982b883a 	mov	r21,r19
10005a48:	04400084 	movi	r17,2
10005a4c:	003c7406 	br	10004c20 <__alt_data_end+0xf8004c20>
10005a50:	04400044 	movi	r17,1
10005a54:	dc400d15 	stw	r17,52(sp)
10005a58:	dc400615 	stw	r17,24(sp)
10005a5c:	dc402215 	stw	r17,136(sp)
10005a60:	80001115 	stw	zero,68(r16)
10005a64:	000b883a 	mov	r5,zero
10005a68:	003c4a06 	br	10004b94 <__alt_data_end+0xf8004b94>
10005a6c:	3023883a 	mov	r17,r6
10005a70:	003ffb06 	br	10005a60 <__alt_data_end+0xf8005a60>
10005a74:	1000021e 	bne	r2,zero,10005a80 <_dtoa_r+0x1254>
10005a78:	4200004c 	andi	r8,r8,1
10005a7c:	403e8f1e 	bne	r8,zero,100054bc <__alt_data_end+0xf80054bc>
10005a80:	01000c04 	movi	r4,48
10005a84:	00000106 	br	10005a8c <_dtoa_r+0x1260>
10005a88:	102f883a 	mov	r23,r2
10005a8c:	b8bfffc4 	addi	r2,r23,-1
10005a90:	10c00007 	ldb	r3,0(r2)
10005a94:	193ffc26 	beq	r3,r4,10005a88 <__alt_data_end+0xf8005a88>
10005a98:	003e9906 	br	10005500 <__alt_data_end+0xf8005500>
10005a9c:	d9000517 	ldw	r4,20(sp)
10005aa0:	012fc83a 	sub	r23,zero,r4
10005aa4:	b800ad26 	beq	r23,zero,10005d5c <_dtoa_r+0x1530>
10005aa8:	b88003cc 	andi	r2,r23,15
10005aac:	100490fa 	slli	r2,r2,3
10005ab0:	00c40074 	movhi	r3,4097
10005ab4:	18c70504 	addi	r3,r3,7188
10005ab8:	1885883a 	add	r2,r3,r2
10005abc:	11800017 	ldw	r6,0(r2)
10005ac0:	11c00117 	ldw	r7,4(r2)
10005ac4:	b82fd13a 	srai	r23,r23,4
10005ac8:	9009883a 	mov	r4,r18
10005acc:	980b883a 	mov	r5,r19
10005ad0:	000d7b00 	call	1000d7b0 <__muldf3>
10005ad4:	1029883a 	mov	r20,r2
10005ad8:	182b883a 	mov	r21,r3
10005adc:	b800f426 	beq	r23,zero,10005eb0 <_dtoa_r+0x1684>
10005ae0:	02040074 	movhi	r8,4097
10005ae4:	4206fb04 	addi	r8,r8,7148
10005ae8:	8029883a 	mov	r20,r16
10005aec:	04400084 	movi	r17,2
10005af0:	4021883a 	mov	r16,r8
10005af4:	b980004c 	andi	r6,r23,1
10005af8:	1009883a 	mov	r4,r2
10005afc:	b82fd07a 	srai	r23,r23,1
10005b00:	180b883a 	mov	r5,r3
10005b04:	30000426 	beq	r6,zero,10005b18 <_dtoa_r+0x12ec>
10005b08:	81800017 	ldw	r6,0(r16)
10005b0c:	81c00117 	ldw	r7,4(r16)
10005b10:	8c400044 	addi	r17,r17,1
10005b14:	000d7b00 	call	1000d7b0 <__muldf3>
10005b18:	84000204 	addi	r16,r16,8
10005b1c:	b83ff51e 	bne	r23,zero,10005af4 <__alt_data_end+0xf8005af4>
10005b20:	a021883a 	mov	r16,r20
10005b24:	182b883a 	mov	r21,r3
10005b28:	1029883a 	mov	r20,r2
10005b2c:	003c5506 	br	10004c84 <__alt_data_end+0xf8004c84>
10005b30:	d9800517 	ldw	r6,20(sp)
10005b34:	d9000717 	ldw	r4,28(sp)
10005b38:	00c00c04 	movi	r3,48
10005b3c:	31800044 	addi	r6,r6,1
10005b40:	d9800515 	stw	r6,20(sp)
10005b44:	20c00005 	stb	r3,0(r4)
10005b48:	02000c44 	movi	r8,49
10005b4c:	003da206 	br	100051d8 <__alt_data_end+0xf80051d8>
10005b50:	89400117 	ldw	r5,4(r17)
10005b54:	8009883a 	mov	r4,r16
10005b58:	0007e680 	call	10007e68 <_Balloc>
10005b5c:	89800417 	ldw	r6,16(r17)
10005b60:	11000304 	addi	r4,r2,12
10005b64:	89400304 	addi	r5,r17,12
10005b68:	31800084 	addi	r6,r6,2
10005b6c:	318d883a 	add	r6,r6,r6
10005b70:	318d883a 	add	r6,r6,r6
10005b74:	1027883a 	mov	r19,r2
10005b78:	0007ab00 	call	10007ab0 <memcpy>
10005b7c:	8009883a 	mov	r4,r16
10005b80:	980b883a 	mov	r5,r19
10005b84:	01800044 	movi	r6,1
10005b88:	000869c0 	call	1000869c <__lshift>
10005b8c:	1029883a 	mov	r20,r2
10005b90:	003e8606 	br	100055ac <__alt_data_end+0xf80055ac>
10005b94:	00800e44 	movi	r2,57
10005b98:	90809526 	beq	r18,r2,10005df0 <_dtoa_r+0x15c4>
10005b9c:	92000044 	addi	r8,r18,1
10005ba0:	003f2306 	br	10005830 <__alt_data_end+0xf8005830>
10005ba4:	9011883a 	mov	r8,r18
10005ba8:	8825883a 	mov	r18,r17
10005bac:	a023883a 	mov	r17,r20
10005bb0:	003e3706 	br	10005490 <__alt_data_end+0xf8005490>
10005bb4:	002b883a 	mov	r21,zero
10005bb8:	0023883a 	mov	r17,zero
10005bbc:	003f5606 	br	10005918 <__alt_data_end+0xf8005918>
10005bc0:	51bfffc4 	addi	r6,r10,-1
10005bc4:	300490fa 	slli	r2,r6,3
10005bc8:	00c40074 	movhi	r3,4097
10005bcc:	18c70504 	addi	r3,r3,7188
10005bd0:	1885883a 	add	r2,r3,r2
10005bd4:	d9c00e17 	ldw	r7,56(sp)
10005bd8:	11000017 	ldw	r4,0(r2)
10005bdc:	11400117 	ldw	r5,4(r2)
10005be0:	d8800717 	ldw	r2,28(sp)
10005be4:	d9801015 	stw	r6,64(sp)
10005be8:	880d883a 	mov	r6,r17
10005bec:	da801615 	stw	r10,88(sp)
10005bf0:	15c00044 	addi	r23,r2,1
10005bf4:	000d7b00 	call	1000d7b0 <__muldf3>
10005bf8:	a80b883a 	mov	r5,r21
10005bfc:	a009883a 	mov	r4,r20
10005c00:	d8c01115 	stw	r3,68(sp)
10005c04:	d8800e15 	stw	r2,56(sp)
10005c08:	000e8ec0 	call	1000e8ec <__fixdfsi>
10005c0c:	1009883a 	mov	r4,r2
10005c10:	1023883a 	mov	r17,r2
10005c14:	000e9740 	call	1000e974 <__floatsidf>
10005c18:	a009883a 	mov	r4,r20
10005c1c:	a80b883a 	mov	r5,r21
10005c20:	100d883a 	mov	r6,r2
10005c24:	180f883a 	mov	r7,r3
10005c28:	000e01c0 	call	1000e01c <__subdf3>
10005c2c:	1813883a 	mov	r9,r3
10005c30:	d8c00717 	ldw	r3,28(sp)
10005c34:	8c400c04 	addi	r17,r17,48
10005c38:	1011883a 	mov	r8,r2
10005c3c:	1c400005 	stb	r17,0(r3)
10005c40:	da801617 	ldw	r10,88(sp)
10005c44:	00800044 	movi	r2,1
10005c48:	50802326 	beq	r10,r2,10005cd8 <_dtoa_r+0x14ac>
10005c4c:	d8800717 	ldw	r2,28(sp)
10005c50:	b82b883a 	mov	r21,r23
10005c54:	dc001315 	stw	r16,76(sp)
10005c58:	12a9883a 	add	r20,r2,r10
10005c5c:	4807883a 	mov	r3,r9
10005c60:	4005883a 	mov	r2,r8
10005c64:	dc801415 	stw	r18,80(sp)
10005c68:	000d883a 	mov	r6,zero
10005c6c:	01d00934 	movhi	r7,16420
10005c70:	1009883a 	mov	r4,r2
10005c74:	180b883a 	mov	r5,r3
10005c78:	000d7b00 	call	1000d7b0 <__muldf3>
10005c7c:	180b883a 	mov	r5,r3
10005c80:	1009883a 	mov	r4,r2
10005c84:	1821883a 	mov	r16,r3
10005c88:	1025883a 	mov	r18,r2
10005c8c:	000e8ec0 	call	1000e8ec <__fixdfsi>
10005c90:	1009883a 	mov	r4,r2
10005c94:	1023883a 	mov	r17,r2
10005c98:	000e9740 	call	1000e974 <__floatsidf>
10005c9c:	9009883a 	mov	r4,r18
10005ca0:	800b883a 	mov	r5,r16
10005ca4:	100d883a 	mov	r6,r2
10005ca8:	180f883a 	mov	r7,r3
10005cac:	8c400c04 	addi	r17,r17,48
10005cb0:	000e01c0 	call	1000e01c <__subdf3>
10005cb4:	ad400044 	addi	r21,r21,1
10005cb8:	ac7fffc5 	stb	r17,-1(r21)
10005cbc:	ad3fea1e 	bne	r21,r20,10005c68 <__alt_data_end+0xf8005c68>
10005cc0:	1813883a 	mov	r9,r3
10005cc4:	d8c01017 	ldw	r3,64(sp)
10005cc8:	dc001317 	ldw	r16,76(sp)
10005ccc:	dc801417 	ldw	r18,80(sp)
10005cd0:	1011883a 	mov	r8,r2
10005cd4:	b8ef883a 	add	r23,r23,r3
10005cd8:	d9000e17 	ldw	r4,56(sp)
10005cdc:	d9401117 	ldw	r5,68(sp)
10005ce0:	000d883a 	mov	r6,zero
10005ce4:	01cff834 	movhi	r7,16352
10005ce8:	da001715 	stw	r8,92(sp)
10005cec:	da401515 	stw	r9,84(sp)
10005cf0:	000c3500 	call	1000c350 <__adddf3>
10005cf4:	da001717 	ldw	r8,92(sp)
10005cf8:	da401517 	ldw	r9,84(sp)
10005cfc:	1009883a 	mov	r4,r2
10005d00:	400d883a 	mov	r6,r8
10005d04:	480f883a 	mov	r7,r9
10005d08:	180b883a 	mov	r5,r3
10005d0c:	000d6d00 	call	1000d6d0 <__ledf2>
10005d10:	da001717 	ldw	r8,92(sp)
10005d14:	da401517 	ldw	r9,84(sp)
10005d18:	10003b0e 	bge	r2,zero,10005e08 <_dtoa_r+0x15dc>
10005d1c:	d9001217 	ldw	r4,72(sp)
10005d20:	bd7fffc3 	ldbu	r21,-1(r23)
10005d24:	d9000515 	stw	r4,20(sp)
10005d28:	003d1c06 	br	1000519c <__alt_data_end+0xf800519c>
10005d2c:	d8c00817 	ldw	r3,32(sp)
10005d30:	18a9c83a 	sub	r20,r3,r2
10005d34:	0005883a 	mov	r2,zero
10005d38:	003d3706 	br	10005218 <__alt_data_end+0xf8005218>
10005d3c:	00800044 	movi	r2,1
10005d40:	003dd006 	br	10005484 <__alt_data_end+0xf8005484>
10005d44:	d8c00217 	ldw	r3,8(sp)
10005d48:	00800d84 	movi	r2,54
10005d4c:	dd400917 	ldw	r21,36(sp)
10005d50:	10c5c83a 	sub	r2,r2,r3
10005d54:	dd000817 	ldw	r20,32(sp)
10005d58:	003d2f06 	br	10005218 <__alt_data_end+0xf8005218>
10005d5c:	9029883a 	mov	r20,r18
10005d60:	982b883a 	mov	r21,r19
10005d64:	04400084 	movi	r17,2
10005d68:	003bc606 	br	10004c84 <__alt_data_end+0xf8004c84>
10005d6c:	d8800617 	ldw	r2,24(sp)
10005d70:	103efc26 	beq	r2,zero,10005964 <__alt_data_end+0xf8005964>
10005d74:	d8c00d17 	ldw	r3,52(sp)
10005d78:	00fc890e 	bge	zero,r3,10004fa0 <__alt_data_end+0xf8004fa0>
10005d7c:	a80b883a 	mov	r5,r21
10005d80:	a009883a 	mov	r4,r20
10005d84:	000d883a 	mov	r6,zero
10005d88:	01d00934 	movhi	r7,16420
10005d8c:	000d7b00 	call	1000d7b0 <__muldf3>
10005d90:	89000044 	addi	r4,r17,1
10005d94:	1029883a 	mov	r20,r2
10005d98:	182b883a 	mov	r21,r3
10005d9c:	000e9740 	call	1000e974 <__floatsidf>
10005da0:	a009883a 	mov	r4,r20
10005da4:	a80b883a 	mov	r5,r21
10005da8:	100d883a 	mov	r6,r2
10005dac:	180f883a 	mov	r7,r3
10005db0:	000d7b00 	call	1000d7b0 <__muldf3>
10005db4:	1009883a 	mov	r4,r2
10005db8:	180b883a 	mov	r5,r3
10005dbc:	000d883a 	mov	r6,zero
10005dc0:	01d00734 	movhi	r7,16412
10005dc4:	000c3500 	call	1000c350 <__adddf3>
10005dc8:	d9000517 	ldw	r4,20(sp)
10005dcc:	1023883a 	mov	r17,r2
10005dd0:	00bf3034 	movhi	r2,64704
10005dd4:	213fffc4 	addi	r4,r4,-1
10005dd8:	1885883a 	add	r2,r3,r2
10005ddc:	d9001215 	stw	r4,72(sp)
10005de0:	d8800e15 	stw	r2,56(sp)
10005de4:	da800d17 	ldw	r10,52(sp)
10005de8:	003bc306 	br	10004cf8 <__alt_data_end+0xf8004cf8>
10005dec:	b039883a 	mov	fp,r22
10005df0:	01000e44 	movi	r4,57
10005df4:	8825883a 	mov	r18,r17
10005df8:	9dc00044 	addi	r23,r19,1
10005dfc:	99000005 	stb	r4,0(r19)
10005e00:	a023883a 	mov	r17,r20
10005e04:	003dae06 	br	100054c0 <__alt_data_end+0xf80054c0>
10005e08:	d9800e17 	ldw	r6,56(sp)
10005e0c:	d9c01117 	ldw	r7,68(sp)
10005e10:	0009883a 	mov	r4,zero
10005e14:	014ff834 	movhi	r5,16352
10005e18:	da001715 	stw	r8,92(sp)
10005e1c:	da401515 	stw	r9,84(sp)
10005e20:	000e01c0 	call	1000e01c <__subdf3>
10005e24:	da001717 	ldw	r8,92(sp)
10005e28:	da401517 	ldw	r9,84(sp)
10005e2c:	1009883a 	mov	r4,r2
10005e30:	180b883a 	mov	r5,r3
10005e34:	400d883a 	mov	r6,r8
10005e38:	480f883a 	mov	r7,r9
10005e3c:	000d5f00 	call	1000d5f0 <__gedf2>
10005e40:	00bc570e 	bge	zero,r2,10004fa0 <__alt_data_end+0xf8004fa0>
10005e44:	01000c04 	movi	r4,48
10005e48:	00000106 	br	10005e50 <_dtoa_r+0x1624>
10005e4c:	102f883a 	mov	r23,r2
10005e50:	b8bfffc4 	addi	r2,r23,-1
10005e54:	10c00007 	ldb	r3,0(r2)
10005e58:	193ffc26 	beq	r3,r4,10005e4c <__alt_data_end+0xf8005e4c>
10005e5c:	d9801217 	ldw	r6,72(sp)
10005e60:	d9800515 	stw	r6,20(sp)
10005e64:	003c1f06 	br	10004ee4 <__alt_data_end+0xf8004ee4>
10005e68:	d8801217 	ldw	r2,72(sp)
10005e6c:	dc001117 	ldw	r16,68(sp)
10005e70:	d8800515 	stw	r2,20(sp)
10005e74:	003cc906 	br	1000519c <__alt_data_end+0xf800519c>
10005e78:	dd801317 	ldw	r22,76(sp)
10005e7c:	dc001117 	ldw	r16,68(sp)
10005e80:	dcc01417 	ldw	r19,80(sp)
10005e84:	dc801017 	ldw	r18,64(sp)
10005e88:	003c4506 	br	10004fa0 <__alt_data_end+0xf8004fa0>
10005e8c:	103e5d1e 	bne	r2,zero,10005804 <__alt_data_end+0xf8005804>
10005e90:	4080004c 	andi	r2,r8,1
10005e94:	103e5b26 	beq	r2,zero,10005804 <__alt_data_end+0xf8005804>
10005e98:	003e5706 	br	100057f8 <__alt_data_end+0xf80057f8>
10005e9c:	d8c00317 	ldw	r3,12(sp)
10005ea0:	00800084 	movi	r2,2
10005ea4:	10c00a16 	blt	r2,r3,10005ed0 <_dtoa_r+0x16a4>
10005ea8:	d9000d17 	ldw	r4,52(sp)
10005eac:	003e8306 	br	100058bc <__alt_data_end+0xf80058bc>
10005eb0:	04400084 	movi	r17,2
10005eb4:	003b7306 	br	10004c84 <__alt_data_end+0xf8004c84>
10005eb8:	d9801217 	ldw	r6,72(sp)
10005ebc:	d9800515 	stw	r6,20(sp)
10005ec0:	003cb606 	br	1000519c <__alt_data_end+0xf800519c>
10005ec4:	d9001217 	ldw	r4,72(sp)
10005ec8:	d9000515 	stw	r4,20(sp)
10005ecc:	003c0506 	br	10004ee4 <__alt_data_end+0xf8004ee4>
10005ed0:	d9800d17 	ldw	r6,52(sp)
10005ed4:	d9800615 	stw	r6,24(sp)
10005ed8:	003e8306 	br	100058e8 <__alt_data_end+0xf80058e8>
10005edc:	d9800317 	ldw	r6,12(sp)
10005ee0:	00800084 	movi	r2,2
10005ee4:	11800216 	blt	r2,r6,10005ef0 <_dtoa_r+0x16c4>
10005ee8:	d8800d17 	ldw	r2,52(sp)
10005eec:	003da606 	br	10005588 <__alt_data_end+0xf8005588>
10005ef0:	d8800d17 	ldw	r2,52(sp)
10005ef4:	d8800615 	stw	r2,24(sp)
10005ef8:	003e7b06 	br	100058e8 <__alt_data_end+0xf80058e8>
10005efc:	05000044 	movi	r20,1
10005f00:	003b0506 	br	10004b18 <__alt_data_end+0xf8004b18>
10005f04:	8009883a 	mov	r4,r16
10005f08:	80001115 	stw	zero,68(r16)
10005f0c:	000b883a 	mov	r5,zero
10005f10:	0007e680 	call	10007e68 <_Balloc>
10005f14:	d8800715 	stw	r2,28(sp)
10005f18:	d8c00717 	ldw	r3,28(sp)
10005f1c:	00bfffc4 	movi	r2,-1
10005f20:	01000044 	movi	r4,1
10005f24:	d8800615 	stw	r2,24(sp)
10005f28:	80c01015 	stw	r3,64(r16)
10005f2c:	d9000b15 	stw	r4,44(sp)
10005f30:	d8002215 	stw	zero,136(sp)
10005f34:	d8800d15 	stw	r2,52(sp)
10005f38:	003c1906 	br	10004fa0 <__alt_data_end+0xf8004fa0>
10005f3c:	193d2926 	beq	r3,r4,100053e4 <__alt_data_end+0xf80053e4>
10005f40:	00c00f04 	movi	r3,60
10005f44:	1885c83a 	sub	r2,r3,r2
10005f48:	003d7b06 	br	10005538 <__alt_data_end+0xf8005538>
10005f4c:	000b883a 	mov	r5,zero
10005f50:	003b1006 	br	10004b94 <__alt_data_end+0xf8004b94>

10005f54 <_fflush_r>:
10005f54:	defffb04 	addi	sp,sp,-20
10005f58:	dcc00315 	stw	r19,12(sp)
10005f5c:	dc000015 	stw	r16,0(sp)
10005f60:	dfc00415 	stw	ra,16(sp)
10005f64:	dc800215 	stw	r18,8(sp)
10005f68:	dc400115 	stw	r17,4(sp)
10005f6c:	2027883a 	mov	r19,r4
10005f70:	2821883a 	mov	r16,r5
10005f74:	20000226 	beq	r4,zero,10005f80 <_fflush_r+0x2c>
10005f78:	20800e17 	ldw	r2,56(r4)
10005f7c:	10005326 	beq	r2,zero,100060cc <_fflush_r+0x178>
10005f80:	8080030b 	ldhu	r2,12(r16)
10005f84:	10ffffcc 	andi	r3,r2,65535
10005f88:	18e0001c 	xori	r3,r3,32768
10005f8c:	18e00004 	addi	r3,r3,-32768
10005f90:	18002c26 	beq	r3,zero,10006044 <_fflush_r+0xf0>
10005f94:	10c0020c 	andi	r3,r2,8
10005f98:	1800321e 	bne	r3,zero,10006064 <_fflush_r+0x110>
10005f9c:	80c00117 	ldw	r3,4(r16)
10005fa0:	10820014 	ori	r2,r2,2048
10005fa4:	8080030d 	sth	r2,12(r16)
10005fa8:	00c0570e 	bge	zero,r3,10006108 <_fflush_r+0x1b4>
10005fac:	82000a17 	ldw	r8,40(r16)
10005fb0:	40002426 	beq	r8,zero,10006044 <_fflush_r+0xf0>
10005fb4:	9c400017 	ldw	r17,0(r19)
10005fb8:	10c4000c 	andi	r3,r2,4096
10005fbc:	98000015 	stw	zero,0(r19)
10005fc0:	18004626 	beq	r3,zero,100060dc <_fflush_r+0x188>
10005fc4:	81801417 	ldw	r6,80(r16)
10005fc8:	10c0010c 	andi	r3,r2,4
10005fcc:	18000626 	beq	r3,zero,10005fe8 <_fflush_r+0x94>
10005fd0:	80c00117 	ldw	r3,4(r16)
10005fd4:	80800c17 	ldw	r2,48(r16)
10005fd8:	30cdc83a 	sub	r6,r6,r3
10005fdc:	10000226 	beq	r2,zero,10005fe8 <_fflush_r+0x94>
10005fe0:	80800f17 	ldw	r2,60(r16)
10005fe4:	308dc83a 	sub	r6,r6,r2
10005fe8:	81400717 	ldw	r5,28(r16)
10005fec:	9809883a 	mov	r4,r19
10005ff0:	000f883a 	mov	r7,zero
10005ff4:	403ee83a 	callr	r8
10005ff8:	00ffffc4 	movi	r3,-1
10005ffc:	10c04526 	beq	r2,r3,10006114 <_fflush_r+0x1c0>
10006000:	80c0030b 	ldhu	r3,12(r16)
10006004:	81000417 	ldw	r4,16(r16)
10006008:	80000115 	stw	zero,4(r16)
1000600c:	197dffcc 	andi	r5,r3,63487
10006010:	8140030d 	sth	r5,12(r16)
10006014:	81000015 	stw	r4,0(r16)
10006018:	18c4000c 	andi	r3,r3,4096
1000601c:	18000126 	beq	r3,zero,10006024 <_fflush_r+0xd0>
10006020:	80801415 	stw	r2,80(r16)
10006024:	81400c17 	ldw	r5,48(r16)
10006028:	9c400015 	stw	r17,0(r19)
1000602c:	28000526 	beq	r5,zero,10006044 <_fflush_r+0xf0>
10006030:	80801004 	addi	r2,r16,64
10006034:	28800226 	beq	r5,r2,10006040 <_fflush_r+0xec>
10006038:	9809883a 	mov	r4,r19
1000603c:	00066840 	call	10006684 <_free_r>
10006040:	80000c15 	stw	zero,48(r16)
10006044:	0005883a 	mov	r2,zero
10006048:	dfc00417 	ldw	ra,16(sp)
1000604c:	dcc00317 	ldw	r19,12(sp)
10006050:	dc800217 	ldw	r18,8(sp)
10006054:	dc400117 	ldw	r17,4(sp)
10006058:	dc000017 	ldw	r16,0(sp)
1000605c:	dec00504 	addi	sp,sp,20
10006060:	f800283a 	ret
10006064:	84800417 	ldw	r18,16(r16)
10006068:	903ff626 	beq	r18,zero,10006044 <__alt_data_end+0xf8006044>
1000606c:	84400017 	ldw	r17,0(r16)
10006070:	108000cc 	andi	r2,r2,3
10006074:	84800015 	stw	r18,0(r16)
10006078:	8ca3c83a 	sub	r17,r17,r18
1000607c:	10001526 	beq	r2,zero,100060d4 <_fflush_r+0x180>
10006080:	0005883a 	mov	r2,zero
10006084:	80800215 	stw	r2,8(r16)
10006088:	04400316 	blt	zero,r17,10006098 <_fflush_r+0x144>
1000608c:	003fed06 	br	10006044 <__alt_data_end+0xf8006044>
10006090:	90a5883a 	add	r18,r18,r2
10006094:	047feb0e 	bge	zero,r17,10006044 <__alt_data_end+0xf8006044>
10006098:	80800917 	ldw	r2,36(r16)
1000609c:	81400717 	ldw	r5,28(r16)
100060a0:	880f883a 	mov	r7,r17
100060a4:	900d883a 	mov	r6,r18
100060a8:	9809883a 	mov	r4,r19
100060ac:	103ee83a 	callr	r2
100060b0:	88a3c83a 	sub	r17,r17,r2
100060b4:	00bff616 	blt	zero,r2,10006090 <__alt_data_end+0xf8006090>
100060b8:	80c0030b 	ldhu	r3,12(r16)
100060bc:	00bfffc4 	movi	r2,-1
100060c0:	18c01014 	ori	r3,r3,64
100060c4:	80c0030d 	sth	r3,12(r16)
100060c8:	003fdf06 	br	10006048 <__alt_data_end+0xf8006048>
100060cc:	00065100 	call	10006510 <__sinit>
100060d0:	003fab06 	br	10005f80 <__alt_data_end+0xf8005f80>
100060d4:	80800517 	ldw	r2,20(r16)
100060d8:	003fea06 	br	10006084 <__alt_data_end+0xf8006084>
100060dc:	81400717 	ldw	r5,28(r16)
100060e0:	000d883a 	mov	r6,zero
100060e4:	9809883a 	mov	r4,r19
100060e8:	01c00044 	movi	r7,1
100060ec:	403ee83a 	callr	r8
100060f0:	100d883a 	mov	r6,r2
100060f4:	00bfffc4 	movi	r2,-1
100060f8:	30801326 	beq	r6,r2,10006148 <_fflush_r+0x1f4>
100060fc:	8080030b 	ldhu	r2,12(r16)
10006100:	82000a17 	ldw	r8,40(r16)
10006104:	003fb006 	br	10005fc8 <__alt_data_end+0xf8005fc8>
10006108:	80c00f17 	ldw	r3,60(r16)
1000610c:	00ffa716 	blt	zero,r3,10005fac <__alt_data_end+0xf8005fac>
10006110:	003fcc06 	br	10006044 <__alt_data_end+0xf8006044>
10006114:	98c00017 	ldw	r3,0(r19)
10006118:	183fb926 	beq	r3,zero,10006000 <__alt_data_end+0xf8006000>
1000611c:	01000744 	movi	r4,29
10006120:	19000226 	beq	r3,r4,1000612c <_fflush_r+0x1d8>
10006124:	01000584 	movi	r4,22
10006128:	1900101e 	bne	r3,r4,1000616c <_fflush_r+0x218>
1000612c:	8080030b 	ldhu	r2,12(r16)
10006130:	80c00417 	ldw	r3,16(r16)
10006134:	80000115 	stw	zero,4(r16)
10006138:	10bdffcc 	andi	r2,r2,63487
1000613c:	8080030d 	sth	r2,12(r16)
10006140:	80c00015 	stw	r3,0(r16)
10006144:	003fb706 	br	10006024 <__alt_data_end+0xf8006024>
10006148:	98800017 	ldw	r2,0(r19)
1000614c:	103feb26 	beq	r2,zero,100060fc <__alt_data_end+0xf80060fc>
10006150:	00c00744 	movi	r3,29
10006154:	10c00226 	beq	r2,r3,10006160 <_fflush_r+0x20c>
10006158:	00c00584 	movi	r3,22
1000615c:	10ffd61e 	bne	r2,r3,100060b8 <__alt_data_end+0xf80060b8>
10006160:	9c400015 	stw	r17,0(r19)
10006164:	0005883a 	mov	r2,zero
10006168:	003fb706 	br	10006048 <__alt_data_end+0xf8006048>
1000616c:	80c0030b 	ldhu	r3,12(r16)
10006170:	18c01014 	ori	r3,r3,64
10006174:	80c0030d 	sth	r3,12(r16)
10006178:	003fb306 	br	10006048 <__alt_data_end+0xf8006048>

1000617c <fflush>:
1000617c:	20000526 	beq	r4,zero,10006194 <fflush+0x18>
10006180:	00840074 	movhi	r2,4097
10006184:	108e3904 	addi	r2,r2,14564
10006188:	200b883a 	mov	r5,r4
1000618c:	11000017 	ldw	r4,0(r2)
10006190:	0005f541 	jmpi	10005f54 <_fflush_r>
10006194:	00840074 	movhi	r2,4097
10006198:	108e3804 	addi	r2,r2,14560
1000619c:	11000017 	ldw	r4,0(r2)
100061a0:	01440034 	movhi	r5,4096
100061a4:	2957d504 	addi	r5,r5,24404
100061a8:	0006ed01 	jmpi	10006ed0 <_fwalk_reent>

100061ac <__fp_lock>:
100061ac:	0005883a 	mov	r2,zero
100061b0:	f800283a 	ret

100061b4 <__fp_unlock>:
100061b4:	0005883a 	mov	r2,zero
100061b8:	f800283a 	ret

100061bc <_cleanup_r>:
100061bc:	01440074 	movhi	r5,4097
100061c0:	296bb704 	addi	r5,r5,-20772
100061c4:	0006e181 	jmpi	10006e18 <_fwalk>

100061c8 <__sinit.part.1>:
100061c8:	defff604 	addi	sp,sp,-40
100061cc:	00c40034 	movhi	r3,4096
100061d0:	dfc00915 	stw	ra,36(sp)
100061d4:	df000815 	stw	fp,32(sp)
100061d8:	ddc00715 	stw	r23,28(sp)
100061dc:	dd800615 	stw	r22,24(sp)
100061e0:	dd400515 	stw	r21,20(sp)
100061e4:	dd000415 	stw	r20,16(sp)
100061e8:	dcc00315 	stw	r19,12(sp)
100061ec:	dc800215 	stw	r18,8(sp)
100061f0:	dc400115 	stw	r17,4(sp)
100061f4:	dc000015 	stw	r16,0(sp)
100061f8:	18d86f04 	addi	r3,r3,25020
100061fc:	24000117 	ldw	r16,4(r4)
10006200:	20c00f15 	stw	r3,60(r4)
10006204:	07000044 	movi	fp,1
10006208:	00c000c4 	movi	r3,3
1000620c:	2080bb04 	addi	r2,r4,748
10006210:	20c0b915 	stw	r3,740(r4)
10006214:	27000e15 	stw	fp,56(r4)
10006218:	2080ba15 	stw	r2,744(r4)
1000621c:	2000b815 	stw	zero,736(r4)
10006220:	05c00204 	movi	r23,8
10006224:	00800104 	movi	r2,4
10006228:	2025883a 	mov	r18,r4
1000622c:	b80d883a 	mov	r6,r23
10006230:	81001704 	addi	r4,r16,92
10006234:	000b883a 	mov	r5,zero
10006238:	80000015 	stw	zero,0(r16)
1000623c:	80000115 	stw	zero,4(r16)
10006240:	80000215 	stw	zero,8(r16)
10006244:	8080030d 	sth	r2,12(r16)
10006248:	80001915 	stw	zero,100(r16)
1000624c:	8000038d 	sth	zero,14(r16)
10006250:	80000415 	stw	zero,16(r16)
10006254:	80000515 	stw	zero,20(r16)
10006258:	80000615 	stw	zero,24(r16)
1000625c:	0007d440 	call	10007d44 <memset>
10006260:	05840074 	movhi	r22,4097
10006264:	94400217 	ldw	r17,8(r18)
10006268:	05440074 	movhi	r21,4097
1000626c:	05040074 	movhi	r20,4097
10006270:	04c40074 	movhi	r19,4097
10006274:	b5a54604 	addi	r22,r22,-27368
10006278:	ad655d04 	addi	r21,r21,-27276
1000627c:	a5257c04 	addi	r20,r20,-27152
10006280:	9ce59304 	addi	r19,r19,-27060
10006284:	85800815 	stw	r22,32(r16)
10006288:	85400915 	stw	r21,36(r16)
1000628c:	85000a15 	stw	r20,40(r16)
10006290:	84c00b15 	stw	r19,44(r16)
10006294:	84000715 	stw	r16,28(r16)
10006298:	00800284 	movi	r2,10
1000629c:	89001704 	addi	r4,r17,92
100062a0:	b80d883a 	mov	r6,r23
100062a4:	000b883a 	mov	r5,zero
100062a8:	88000015 	stw	zero,0(r17)
100062ac:	88000115 	stw	zero,4(r17)
100062b0:	88000215 	stw	zero,8(r17)
100062b4:	8880030d 	sth	r2,12(r17)
100062b8:	88001915 	stw	zero,100(r17)
100062bc:	8f00038d 	sth	fp,14(r17)
100062c0:	88000415 	stw	zero,16(r17)
100062c4:	88000515 	stw	zero,20(r17)
100062c8:	88000615 	stw	zero,24(r17)
100062cc:	0007d440 	call	10007d44 <memset>
100062d0:	94000317 	ldw	r16,12(r18)
100062d4:	00800484 	movi	r2,18
100062d8:	8c400715 	stw	r17,28(r17)
100062dc:	8d800815 	stw	r22,32(r17)
100062e0:	8d400915 	stw	r21,36(r17)
100062e4:	8d000a15 	stw	r20,40(r17)
100062e8:	8cc00b15 	stw	r19,44(r17)
100062ec:	8080030d 	sth	r2,12(r16)
100062f0:	00800084 	movi	r2,2
100062f4:	80000015 	stw	zero,0(r16)
100062f8:	80000115 	stw	zero,4(r16)
100062fc:	80000215 	stw	zero,8(r16)
10006300:	80001915 	stw	zero,100(r16)
10006304:	8080038d 	sth	r2,14(r16)
10006308:	80000415 	stw	zero,16(r16)
1000630c:	80000515 	stw	zero,20(r16)
10006310:	80000615 	stw	zero,24(r16)
10006314:	81001704 	addi	r4,r16,92
10006318:	000b883a 	mov	r5,zero
1000631c:	b80d883a 	mov	r6,r23
10006320:	0007d440 	call	10007d44 <memset>
10006324:	84000715 	stw	r16,28(r16)
10006328:	85800815 	stw	r22,32(r16)
1000632c:	85400915 	stw	r21,36(r16)
10006330:	85000a15 	stw	r20,40(r16)
10006334:	84c00b15 	stw	r19,44(r16)
10006338:	dfc00917 	ldw	ra,36(sp)
1000633c:	df000817 	ldw	fp,32(sp)
10006340:	ddc00717 	ldw	r23,28(sp)
10006344:	dd800617 	ldw	r22,24(sp)
10006348:	dd400517 	ldw	r21,20(sp)
1000634c:	dd000417 	ldw	r20,16(sp)
10006350:	dcc00317 	ldw	r19,12(sp)
10006354:	dc800217 	ldw	r18,8(sp)
10006358:	dc400117 	ldw	r17,4(sp)
1000635c:	dc000017 	ldw	r16,0(sp)
10006360:	dec00a04 	addi	sp,sp,40
10006364:	f800283a 	ret

10006368 <__sfmoreglue>:
10006368:	defffc04 	addi	sp,sp,-16
1000636c:	dc800215 	stw	r18,8(sp)
10006370:	2825883a 	mov	r18,r5
10006374:	dc000015 	stw	r16,0(sp)
10006378:	01401a04 	movi	r5,104
1000637c:	2021883a 	mov	r16,r4
10006380:	9009883a 	mov	r4,r18
10006384:	dfc00315 	stw	ra,12(sp)
10006388:	dc400115 	stw	r17,4(sp)
1000638c:	000c3280 	call	1000c328 <__mulsi3>
10006390:	8009883a 	mov	r4,r16
10006394:	11400304 	addi	r5,r2,12
10006398:	1023883a 	mov	r17,r2
1000639c:	00072200 	call	10007220 <_malloc_r>
100063a0:	1021883a 	mov	r16,r2
100063a4:	10000726 	beq	r2,zero,100063c4 <__sfmoreglue+0x5c>
100063a8:	11000304 	addi	r4,r2,12
100063ac:	10000015 	stw	zero,0(r2)
100063b0:	14800115 	stw	r18,4(r2)
100063b4:	11000215 	stw	r4,8(r2)
100063b8:	000b883a 	mov	r5,zero
100063bc:	880d883a 	mov	r6,r17
100063c0:	0007d440 	call	10007d44 <memset>
100063c4:	8005883a 	mov	r2,r16
100063c8:	dfc00317 	ldw	ra,12(sp)
100063cc:	dc800217 	ldw	r18,8(sp)
100063d0:	dc400117 	ldw	r17,4(sp)
100063d4:	dc000017 	ldw	r16,0(sp)
100063d8:	dec00404 	addi	sp,sp,16
100063dc:	f800283a 	ret

100063e0 <__sfp>:
100063e0:	00840074 	movhi	r2,4097
100063e4:	defffb04 	addi	sp,sp,-20
100063e8:	108e3804 	addi	r2,r2,14560
100063ec:	dc800215 	stw	r18,8(sp)
100063f0:	14800017 	ldw	r18,0(r2)
100063f4:	dcc00315 	stw	r19,12(sp)
100063f8:	dfc00415 	stw	ra,16(sp)
100063fc:	90800e17 	ldw	r2,56(r18)
10006400:	dc400115 	stw	r17,4(sp)
10006404:	dc000015 	stw	r16,0(sp)
10006408:	2027883a 	mov	r19,r4
1000640c:	1000021e 	bne	r2,zero,10006418 <__sfp+0x38>
10006410:	9009883a 	mov	r4,r18
10006414:	00061c80 	call	100061c8 <__sinit.part.1>
10006418:	9480b804 	addi	r18,r18,736
1000641c:	047fffc4 	movi	r17,-1
10006420:	91400117 	ldw	r5,4(r18)
10006424:	94000217 	ldw	r16,8(r18)
10006428:	297fffc4 	addi	r5,r5,-1
1000642c:	28000a16 	blt	r5,zero,10006458 <__sfp+0x78>
10006430:	8080030f 	ldh	r2,12(r16)
10006434:	10000c26 	beq	r2,zero,10006468 <__sfp+0x88>
10006438:	80c01d04 	addi	r3,r16,116
1000643c:	00000206 	br	10006448 <__sfp+0x68>
10006440:	18bfe60f 	ldh	r2,-104(r3)
10006444:	10000826 	beq	r2,zero,10006468 <__sfp+0x88>
10006448:	297fffc4 	addi	r5,r5,-1
1000644c:	1c3ffd04 	addi	r16,r3,-12
10006450:	18c01a04 	addi	r3,r3,104
10006454:	2c7ffa1e 	bne	r5,r17,10006440 <__alt_data_end+0xf8006440>
10006458:	90800017 	ldw	r2,0(r18)
1000645c:	10001d26 	beq	r2,zero,100064d4 <__sfp+0xf4>
10006460:	1025883a 	mov	r18,r2
10006464:	003fee06 	br	10006420 <__alt_data_end+0xf8006420>
10006468:	00bfffc4 	movi	r2,-1
1000646c:	8080038d 	sth	r2,14(r16)
10006470:	00800044 	movi	r2,1
10006474:	8080030d 	sth	r2,12(r16)
10006478:	80001915 	stw	zero,100(r16)
1000647c:	80000015 	stw	zero,0(r16)
10006480:	80000215 	stw	zero,8(r16)
10006484:	80000115 	stw	zero,4(r16)
10006488:	80000415 	stw	zero,16(r16)
1000648c:	80000515 	stw	zero,20(r16)
10006490:	80000615 	stw	zero,24(r16)
10006494:	81001704 	addi	r4,r16,92
10006498:	000b883a 	mov	r5,zero
1000649c:	01800204 	movi	r6,8
100064a0:	0007d440 	call	10007d44 <memset>
100064a4:	8005883a 	mov	r2,r16
100064a8:	80000c15 	stw	zero,48(r16)
100064ac:	80000d15 	stw	zero,52(r16)
100064b0:	80001115 	stw	zero,68(r16)
100064b4:	80001215 	stw	zero,72(r16)
100064b8:	dfc00417 	ldw	ra,16(sp)
100064bc:	dcc00317 	ldw	r19,12(sp)
100064c0:	dc800217 	ldw	r18,8(sp)
100064c4:	dc400117 	ldw	r17,4(sp)
100064c8:	dc000017 	ldw	r16,0(sp)
100064cc:	dec00504 	addi	sp,sp,20
100064d0:	f800283a 	ret
100064d4:	9809883a 	mov	r4,r19
100064d8:	01400104 	movi	r5,4
100064dc:	00063680 	call	10006368 <__sfmoreglue>
100064e0:	90800015 	stw	r2,0(r18)
100064e4:	103fde1e 	bne	r2,zero,10006460 <__alt_data_end+0xf8006460>
100064e8:	00800304 	movi	r2,12
100064ec:	98800015 	stw	r2,0(r19)
100064f0:	0005883a 	mov	r2,zero
100064f4:	003ff006 	br	100064b8 <__alt_data_end+0xf80064b8>

100064f8 <_cleanup>:
100064f8:	00840074 	movhi	r2,4097
100064fc:	108e3804 	addi	r2,r2,14560
10006500:	11000017 	ldw	r4,0(r2)
10006504:	01440074 	movhi	r5,4097
10006508:	296bb704 	addi	r5,r5,-20772
1000650c:	0006e181 	jmpi	10006e18 <_fwalk>

10006510 <__sinit>:
10006510:	20800e17 	ldw	r2,56(r4)
10006514:	10000126 	beq	r2,zero,1000651c <__sinit+0xc>
10006518:	f800283a 	ret
1000651c:	00061c81 	jmpi	100061c8 <__sinit.part.1>

10006520 <__sfp_lock_acquire>:
10006520:	f800283a 	ret

10006524 <__sfp_lock_release>:
10006524:	f800283a 	ret

10006528 <__sinit_lock_acquire>:
10006528:	f800283a 	ret

1000652c <__sinit_lock_release>:
1000652c:	f800283a 	ret

10006530 <__fp_lock_all>:
10006530:	00840074 	movhi	r2,4097
10006534:	108e3904 	addi	r2,r2,14564
10006538:	11000017 	ldw	r4,0(r2)
1000653c:	01440034 	movhi	r5,4096
10006540:	29586b04 	addi	r5,r5,25004
10006544:	0006e181 	jmpi	10006e18 <_fwalk>

10006548 <__fp_unlock_all>:
10006548:	00840074 	movhi	r2,4097
1000654c:	108e3904 	addi	r2,r2,14564
10006550:	11000017 	ldw	r4,0(r2)
10006554:	01440034 	movhi	r5,4096
10006558:	29586d04 	addi	r5,r5,25012
1000655c:	0006e181 	jmpi	10006e18 <_fwalk>

10006560 <_malloc_trim_r>:
10006560:	defffb04 	addi	sp,sp,-20
10006564:	dcc00315 	stw	r19,12(sp)
10006568:	04c40074 	movhi	r19,4097
1000656c:	dc800215 	stw	r18,8(sp)
10006570:	dc400115 	stw	r17,4(sp)
10006574:	dc000015 	stw	r16,0(sp)
10006578:	dfc00415 	stw	ra,16(sp)
1000657c:	2821883a 	mov	r16,r5
10006580:	9cc8b304 	addi	r19,r19,8908
10006584:	2025883a 	mov	r18,r4
10006588:	000f12c0 	call	1000f12c <__malloc_lock>
1000658c:	98800217 	ldw	r2,8(r19)
10006590:	14400117 	ldw	r17,4(r2)
10006594:	00bfff04 	movi	r2,-4
10006598:	88a2703a 	and	r17,r17,r2
1000659c:	8c21c83a 	sub	r16,r17,r16
100065a0:	8403fbc4 	addi	r16,r16,4079
100065a4:	8020d33a 	srli	r16,r16,12
100065a8:	0083ffc4 	movi	r2,4095
100065ac:	843fffc4 	addi	r16,r16,-1
100065b0:	8020933a 	slli	r16,r16,12
100065b4:	1400060e 	bge	r2,r16,100065d0 <_malloc_trim_r+0x70>
100065b8:	9009883a 	mov	r4,r18
100065bc:	000b883a 	mov	r5,zero
100065c0:	00094c40 	call	100094c4 <_sbrk_r>
100065c4:	98c00217 	ldw	r3,8(r19)
100065c8:	1c47883a 	add	r3,r3,r17
100065cc:	10c00a26 	beq	r2,r3,100065f8 <_malloc_trim_r+0x98>
100065d0:	9009883a 	mov	r4,r18
100065d4:	000f14c0 	call	1000f14c <__malloc_unlock>
100065d8:	0005883a 	mov	r2,zero
100065dc:	dfc00417 	ldw	ra,16(sp)
100065e0:	dcc00317 	ldw	r19,12(sp)
100065e4:	dc800217 	ldw	r18,8(sp)
100065e8:	dc400117 	ldw	r17,4(sp)
100065ec:	dc000017 	ldw	r16,0(sp)
100065f0:	dec00504 	addi	sp,sp,20
100065f4:	f800283a 	ret
100065f8:	9009883a 	mov	r4,r18
100065fc:	040bc83a 	sub	r5,zero,r16
10006600:	00094c40 	call	100094c4 <_sbrk_r>
10006604:	00ffffc4 	movi	r3,-1
10006608:	10c00d26 	beq	r2,r3,10006640 <_malloc_trim_r+0xe0>
1000660c:	00c40074 	movhi	r3,4097
10006610:	18d51204 	addi	r3,r3,21576
10006614:	18800017 	ldw	r2,0(r3)
10006618:	99000217 	ldw	r4,8(r19)
1000661c:	8c23c83a 	sub	r17,r17,r16
10006620:	8c400054 	ori	r17,r17,1
10006624:	1421c83a 	sub	r16,r2,r16
10006628:	24400115 	stw	r17,4(r4)
1000662c:	9009883a 	mov	r4,r18
10006630:	1c000015 	stw	r16,0(r3)
10006634:	000f14c0 	call	1000f14c <__malloc_unlock>
10006638:	00800044 	movi	r2,1
1000663c:	003fe706 	br	100065dc <__alt_data_end+0xf80065dc>
10006640:	9009883a 	mov	r4,r18
10006644:	000b883a 	mov	r5,zero
10006648:	00094c40 	call	100094c4 <_sbrk_r>
1000664c:	99000217 	ldw	r4,8(r19)
10006650:	014003c4 	movi	r5,15
10006654:	1107c83a 	sub	r3,r2,r4
10006658:	28ffdd0e 	bge	r5,r3,100065d0 <__alt_data_end+0xf80065d0>
1000665c:	01440074 	movhi	r5,4097
10006660:	294e3b04 	addi	r5,r5,14572
10006664:	29400017 	ldw	r5,0(r5)
10006668:	18c00054 	ori	r3,r3,1
1000666c:	20c00115 	stw	r3,4(r4)
10006670:	00c40074 	movhi	r3,4097
10006674:	1145c83a 	sub	r2,r2,r5
10006678:	18d51204 	addi	r3,r3,21576
1000667c:	18800015 	stw	r2,0(r3)
10006680:	003fd306 	br	100065d0 <__alt_data_end+0xf80065d0>

10006684 <_free_r>:
10006684:	28004c26 	beq	r5,zero,100067b8 <_free_r+0x134>
10006688:	defffd04 	addi	sp,sp,-12
1000668c:	dc400115 	stw	r17,4(sp)
10006690:	dc000015 	stw	r16,0(sp)
10006694:	2023883a 	mov	r17,r4
10006698:	2821883a 	mov	r16,r5
1000669c:	dfc00215 	stw	ra,8(sp)
100066a0:	000f12c0 	call	1000f12c <__malloc_lock>
100066a4:	813fff17 	ldw	r4,-4(r16)
100066a8:	00bfff84 	movi	r2,-2
100066ac:	02440074 	movhi	r9,4097
100066b0:	81bffe04 	addi	r6,r16,-8
100066b4:	2084703a 	and	r2,r4,r2
100066b8:	4a48b304 	addi	r9,r9,8908
100066bc:	308b883a 	add	r5,r6,r2
100066c0:	2a000117 	ldw	r8,4(r5)
100066c4:	49c00217 	ldw	r7,8(r9)
100066c8:	00ffff04 	movi	r3,-4
100066cc:	40c6703a 	and	r3,r8,r3
100066d0:	39405326 	beq	r7,r5,10006820 <_free_r+0x19c>
100066d4:	28c00115 	stw	r3,4(r5)
100066d8:	2100004c 	andi	r4,r4,1
100066dc:	2000091e 	bne	r4,zero,10006704 <_free_r+0x80>
100066e0:	81fffe17 	ldw	r7,-8(r16)
100066e4:	4a000204 	addi	r8,r9,8
100066e8:	31cdc83a 	sub	r6,r6,r7
100066ec:	31000217 	ldw	r4,8(r6)
100066f0:	11c5883a 	add	r2,r2,r7
100066f4:	22006126 	beq	r4,r8,1000687c <_free_r+0x1f8>
100066f8:	31c00317 	ldw	r7,12(r6)
100066fc:	21c00315 	stw	r7,12(r4)
10006700:	39000215 	stw	r4,8(r7)
10006704:	28c9883a 	add	r4,r5,r3
10006708:	21c00117 	ldw	r7,4(r4)
1000670c:	39c0004c 	andi	r7,r7,1
10006710:	38000d1e 	bne	r7,zero,10006748 <_free_r+0xc4>
10006714:	29000217 	ldw	r4,8(r5)
10006718:	10c5883a 	add	r2,r2,r3
1000671c:	00c40074 	movhi	r3,4097
10006720:	18c8b504 	addi	r3,r3,8916
10006724:	20c07526 	beq	r4,r3,100068fc <_free_r+0x278>
10006728:	29c00317 	ldw	r7,12(r5)
1000672c:	11400054 	ori	r5,r2,1
10006730:	3087883a 	add	r3,r6,r2
10006734:	21c00315 	stw	r7,12(r4)
10006738:	39000215 	stw	r4,8(r7)
1000673c:	31400115 	stw	r5,4(r6)
10006740:	18800015 	stw	r2,0(r3)
10006744:	00000406 	br	10006758 <_free_r+0xd4>
10006748:	10c00054 	ori	r3,r2,1
1000674c:	30c00115 	stw	r3,4(r6)
10006750:	3087883a 	add	r3,r6,r2
10006754:	18800015 	stw	r2,0(r3)
10006758:	00c07fc4 	movi	r3,511
1000675c:	18801736 	bltu	r3,r2,100067bc <_free_r+0x138>
10006760:	1004d0fa 	srli	r2,r2,3
10006764:	01400044 	movi	r5,1
10006768:	49000117 	ldw	r4,4(r9)
1000676c:	1087883a 	add	r3,r2,r2
10006770:	18c7883a 	add	r3,r3,r3
10006774:	1005d0ba 	srai	r2,r2,2
10006778:	18c7883a 	add	r3,r3,r3
1000677c:	1a47883a 	add	r3,r3,r9
10006780:	19c00217 	ldw	r7,8(r3)
10006784:	2884983a 	sll	r2,r5,r2
10006788:	30c00315 	stw	r3,12(r6)
1000678c:	31c00215 	stw	r7,8(r6)
10006790:	1104b03a 	or	r2,r2,r4
10006794:	19800215 	stw	r6,8(r3)
10006798:	48800115 	stw	r2,4(r9)
1000679c:	39800315 	stw	r6,12(r7)
100067a0:	8809883a 	mov	r4,r17
100067a4:	dfc00217 	ldw	ra,8(sp)
100067a8:	dc400117 	ldw	r17,4(sp)
100067ac:	dc000017 	ldw	r16,0(sp)
100067b0:	dec00304 	addi	sp,sp,12
100067b4:	000f14c1 	jmpi	1000f14c <__malloc_unlock>
100067b8:	f800283a 	ret
100067bc:	1006d27a 	srli	r3,r2,9
100067c0:	01000104 	movi	r4,4
100067c4:	20c04036 	bltu	r4,r3,100068c8 <_free_r+0x244>
100067c8:	1006d1ba 	srli	r3,r2,6
100067cc:	19400e04 	addi	r5,r3,56
100067d0:	2947883a 	add	r3,r5,r5
100067d4:	18c7883a 	add	r3,r3,r3
100067d8:	18c7883a 	add	r3,r3,r3
100067dc:	1a49883a 	add	r4,r3,r9
100067e0:	20c00217 	ldw	r3,8(r4)
100067e4:	01c40074 	movhi	r7,4097
100067e8:	39c8b304 	addi	r7,r7,8908
100067ec:	19003b26 	beq	r3,r4,100068dc <_free_r+0x258>
100067f0:	01ffff04 	movi	r7,-4
100067f4:	19400117 	ldw	r5,4(r3)
100067f8:	29ca703a 	and	r5,r5,r7
100067fc:	1140022e 	bgeu	r2,r5,10006808 <_free_r+0x184>
10006800:	18c00217 	ldw	r3,8(r3)
10006804:	20fffb1e 	bne	r4,r3,100067f4 <__alt_data_end+0xf80067f4>
10006808:	18800317 	ldw	r2,12(r3)
1000680c:	30800315 	stw	r2,12(r6)
10006810:	30c00215 	stw	r3,8(r6)
10006814:	11800215 	stw	r6,8(r2)
10006818:	19800315 	stw	r6,12(r3)
1000681c:	003fe006 	br	100067a0 <__alt_data_end+0xf80067a0>
10006820:	2100004c 	andi	r4,r4,1
10006824:	1885883a 	add	r2,r3,r2
10006828:	2000071e 	bne	r4,zero,10006848 <_free_r+0x1c4>
1000682c:	817ffe17 	ldw	r5,-8(r16)
10006830:	314dc83a 	sub	r6,r6,r5
10006834:	30c00317 	ldw	r3,12(r6)
10006838:	31000217 	ldw	r4,8(r6)
1000683c:	1145883a 	add	r2,r2,r5
10006840:	20c00315 	stw	r3,12(r4)
10006844:	19000215 	stw	r4,8(r3)
10006848:	10c00054 	ori	r3,r2,1
1000684c:	30c00115 	stw	r3,4(r6)
10006850:	00c40074 	movhi	r3,4097
10006854:	18ce3c04 	addi	r3,r3,14576
10006858:	18c00017 	ldw	r3,0(r3)
1000685c:	49800215 	stw	r6,8(r9)
10006860:	10ffcf36 	bltu	r2,r3,100067a0 <__alt_data_end+0xf80067a0>
10006864:	00840074 	movhi	r2,4097
10006868:	10950a04 	addi	r2,r2,21544
1000686c:	11400017 	ldw	r5,0(r2)
10006870:	8809883a 	mov	r4,r17
10006874:	00065600 	call	10006560 <_malloc_trim_r>
10006878:	003fc906 	br	100067a0 <__alt_data_end+0xf80067a0>
1000687c:	28c9883a 	add	r4,r5,r3
10006880:	21000117 	ldw	r4,4(r4)
10006884:	2100004c 	andi	r4,r4,1
10006888:	20000a1e 	bne	r4,zero,100068b4 <_free_r+0x230>
1000688c:	29000317 	ldw	r4,12(r5)
10006890:	29400217 	ldw	r5,8(r5)
10006894:	10c5883a 	add	r2,r2,r3
10006898:	10c00054 	ori	r3,r2,1
1000689c:	29000315 	stw	r4,12(r5)
100068a0:	21400215 	stw	r5,8(r4)
100068a4:	30c00115 	stw	r3,4(r6)
100068a8:	308d883a 	add	r6,r6,r2
100068ac:	30800015 	stw	r2,0(r6)
100068b0:	003fbb06 	br	100067a0 <__alt_data_end+0xf80067a0>
100068b4:	10c00054 	ori	r3,r2,1
100068b8:	30c00115 	stw	r3,4(r6)
100068bc:	308d883a 	add	r6,r6,r2
100068c0:	30800015 	stw	r2,0(r6)
100068c4:	003fb606 	br	100067a0 <__alt_data_end+0xf80067a0>
100068c8:	01000504 	movi	r4,20
100068cc:	20c01436 	bltu	r4,r3,10006920 <_free_r+0x29c>
100068d0:	194016c4 	addi	r5,r3,91
100068d4:	2947883a 	add	r3,r5,r5
100068d8:	003fbe06 	br	100067d4 <__alt_data_end+0xf80067d4>
100068dc:	280bd0ba 	srai	r5,r5,2
100068e0:	00800044 	movi	r2,1
100068e4:	39000117 	ldw	r4,4(r7)
100068e8:	114a983a 	sll	r5,r2,r5
100068ec:	1805883a 	mov	r2,r3
100068f0:	2908b03a 	or	r4,r5,r4
100068f4:	39000115 	stw	r4,4(r7)
100068f8:	003fc406 	br	1000680c <__alt_data_end+0xf800680c>
100068fc:	49800515 	stw	r6,20(r9)
10006900:	49800415 	stw	r6,16(r9)
10006904:	10c00054 	ori	r3,r2,1
10006908:	31000315 	stw	r4,12(r6)
1000690c:	31000215 	stw	r4,8(r6)
10006910:	30c00115 	stw	r3,4(r6)
10006914:	308d883a 	add	r6,r6,r2
10006918:	30800015 	stw	r2,0(r6)
1000691c:	003fa006 	br	100067a0 <__alt_data_end+0xf80067a0>
10006920:	01001504 	movi	r4,84
10006924:	20c00436 	bltu	r4,r3,10006938 <_free_r+0x2b4>
10006928:	1006d33a 	srli	r3,r2,12
1000692c:	19401b84 	addi	r5,r3,110
10006930:	2947883a 	add	r3,r5,r5
10006934:	003fa706 	br	100067d4 <__alt_data_end+0xf80067d4>
10006938:	01005504 	movi	r4,340
1000693c:	20c00436 	bltu	r4,r3,10006950 <_free_r+0x2cc>
10006940:	1006d3fa 	srli	r3,r2,15
10006944:	19401dc4 	addi	r5,r3,119
10006948:	2947883a 	add	r3,r5,r5
1000694c:	003fa106 	br	100067d4 <__alt_data_end+0xf80067d4>
10006950:	01015504 	movi	r4,1364
10006954:	20c00436 	bltu	r4,r3,10006968 <_free_r+0x2e4>
10006958:	1006d4ba 	srli	r3,r2,18
1000695c:	19401f04 	addi	r5,r3,124
10006960:	2947883a 	add	r3,r5,r5
10006964:	003f9b06 	br	100067d4 <__alt_data_end+0xf80067d4>
10006968:	00c03f04 	movi	r3,252
1000696c:	01401f84 	movi	r5,126
10006970:	003f9806 	br	100067d4 <__alt_data_end+0xf80067d4>

10006974 <__sfvwrite_r>:
10006974:	30800217 	ldw	r2,8(r6)
10006978:	10004526 	beq	r2,zero,10006a90 <__sfvwrite_r+0x11c>
1000697c:	28c0030b 	ldhu	r3,12(r5)
10006980:	defff404 	addi	sp,sp,-48
10006984:	dd400715 	stw	r21,28(sp)
10006988:	dcc00515 	stw	r19,20(sp)
1000698c:	dc000215 	stw	r16,8(sp)
10006990:	dfc00b15 	stw	ra,44(sp)
10006994:	df000a15 	stw	fp,40(sp)
10006998:	ddc00915 	stw	r23,36(sp)
1000699c:	dd800815 	stw	r22,32(sp)
100069a0:	dd000615 	stw	r20,24(sp)
100069a4:	dc800415 	stw	r18,16(sp)
100069a8:	dc400315 	stw	r17,12(sp)
100069ac:	1880020c 	andi	r2,r3,8
100069b0:	2821883a 	mov	r16,r5
100069b4:	202b883a 	mov	r21,r4
100069b8:	3027883a 	mov	r19,r6
100069bc:	10002526 	beq	r2,zero,10006a54 <__sfvwrite_r+0xe0>
100069c0:	28800417 	ldw	r2,16(r5)
100069c4:	10002326 	beq	r2,zero,10006a54 <__sfvwrite_r+0xe0>
100069c8:	1880008c 	andi	r2,r3,2
100069cc:	9c400017 	ldw	r17,0(r19)
100069d0:	10003126 	beq	r2,zero,10006a98 <__sfvwrite_r+0x124>
100069d4:	0029883a 	mov	r20,zero
100069d8:	0025883a 	mov	r18,zero
100069dc:	05810004 	movi	r22,1024
100069e0:	a00d883a 	mov	r6,r20
100069e4:	a809883a 	mov	r4,r21
100069e8:	90002526 	beq	r18,zero,10006a80 <__sfvwrite_r+0x10c>
100069ec:	900f883a 	mov	r7,r18
100069f0:	81400717 	ldw	r5,28(r16)
100069f4:	b480012e 	bgeu	r22,r18,100069fc <__sfvwrite_r+0x88>
100069f8:	01c10004 	movi	r7,1024
100069fc:	80800917 	ldw	r2,36(r16)
10006a00:	103ee83a 	callr	r2
10006a04:	0080510e 	bge	zero,r2,10006b4c <__sfvwrite_r+0x1d8>
10006a08:	98c00217 	ldw	r3,8(r19)
10006a0c:	a0a9883a 	add	r20,r20,r2
10006a10:	90a5c83a 	sub	r18,r18,r2
10006a14:	1885c83a 	sub	r2,r3,r2
10006a18:	98800215 	stw	r2,8(r19)
10006a1c:	103ff01e 	bne	r2,zero,100069e0 <__alt_data_end+0xf80069e0>
10006a20:	0005883a 	mov	r2,zero
10006a24:	dfc00b17 	ldw	ra,44(sp)
10006a28:	df000a17 	ldw	fp,40(sp)
10006a2c:	ddc00917 	ldw	r23,36(sp)
10006a30:	dd800817 	ldw	r22,32(sp)
10006a34:	dd400717 	ldw	r21,28(sp)
10006a38:	dd000617 	ldw	r20,24(sp)
10006a3c:	dcc00517 	ldw	r19,20(sp)
10006a40:	dc800417 	ldw	r18,16(sp)
10006a44:	dc400317 	ldw	r17,12(sp)
10006a48:	dc000217 	ldw	r16,8(sp)
10006a4c:	dec00c04 	addi	sp,sp,48
10006a50:	f800283a 	ret
10006a54:	a809883a 	mov	r4,r21
10006a58:	800b883a 	mov	r5,r16
10006a5c:	00044d40 	call	100044d4 <__swsetup_r>
10006a60:	80c0030b 	ldhu	r3,12(r16)
10006a64:	103fd826 	beq	r2,zero,100069c8 <__alt_data_end+0xf80069c8>
10006a68:	18c01014 	ori	r3,r3,64
10006a6c:	80c0030d 	sth	r3,12(r16)
10006a70:	00c00244 	movi	r3,9
10006a74:	00bfffc4 	movi	r2,-1
10006a78:	a8c00015 	stw	r3,0(r21)
10006a7c:	003fe906 	br	10006a24 <__alt_data_end+0xf8006a24>
10006a80:	8d000017 	ldw	r20,0(r17)
10006a84:	8c800117 	ldw	r18,4(r17)
10006a88:	8c400204 	addi	r17,r17,8
10006a8c:	003fd406 	br	100069e0 <__alt_data_end+0xf80069e0>
10006a90:	0005883a 	mov	r2,zero
10006a94:	f800283a 	ret
10006a98:	1880004c 	andi	r2,r3,1
10006a9c:	1000301e 	bne	r2,zero,10006b60 <__sfvwrite_r+0x1ec>
10006aa0:	002f883a 	mov	r23,zero
10006aa4:	0025883a 	mov	r18,zero
10006aa8:	90001c26 	beq	r18,zero,10006b1c <__sfvwrite_r+0x1a8>
10006aac:	1880800c 	andi	r2,r3,512
10006ab0:	85000217 	ldw	r20,8(r16)
10006ab4:	10006c26 	beq	r2,zero,10006c68 <__sfvwrite_r+0x2f4>
10006ab8:	a02d883a 	mov	r22,r20
10006abc:	95008536 	bltu	r18,r20,10006cd4 <__sfvwrite_r+0x360>
10006ac0:	1881200c 	andi	r2,r3,1152
10006ac4:	10009d1e 	bne	r2,zero,10006d3c <__sfvwrite_r+0x3c8>
10006ac8:	81000017 	ldw	r4,0(r16)
10006acc:	a039883a 	mov	fp,r20
10006ad0:	9029883a 	mov	r20,r18
10006ad4:	b80b883a 	mov	r5,r23
10006ad8:	b00d883a 	mov	r6,r22
10006adc:	0007be80 	call	10007be8 <memmove>
10006ae0:	80c00217 	ldw	r3,8(r16)
10006ae4:	81000017 	ldw	r4,0(r16)
10006ae8:	9005883a 	mov	r2,r18
10006aec:	1f39c83a 	sub	fp,r3,fp
10006af0:	258f883a 	add	r7,r4,r22
10006af4:	87000215 	stw	fp,8(r16)
10006af8:	81c00015 	stw	r7,0(r16)
10006afc:	98c00217 	ldw	r3,8(r19)
10006b00:	b8af883a 	add	r23,r23,r2
10006b04:	90a5c83a 	sub	r18,r18,r2
10006b08:	1d05c83a 	sub	r2,r3,r20
10006b0c:	98800215 	stw	r2,8(r19)
10006b10:	103fc326 	beq	r2,zero,10006a20 <__alt_data_end+0xf8006a20>
10006b14:	80c0030b 	ldhu	r3,12(r16)
10006b18:	903fe41e 	bne	r18,zero,10006aac <__alt_data_end+0xf8006aac>
10006b1c:	8dc00017 	ldw	r23,0(r17)
10006b20:	8c800117 	ldw	r18,4(r17)
10006b24:	8c400204 	addi	r17,r17,8
10006b28:	003fdf06 	br	10006aa8 <__alt_data_end+0xf8006aa8>
10006b2c:	0008eb00 	call	10008eb0 <_realloc_r>
10006b30:	102d883a 	mov	r22,r2
10006b34:	1000a01e 	bne	r2,zero,10006db8 <__sfvwrite_r+0x444>
10006b38:	81400417 	ldw	r5,16(r16)
10006b3c:	a809883a 	mov	r4,r21
10006b40:	00066840 	call	10006684 <_free_r>
10006b44:	00800304 	movi	r2,12
10006b48:	a8800015 	stw	r2,0(r21)
10006b4c:	80c0030b 	ldhu	r3,12(r16)
10006b50:	00bfffc4 	movi	r2,-1
10006b54:	18c01014 	ori	r3,r3,64
10006b58:	80c0030d 	sth	r3,12(r16)
10006b5c:	003fb106 	br	10006a24 <__alt_data_end+0xf8006a24>
10006b60:	0029883a 	mov	r20,zero
10006b64:	0011883a 	mov	r8,zero
10006b68:	0039883a 	mov	fp,zero
10006b6c:	0025883a 	mov	r18,zero
10006b70:	90001f26 	beq	r18,zero,10006bf0 <__sfvwrite_r+0x27c>
10006b74:	40006826 	beq	r8,zero,10006d18 <__sfvwrite_r+0x3a4>
10006b78:	a02f883a 	mov	r23,r20
10006b7c:	9500012e 	bgeu	r18,r20,10006b84 <__sfvwrite_r+0x210>
10006b80:	902f883a 	mov	r23,r18
10006b84:	81000017 	ldw	r4,0(r16)
10006b88:	80800417 	ldw	r2,16(r16)
10006b8c:	b82d883a 	mov	r22,r23
10006b90:	81800217 	ldw	r6,8(r16)
10006b94:	81c00517 	ldw	r7,20(r16)
10006b98:	1100022e 	bgeu	r2,r4,10006ba4 <__sfvwrite_r+0x230>
10006b9c:	31c7883a 	add	r3,r6,r7
10006ba0:	1dc01816 	blt	r3,r23,10006c04 <__sfvwrite_r+0x290>
10006ba4:	b9c03f16 	blt	r23,r7,10006ca4 <__sfvwrite_r+0x330>
10006ba8:	80800917 	ldw	r2,36(r16)
10006bac:	81400717 	ldw	r5,28(r16)
10006bb0:	a809883a 	mov	r4,r21
10006bb4:	da000115 	stw	r8,4(sp)
10006bb8:	e00d883a 	mov	r6,fp
10006bbc:	103ee83a 	callr	r2
10006bc0:	102d883a 	mov	r22,r2
10006bc4:	da000117 	ldw	r8,4(sp)
10006bc8:	00bfe00e 	bge	zero,r2,10006b4c <__alt_data_end+0xf8006b4c>
10006bcc:	a5a9c83a 	sub	r20,r20,r22
10006bd0:	a0001f26 	beq	r20,zero,10006c50 <__sfvwrite_r+0x2dc>
10006bd4:	98800217 	ldw	r2,8(r19)
10006bd8:	e5b9883a 	add	fp,fp,r22
10006bdc:	95a5c83a 	sub	r18,r18,r22
10006be0:	15adc83a 	sub	r22,r2,r22
10006be4:	9d800215 	stw	r22,8(r19)
10006be8:	b03f8d26 	beq	r22,zero,10006a20 <__alt_data_end+0xf8006a20>
10006bec:	903fe11e 	bne	r18,zero,10006b74 <__alt_data_end+0xf8006b74>
10006bf0:	8f000017 	ldw	fp,0(r17)
10006bf4:	8c800117 	ldw	r18,4(r17)
10006bf8:	0011883a 	mov	r8,zero
10006bfc:	8c400204 	addi	r17,r17,8
10006c00:	003fdb06 	br	10006b70 <__alt_data_end+0xf8006b70>
10006c04:	180d883a 	mov	r6,r3
10006c08:	e00b883a 	mov	r5,fp
10006c0c:	da000115 	stw	r8,4(sp)
10006c10:	d8c00015 	stw	r3,0(sp)
10006c14:	0007be80 	call	10007be8 <memmove>
10006c18:	d8c00017 	ldw	r3,0(sp)
10006c1c:	80800017 	ldw	r2,0(r16)
10006c20:	a809883a 	mov	r4,r21
10006c24:	800b883a 	mov	r5,r16
10006c28:	10c5883a 	add	r2,r2,r3
10006c2c:	80800015 	stw	r2,0(r16)
10006c30:	d8c00015 	stw	r3,0(sp)
10006c34:	0005f540 	call	10005f54 <_fflush_r>
10006c38:	d8c00017 	ldw	r3,0(sp)
10006c3c:	da000117 	ldw	r8,4(sp)
10006c40:	103fc21e 	bne	r2,zero,10006b4c <__alt_data_end+0xf8006b4c>
10006c44:	182d883a 	mov	r22,r3
10006c48:	a5a9c83a 	sub	r20,r20,r22
10006c4c:	a03fe11e 	bne	r20,zero,10006bd4 <__alt_data_end+0xf8006bd4>
10006c50:	a809883a 	mov	r4,r21
10006c54:	800b883a 	mov	r5,r16
10006c58:	0005f540 	call	10005f54 <_fflush_r>
10006c5c:	103fbb1e 	bne	r2,zero,10006b4c <__alt_data_end+0xf8006b4c>
10006c60:	0011883a 	mov	r8,zero
10006c64:	003fdb06 	br	10006bd4 <__alt_data_end+0xf8006bd4>
10006c68:	81000017 	ldw	r4,0(r16)
10006c6c:	80800417 	ldw	r2,16(r16)
10006c70:	1100012e 	bgeu	r2,r4,10006c78 <__sfvwrite_r+0x304>
10006c74:	a4805a36 	bltu	r20,r18,10006de0 <__sfvwrite_r+0x46c>
10006c78:	81c00517 	ldw	r7,20(r16)
10006c7c:	91c01a36 	bltu	r18,r7,10006ce8 <__sfvwrite_r+0x374>
10006c80:	80800917 	ldw	r2,36(r16)
10006c84:	81400717 	ldw	r5,28(r16)
10006c88:	a809883a 	mov	r4,r21
10006c8c:	b80d883a 	mov	r6,r23
10006c90:	103ee83a 	callr	r2
10006c94:	1029883a 	mov	r20,r2
10006c98:	00bfac0e 	bge	zero,r2,10006b4c <__alt_data_end+0xf8006b4c>
10006c9c:	a005883a 	mov	r2,r20
10006ca0:	003f9606 	br	10006afc <__alt_data_end+0xf8006afc>
10006ca4:	b80d883a 	mov	r6,r23
10006ca8:	e00b883a 	mov	r5,fp
10006cac:	da000115 	stw	r8,4(sp)
10006cb0:	0007be80 	call	10007be8 <memmove>
10006cb4:	80800217 	ldw	r2,8(r16)
10006cb8:	80c00017 	ldw	r3,0(r16)
10006cbc:	da000117 	ldw	r8,4(sp)
10006cc0:	15c5c83a 	sub	r2,r2,r23
10006cc4:	1def883a 	add	r23,r3,r23
10006cc8:	80800215 	stw	r2,8(r16)
10006ccc:	85c00015 	stw	r23,0(r16)
10006cd0:	003fbe06 	br	10006bcc <__alt_data_end+0xf8006bcc>
10006cd4:	81000017 	ldw	r4,0(r16)
10006cd8:	9039883a 	mov	fp,r18
10006cdc:	9029883a 	mov	r20,r18
10006ce0:	902d883a 	mov	r22,r18
10006ce4:	003f7b06 	br	10006ad4 <__alt_data_end+0xf8006ad4>
10006ce8:	b80b883a 	mov	r5,r23
10006cec:	900d883a 	mov	r6,r18
10006cf0:	0007be80 	call	10007be8 <memmove>
10006cf4:	80c00217 	ldw	r3,8(r16)
10006cf8:	80800017 	ldw	r2,0(r16)
10006cfc:	9029883a 	mov	r20,r18
10006d00:	1c87c83a 	sub	r3,r3,r18
10006d04:	1485883a 	add	r2,r2,r18
10006d08:	80800015 	stw	r2,0(r16)
10006d0c:	80c00215 	stw	r3,8(r16)
10006d10:	9005883a 	mov	r2,r18
10006d14:	003f7906 	br	10006afc <__alt_data_end+0xf8006afc>
10006d18:	e009883a 	mov	r4,fp
10006d1c:	01400284 	movi	r5,10
10006d20:	900d883a 	mov	r6,r18
10006d24:	00079c80 	call	100079c8 <memchr>
10006d28:	10003826 	beq	r2,zero,10006e0c <__sfvwrite_r+0x498>
10006d2c:	10800044 	addi	r2,r2,1
10006d30:	1729c83a 	sub	r20,r2,fp
10006d34:	02000044 	movi	r8,1
10006d38:	003f8f06 	br	10006b78 <__alt_data_end+0xf8006b78>
10006d3c:	80800517 	ldw	r2,20(r16)
10006d40:	81400417 	ldw	r5,16(r16)
10006d44:	87000017 	ldw	fp,0(r16)
10006d48:	10a9883a 	add	r20,r2,r2
10006d4c:	a085883a 	add	r2,r20,r2
10006d50:	1028d7fa 	srli	r20,r2,31
10006d54:	e179c83a 	sub	fp,fp,r5
10006d58:	e1000044 	addi	r4,fp,1
10006d5c:	a085883a 	add	r2,r20,r2
10006d60:	1029d07a 	srai	r20,r2,1
10006d64:	2485883a 	add	r2,r4,r18
10006d68:	a00d883a 	mov	r6,r20
10006d6c:	a080022e 	bgeu	r20,r2,10006d78 <__sfvwrite_r+0x404>
10006d70:	1029883a 	mov	r20,r2
10006d74:	100d883a 	mov	r6,r2
10006d78:	18c1000c 	andi	r3,r3,1024
10006d7c:	a809883a 	mov	r4,r21
10006d80:	183f6a26 	beq	r3,zero,10006b2c <__alt_data_end+0xf8006b2c>
10006d84:	300b883a 	mov	r5,r6
10006d88:	00072200 	call	10007220 <_malloc_r>
10006d8c:	102d883a 	mov	r22,r2
10006d90:	103f6c26 	beq	r2,zero,10006b44 <__alt_data_end+0xf8006b44>
10006d94:	81400417 	ldw	r5,16(r16)
10006d98:	1009883a 	mov	r4,r2
10006d9c:	e00d883a 	mov	r6,fp
10006da0:	0007ab00 	call	10007ab0 <memcpy>
10006da4:	8080030b 	ldhu	r2,12(r16)
10006da8:	00fedfc4 	movi	r3,-1153
10006dac:	10c4703a 	and	r2,r2,r3
10006db0:	10802014 	ori	r2,r2,128
10006db4:	8080030d 	sth	r2,12(r16)
10006db8:	b709883a 	add	r4,r22,fp
10006dbc:	a707c83a 	sub	r3,r20,fp
10006dc0:	85800415 	stw	r22,16(r16)
10006dc4:	85000515 	stw	r20,20(r16)
10006dc8:	81000015 	stw	r4,0(r16)
10006dcc:	9039883a 	mov	fp,r18
10006dd0:	80c00215 	stw	r3,8(r16)
10006dd4:	9029883a 	mov	r20,r18
10006dd8:	902d883a 	mov	r22,r18
10006ddc:	003f3d06 	br	10006ad4 <__alt_data_end+0xf8006ad4>
10006de0:	b80b883a 	mov	r5,r23
10006de4:	a00d883a 	mov	r6,r20
10006de8:	0007be80 	call	10007be8 <memmove>
10006dec:	80800017 	ldw	r2,0(r16)
10006df0:	a809883a 	mov	r4,r21
10006df4:	800b883a 	mov	r5,r16
10006df8:	1505883a 	add	r2,r2,r20
10006dfc:	80800015 	stw	r2,0(r16)
10006e00:	0005f540 	call	10005f54 <_fflush_r>
10006e04:	103fa526 	beq	r2,zero,10006c9c <__alt_data_end+0xf8006c9c>
10006e08:	003f5006 	br	10006b4c <__alt_data_end+0xf8006b4c>
10006e0c:	95000044 	addi	r20,r18,1
10006e10:	02000044 	movi	r8,1
10006e14:	003f5806 	br	10006b78 <__alt_data_end+0xf8006b78>

10006e18 <_fwalk>:
10006e18:	defff804 	addi	sp,sp,-32
10006e1c:	dd400515 	stw	r21,20(sp)
10006e20:	2540b804 	addi	r21,r4,736
10006e24:	dd800615 	stw	r22,24(sp)
10006e28:	dd000415 	stw	r20,16(sp)
10006e2c:	dfc00715 	stw	ra,28(sp)
10006e30:	dcc00315 	stw	r19,12(sp)
10006e34:	dc800215 	stw	r18,8(sp)
10006e38:	dc400115 	stw	r17,4(sp)
10006e3c:	dc000015 	stw	r16,0(sp)
10006e40:	2829883a 	mov	r20,r5
10006e44:	002d883a 	mov	r22,zero
10006e48:	00065200 	call	10006520 <__sfp_lock_acquire>
10006e4c:	a8001426 	beq	r21,zero,10006ea0 <_fwalk+0x88>
10006e50:	04ffffc4 	movi	r19,-1
10006e54:	ac400117 	ldw	r17,4(r21)
10006e58:	ac800217 	ldw	r18,8(r21)
10006e5c:	8c7fffc4 	addi	r17,r17,-1
10006e60:	88000d16 	blt	r17,zero,10006e98 <_fwalk+0x80>
10006e64:	94000304 	addi	r16,r18,12
10006e68:	94800384 	addi	r18,r18,14
10006e6c:	80c0000f 	ldh	r3,0(r16)
10006e70:	8c7fffc4 	addi	r17,r17,-1
10006e74:	813ffd04 	addi	r4,r16,-12
10006e78:	18000426 	beq	r3,zero,10006e8c <_fwalk+0x74>
10006e7c:	90c0000f 	ldh	r3,0(r18)
10006e80:	1cc00226 	beq	r3,r19,10006e8c <_fwalk+0x74>
10006e84:	a03ee83a 	callr	r20
10006e88:	b0acb03a 	or	r22,r22,r2
10006e8c:	84001a04 	addi	r16,r16,104
10006e90:	94801a04 	addi	r18,r18,104
10006e94:	8cfff51e 	bne	r17,r19,10006e6c <__alt_data_end+0xf8006e6c>
10006e98:	ad400017 	ldw	r21,0(r21)
10006e9c:	a83fed1e 	bne	r21,zero,10006e54 <__alt_data_end+0xf8006e54>
10006ea0:	00065240 	call	10006524 <__sfp_lock_release>
10006ea4:	b005883a 	mov	r2,r22
10006ea8:	dfc00717 	ldw	ra,28(sp)
10006eac:	dd800617 	ldw	r22,24(sp)
10006eb0:	dd400517 	ldw	r21,20(sp)
10006eb4:	dd000417 	ldw	r20,16(sp)
10006eb8:	dcc00317 	ldw	r19,12(sp)
10006ebc:	dc800217 	ldw	r18,8(sp)
10006ec0:	dc400117 	ldw	r17,4(sp)
10006ec4:	dc000017 	ldw	r16,0(sp)
10006ec8:	dec00804 	addi	sp,sp,32
10006ecc:	f800283a 	ret

10006ed0 <_fwalk_reent>:
10006ed0:	defff804 	addi	sp,sp,-32
10006ed4:	dd400515 	stw	r21,20(sp)
10006ed8:	2540b804 	addi	r21,r4,736
10006edc:	dd800615 	stw	r22,24(sp)
10006ee0:	dd000415 	stw	r20,16(sp)
10006ee4:	dcc00315 	stw	r19,12(sp)
10006ee8:	dfc00715 	stw	ra,28(sp)
10006eec:	dc800215 	stw	r18,8(sp)
10006ef0:	dc400115 	stw	r17,4(sp)
10006ef4:	dc000015 	stw	r16,0(sp)
10006ef8:	2027883a 	mov	r19,r4
10006efc:	2829883a 	mov	r20,r5
10006f00:	002d883a 	mov	r22,zero
10006f04:	00065200 	call	10006520 <__sfp_lock_acquire>
10006f08:	a8001326 	beq	r21,zero,10006f58 <_fwalk_reent+0x88>
10006f0c:	04bfffc4 	movi	r18,-1
10006f10:	ac400117 	ldw	r17,4(r21)
10006f14:	ac000217 	ldw	r16,8(r21)
10006f18:	8c7fffc4 	addi	r17,r17,-1
10006f1c:	88000c16 	blt	r17,zero,10006f50 <_fwalk_reent+0x80>
10006f20:	84000304 	addi	r16,r16,12
10006f24:	80c0000f 	ldh	r3,0(r16)
10006f28:	8c7fffc4 	addi	r17,r17,-1
10006f2c:	817ffd04 	addi	r5,r16,-12
10006f30:	18000526 	beq	r3,zero,10006f48 <_fwalk_reent+0x78>
10006f34:	80c0008f 	ldh	r3,2(r16)
10006f38:	9809883a 	mov	r4,r19
10006f3c:	1c800226 	beq	r3,r18,10006f48 <_fwalk_reent+0x78>
10006f40:	a03ee83a 	callr	r20
10006f44:	b0acb03a 	or	r22,r22,r2
10006f48:	84001a04 	addi	r16,r16,104
10006f4c:	8cbff51e 	bne	r17,r18,10006f24 <__alt_data_end+0xf8006f24>
10006f50:	ad400017 	ldw	r21,0(r21)
10006f54:	a83fee1e 	bne	r21,zero,10006f10 <__alt_data_end+0xf8006f10>
10006f58:	00065240 	call	10006524 <__sfp_lock_release>
10006f5c:	b005883a 	mov	r2,r22
10006f60:	dfc00717 	ldw	ra,28(sp)
10006f64:	dd800617 	ldw	r22,24(sp)
10006f68:	dd400517 	ldw	r21,20(sp)
10006f6c:	dd000417 	ldw	r20,16(sp)
10006f70:	dcc00317 	ldw	r19,12(sp)
10006f74:	dc800217 	ldw	r18,8(sp)
10006f78:	dc400117 	ldw	r17,4(sp)
10006f7c:	dc000017 	ldw	r16,0(sp)
10006f80:	dec00804 	addi	sp,sp,32
10006f84:	f800283a 	ret

10006f88 <_setlocale_r>:
10006f88:	30001b26 	beq	r6,zero,10006ff8 <_setlocale_r+0x70>
10006f8c:	01440074 	movhi	r5,4097
10006f90:	defffe04 	addi	sp,sp,-8
10006f94:	2946eb04 	addi	r5,r5,7084
10006f98:	3009883a 	mov	r4,r6
10006f9c:	dc000015 	stw	r16,0(sp)
10006fa0:	dfc00115 	stw	ra,4(sp)
10006fa4:	3021883a 	mov	r16,r6
10006fa8:	00096540 	call	10009654 <strcmp>
10006fac:	1000061e 	bne	r2,zero,10006fc8 <_setlocale_r+0x40>
10006fb0:	00840074 	movhi	r2,4097
10006fb4:	1086ea04 	addi	r2,r2,7080
10006fb8:	dfc00117 	ldw	ra,4(sp)
10006fbc:	dc000017 	ldw	r16,0(sp)
10006fc0:	dec00204 	addi	sp,sp,8
10006fc4:	f800283a 	ret
10006fc8:	01440074 	movhi	r5,4097
10006fcc:	2946ea04 	addi	r5,r5,7080
10006fd0:	8009883a 	mov	r4,r16
10006fd4:	00096540 	call	10009654 <strcmp>
10006fd8:	103ff526 	beq	r2,zero,10006fb0 <__alt_data_end+0xf8006fb0>
10006fdc:	01440074 	movhi	r5,4097
10006fe0:	2946d504 	addi	r5,r5,6996
10006fe4:	8009883a 	mov	r4,r16
10006fe8:	00096540 	call	10009654 <strcmp>
10006fec:	103ff026 	beq	r2,zero,10006fb0 <__alt_data_end+0xf8006fb0>
10006ff0:	0005883a 	mov	r2,zero
10006ff4:	003ff006 	br	10006fb8 <__alt_data_end+0xf8006fb8>
10006ff8:	00840074 	movhi	r2,4097
10006ffc:	1086ea04 	addi	r2,r2,7080
10007000:	f800283a 	ret

10007004 <__locale_charset>:
10007004:	00840074 	movhi	r2,4097
10007008:	10889d04 	addi	r2,r2,8820
1000700c:	f800283a 	ret

10007010 <__locale_mb_cur_max>:
10007010:	00840074 	movhi	r2,4097
10007014:	108e3a04 	addi	r2,r2,14568
10007018:	10800017 	ldw	r2,0(r2)
1000701c:	f800283a 	ret

10007020 <__locale_msgcharset>:
10007020:	00840074 	movhi	r2,4097
10007024:	10889504 	addi	r2,r2,8788
10007028:	f800283a 	ret

1000702c <__locale_cjk_lang>:
1000702c:	0005883a 	mov	r2,zero
10007030:	f800283a 	ret

10007034 <_localeconv_r>:
10007034:	00840074 	movhi	r2,4097
10007038:	1088a504 	addi	r2,r2,8852
1000703c:	f800283a 	ret

10007040 <setlocale>:
10007040:	00c40074 	movhi	r3,4097
10007044:	18ce3904 	addi	r3,r3,14564
10007048:	2005883a 	mov	r2,r4
1000704c:	19000017 	ldw	r4,0(r3)
10007050:	280d883a 	mov	r6,r5
10007054:	100b883a 	mov	r5,r2
10007058:	0006f881 	jmpi	10006f88 <_setlocale_r>

1000705c <localeconv>:
1000705c:	00840074 	movhi	r2,4097
10007060:	1088a504 	addi	r2,r2,8852
10007064:	f800283a 	ret

10007068 <__smakebuf_r>:
10007068:	2880030b 	ldhu	r2,12(r5)
1000706c:	10c0008c 	andi	r3,r2,2
10007070:	1800401e 	bne	r3,zero,10007174 <__smakebuf_r+0x10c>
10007074:	deffec04 	addi	sp,sp,-80
10007078:	dc000f15 	stw	r16,60(sp)
1000707c:	2821883a 	mov	r16,r5
10007080:	2940038f 	ldh	r5,14(r5)
10007084:	dc401015 	stw	r17,64(sp)
10007088:	dfc01315 	stw	ra,76(sp)
1000708c:	dcc01215 	stw	r19,72(sp)
10007090:	dc801115 	stw	r18,68(sp)
10007094:	2023883a 	mov	r17,r4
10007098:	28001b16 	blt	r5,zero,10007108 <__smakebuf_r+0xa0>
1000709c:	d80d883a 	mov	r6,sp
100070a0:	000b0cc0 	call	1000b0cc <_fstat_r>
100070a4:	10001716 	blt	r2,zero,10007104 <__smakebuf_r+0x9c>
100070a8:	d8800117 	ldw	r2,4(sp)
100070ac:	00e00014 	movui	r3,32768
100070b0:	10bc000c 	andi	r2,r2,61440
100070b4:	10c03726 	beq	r2,r3,10007194 <__smakebuf_r+0x12c>
100070b8:	80c0030b 	ldhu	r3,12(r16)
100070bc:	18c20014 	ori	r3,r3,2048
100070c0:	80c0030d 	sth	r3,12(r16)
100070c4:	00c80004 	movi	r3,8192
100070c8:	10c03c1e 	bne	r2,r3,100071bc <__smakebuf_r+0x154>
100070cc:	8140038f 	ldh	r5,14(r16)
100070d0:	8809883a 	mov	r4,r17
100070d4:	000b1240 	call	1000b124 <_isatty_r>
100070d8:	10004e26 	beq	r2,zero,10007214 <__smakebuf_r+0x1ac>
100070dc:	8080030b 	ldhu	r2,12(r16)
100070e0:	04c00044 	movi	r19,1
100070e4:	80c010c4 	addi	r3,r16,67
100070e8:	14c4b03a 	or	r2,r2,r19
100070ec:	8080030d 	sth	r2,12(r16)
100070f0:	80c00015 	stw	r3,0(r16)
100070f4:	80c00415 	stw	r3,16(r16)
100070f8:	84c00515 	stw	r19,20(r16)
100070fc:	04810004 	movi	r18,1024
10007100:	00000706 	br	10007120 <__smakebuf_r+0xb8>
10007104:	8080030b 	ldhu	r2,12(r16)
10007108:	10c0200c 	andi	r3,r2,128
1000710c:	18001f1e 	bne	r3,zero,1000718c <__smakebuf_r+0x124>
10007110:	04810004 	movi	r18,1024
10007114:	10820014 	ori	r2,r2,2048
10007118:	8080030d 	sth	r2,12(r16)
1000711c:	0027883a 	mov	r19,zero
10007120:	8809883a 	mov	r4,r17
10007124:	900b883a 	mov	r5,r18
10007128:	00072200 	call	10007220 <_malloc_r>
1000712c:	10002e26 	beq	r2,zero,100071e8 <__smakebuf_r+0x180>
10007130:	80c0030b 	ldhu	r3,12(r16)
10007134:	01040034 	movhi	r4,4096
10007138:	21186f04 	addi	r4,r4,25020
1000713c:	89000f15 	stw	r4,60(r17)
10007140:	18c02014 	ori	r3,r3,128
10007144:	80c0030d 	sth	r3,12(r16)
10007148:	80800015 	stw	r2,0(r16)
1000714c:	80800415 	stw	r2,16(r16)
10007150:	84800515 	stw	r18,20(r16)
10007154:	98001c1e 	bne	r19,zero,100071c8 <__smakebuf_r+0x160>
10007158:	dfc01317 	ldw	ra,76(sp)
1000715c:	dcc01217 	ldw	r19,72(sp)
10007160:	dc801117 	ldw	r18,68(sp)
10007164:	dc401017 	ldw	r17,64(sp)
10007168:	dc000f17 	ldw	r16,60(sp)
1000716c:	dec01404 	addi	sp,sp,80
10007170:	f800283a 	ret
10007174:	288010c4 	addi	r2,r5,67
10007178:	28800015 	stw	r2,0(r5)
1000717c:	28800415 	stw	r2,16(r5)
10007180:	00800044 	movi	r2,1
10007184:	28800515 	stw	r2,20(r5)
10007188:	f800283a 	ret
1000718c:	04801004 	movi	r18,64
10007190:	003fe006 	br	10007114 <__alt_data_end+0xf8007114>
10007194:	81000a17 	ldw	r4,40(r16)
10007198:	00c40074 	movhi	r3,4097
1000719c:	18e57c04 	addi	r3,r3,-27152
100071a0:	20ffc51e 	bne	r4,r3,100070b8 <__alt_data_end+0xf80070b8>
100071a4:	80c0030b 	ldhu	r3,12(r16)
100071a8:	01010004 	movi	r4,1024
100071ac:	81001315 	stw	r4,76(r16)
100071b0:	1906b03a 	or	r3,r3,r4
100071b4:	80c0030d 	sth	r3,12(r16)
100071b8:	003fc206 	br	100070c4 <__alt_data_end+0xf80070c4>
100071bc:	0027883a 	mov	r19,zero
100071c0:	04810004 	movi	r18,1024
100071c4:	003fd606 	br	10007120 <__alt_data_end+0xf8007120>
100071c8:	8140038f 	ldh	r5,14(r16)
100071cc:	8809883a 	mov	r4,r17
100071d0:	000b1240 	call	1000b124 <_isatty_r>
100071d4:	103fe026 	beq	r2,zero,10007158 <__alt_data_end+0xf8007158>
100071d8:	8080030b 	ldhu	r2,12(r16)
100071dc:	10800054 	ori	r2,r2,1
100071e0:	8080030d 	sth	r2,12(r16)
100071e4:	003fdc06 	br	10007158 <__alt_data_end+0xf8007158>
100071e8:	8080030b 	ldhu	r2,12(r16)
100071ec:	10c0800c 	andi	r3,r2,512
100071f0:	183fd91e 	bne	r3,zero,10007158 <__alt_data_end+0xf8007158>
100071f4:	10800094 	ori	r2,r2,2
100071f8:	80c010c4 	addi	r3,r16,67
100071fc:	8080030d 	sth	r2,12(r16)
10007200:	00800044 	movi	r2,1
10007204:	80c00015 	stw	r3,0(r16)
10007208:	80c00415 	stw	r3,16(r16)
1000720c:	80800515 	stw	r2,20(r16)
10007210:	003fd106 	br	10007158 <__alt_data_end+0xf8007158>
10007214:	04c00044 	movi	r19,1
10007218:	04810004 	movi	r18,1024
1000721c:	003fc006 	br	10007120 <__alt_data_end+0xf8007120>

10007220 <_malloc_r>:
10007220:	defff504 	addi	sp,sp,-44
10007224:	dc800315 	stw	r18,12(sp)
10007228:	dfc00a15 	stw	ra,40(sp)
1000722c:	df000915 	stw	fp,36(sp)
10007230:	ddc00815 	stw	r23,32(sp)
10007234:	dd800715 	stw	r22,28(sp)
10007238:	dd400615 	stw	r21,24(sp)
1000723c:	dd000515 	stw	r20,20(sp)
10007240:	dcc00415 	stw	r19,16(sp)
10007244:	dc400215 	stw	r17,8(sp)
10007248:	dc000115 	stw	r16,4(sp)
1000724c:	288002c4 	addi	r2,r5,11
10007250:	00c00584 	movi	r3,22
10007254:	2025883a 	mov	r18,r4
10007258:	18802a2e 	bgeu	r3,r2,10007304 <_malloc_r+0xe4>
1000725c:	047ffe04 	movi	r17,-8
10007260:	1462703a 	and	r17,r2,r17
10007264:	88009e16 	blt	r17,zero,100074e0 <_malloc_r+0x2c0>
10007268:	89409d36 	bltu	r17,r5,100074e0 <_malloc_r+0x2c0>
1000726c:	000f12c0 	call	1000f12c <__malloc_lock>
10007270:	00807dc4 	movi	r2,503
10007274:	14402736 	bltu	r2,r17,10007314 <_malloc_r+0xf4>
10007278:	8806d0fa 	srli	r3,r17,3
1000727c:	04c40074 	movhi	r19,4097
10007280:	9cc8b304 	addi	r19,r19,8908
10007284:	18c5883a 	add	r2,r3,r3
10007288:	1085883a 	add	r2,r2,r2
1000728c:	1085883a 	add	r2,r2,r2
10007290:	9885883a 	add	r2,r19,r2
10007294:	14000317 	ldw	r16,12(r2)
10007298:	80814a26 	beq	r16,r2,100077c4 <_malloc_r+0x5a4>
1000729c:	80c00117 	ldw	r3,4(r16)
100072a0:	81000317 	ldw	r4,12(r16)
100072a4:	00bfff04 	movi	r2,-4
100072a8:	1884703a 	and	r2,r3,r2
100072ac:	81400217 	ldw	r5,8(r16)
100072b0:	8085883a 	add	r2,r16,r2
100072b4:	10c00117 	ldw	r3,4(r2)
100072b8:	29000315 	stw	r4,12(r5)
100072bc:	21400215 	stw	r5,8(r4)
100072c0:	18c00054 	ori	r3,r3,1
100072c4:	10c00115 	stw	r3,4(r2)
100072c8:	9009883a 	mov	r4,r18
100072cc:	000f14c0 	call	1000f14c <__malloc_unlock>
100072d0:	80800204 	addi	r2,r16,8
100072d4:	dfc00a17 	ldw	ra,40(sp)
100072d8:	df000917 	ldw	fp,36(sp)
100072dc:	ddc00817 	ldw	r23,32(sp)
100072e0:	dd800717 	ldw	r22,28(sp)
100072e4:	dd400617 	ldw	r21,24(sp)
100072e8:	dd000517 	ldw	r20,20(sp)
100072ec:	dcc00417 	ldw	r19,16(sp)
100072f0:	dc800317 	ldw	r18,12(sp)
100072f4:	dc400217 	ldw	r17,8(sp)
100072f8:	dc000117 	ldw	r16,4(sp)
100072fc:	dec00b04 	addi	sp,sp,44
10007300:	f800283a 	ret
10007304:	04400404 	movi	r17,16
10007308:	89407536 	bltu	r17,r5,100074e0 <_malloc_r+0x2c0>
1000730c:	000f12c0 	call	1000f12c <__malloc_lock>
10007310:	003fd906 	br	10007278 <__alt_data_end+0xf8007278>
10007314:	8806d27a 	srli	r3,r17,9
10007318:	18007526 	beq	r3,zero,100074f0 <_malloc_r+0x2d0>
1000731c:	00800104 	movi	r2,4
10007320:	10c0ef36 	bltu	r2,r3,100076e0 <_malloc_r+0x4c0>
10007324:	8806d1ba 	srli	r3,r17,6
10007328:	19c00e04 	addi	r7,r3,56
1000732c:	39cb883a 	add	r5,r7,r7
10007330:	04c40074 	movhi	r19,4097
10007334:	294b883a 	add	r5,r5,r5
10007338:	9cc8b304 	addi	r19,r19,8908
1000733c:	294b883a 	add	r5,r5,r5
10007340:	994b883a 	add	r5,r19,r5
10007344:	2c000317 	ldw	r16,12(r5)
10007348:	2c000e26 	beq	r5,r16,10007384 <_malloc_r+0x164>
1000734c:	80800117 	ldw	r2,4(r16)
10007350:	01bfff04 	movi	r6,-4
10007354:	010003c4 	movi	r4,15
10007358:	1184703a 	and	r2,r2,r6
1000735c:	1447c83a 	sub	r3,r2,r17
10007360:	20c00716 	blt	r4,r3,10007380 <_malloc_r+0x160>
10007364:	1800650e 	bge	r3,zero,100074fc <_malloc_r+0x2dc>
10007368:	84000317 	ldw	r16,12(r16)
1000736c:	2c000526 	beq	r5,r16,10007384 <_malloc_r+0x164>
10007370:	80800117 	ldw	r2,4(r16)
10007374:	1184703a 	and	r2,r2,r6
10007378:	1447c83a 	sub	r3,r2,r17
1000737c:	20fff90e 	bge	r4,r3,10007364 <__alt_data_end+0xf8007364>
10007380:	39ffffc4 	addi	r7,r7,-1
10007384:	38c00044 	addi	r3,r7,1
10007388:	01840074 	movhi	r6,4097
1000738c:	9c000417 	ldw	r16,16(r19)
10007390:	3188b304 	addi	r6,r6,8908
10007394:	32400204 	addi	r9,r6,8
10007398:	82410326 	beq	r16,r9,100077a8 <_malloc_r+0x588>
1000739c:	81000117 	ldw	r4,4(r16)
100073a0:	00bfff04 	movi	r2,-4
100073a4:	208e703a 	and	r7,r4,r2
100073a8:	3c45c83a 	sub	r2,r7,r17
100073ac:	010003c4 	movi	r4,15
100073b0:	2080ee16 	blt	r4,r2,1000776c <_malloc_r+0x54c>
100073b4:	32400515 	stw	r9,20(r6)
100073b8:	32400415 	stw	r9,16(r6)
100073bc:	1000510e 	bge	r2,zero,10007504 <_malloc_r+0x2e4>
100073c0:	00807fc4 	movi	r2,511
100073c4:	11c0ce36 	bltu	r2,r7,10007700 <_malloc_r+0x4e0>
100073c8:	3808d0fa 	srli	r4,r7,3
100073cc:	01c00044 	movi	r7,1
100073d0:	30800117 	ldw	r2,4(r6)
100073d4:	210b883a 	add	r5,r4,r4
100073d8:	294b883a 	add	r5,r5,r5
100073dc:	2009d0ba 	srai	r4,r4,2
100073e0:	294b883a 	add	r5,r5,r5
100073e4:	298b883a 	add	r5,r5,r6
100073e8:	2a000217 	ldw	r8,8(r5)
100073ec:	3908983a 	sll	r4,r7,r4
100073f0:	81400315 	stw	r5,12(r16)
100073f4:	82000215 	stw	r8,8(r16)
100073f8:	2088b03a 	or	r4,r4,r2
100073fc:	2c000215 	stw	r16,8(r5)
10007400:	31000115 	stw	r4,4(r6)
10007404:	44000315 	stw	r16,12(r8)
10007408:	1805d0ba 	srai	r2,r3,2
1000740c:	01400044 	movi	r5,1
10007410:	288a983a 	sll	r5,r5,r2
10007414:	21404336 	bltu	r4,r5,10007524 <_malloc_r+0x304>
10007418:	2144703a 	and	r2,r4,r5
1000741c:	10000a1e 	bne	r2,zero,10007448 <_malloc_r+0x228>
10007420:	00bfff04 	movi	r2,-4
10007424:	294b883a 	add	r5,r5,r5
10007428:	1886703a 	and	r3,r3,r2
1000742c:	2144703a 	and	r2,r4,r5
10007430:	18c00104 	addi	r3,r3,4
10007434:	1000041e 	bne	r2,zero,10007448 <_malloc_r+0x228>
10007438:	294b883a 	add	r5,r5,r5
1000743c:	2144703a 	and	r2,r4,r5
10007440:	18c00104 	addi	r3,r3,4
10007444:	103ffc26 	beq	r2,zero,10007438 <__alt_data_end+0xf8007438>
10007448:	023fff04 	movi	r8,-4
1000744c:	01c003c4 	movi	r7,15
10007450:	18c5883a 	add	r2,r3,r3
10007454:	1085883a 	add	r2,r2,r2
10007458:	1085883a 	add	r2,r2,r2
1000745c:	9895883a 	add	r10,r19,r2
10007460:	52c00304 	addi	r11,r10,12
10007464:	1819883a 	mov	r12,r3
10007468:	5c000017 	ldw	r16,0(r11)
1000746c:	59bffd04 	addi	r6,r11,-12
10007470:	8180041e 	bne	r16,r6,10007484 <_malloc_r+0x264>
10007474:	0000ce06 	br	100077b0 <_malloc_r+0x590>
10007478:	2000d70e 	bge	r4,zero,100077d8 <_malloc_r+0x5b8>
1000747c:	84000317 	ldw	r16,12(r16)
10007480:	8180cb26 	beq	r16,r6,100077b0 <_malloc_r+0x590>
10007484:	80800117 	ldw	r2,4(r16)
10007488:	1204703a 	and	r2,r2,r8
1000748c:	1449c83a 	sub	r4,r2,r17
10007490:	393ff90e 	bge	r7,r4,10007478 <__alt_data_end+0xf8007478>
10007494:	80800317 	ldw	r2,12(r16)
10007498:	80c00217 	ldw	r3,8(r16)
1000749c:	89400054 	ori	r5,r17,1
100074a0:	81400115 	stw	r5,4(r16)
100074a4:	18800315 	stw	r2,12(r3)
100074a8:	10c00215 	stw	r3,8(r2)
100074ac:	8463883a 	add	r17,r16,r17
100074b0:	9c400515 	stw	r17,20(r19)
100074b4:	9c400415 	stw	r17,16(r19)
100074b8:	20800054 	ori	r2,r4,1
100074bc:	88800115 	stw	r2,4(r17)
100074c0:	8a400315 	stw	r9,12(r17)
100074c4:	8a400215 	stw	r9,8(r17)
100074c8:	8923883a 	add	r17,r17,r4
100074cc:	89000015 	stw	r4,0(r17)
100074d0:	9009883a 	mov	r4,r18
100074d4:	000f14c0 	call	1000f14c <__malloc_unlock>
100074d8:	80800204 	addi	r2,r16,8
100074dc:	003f7d06 	br	100072d4 <__alt_data_end+0xf80072d4>
100074e0:	00800304 	movi	r2,12
100074e4:	90800015 	stw	r2,0(r18)
100074e8:	0005883a 	mov	r2,zero
100074ec:	003f7906 	br	100072d4 <__alt_data_end+0xf80072d4>
100074f0:	01401f84 	movi	r5,126
100074f4:	01c00fc4 	movi	r7,63
100074f8:	003f8d06 	br	10007330 <__alt_data_end+0xf8007330>
100074fc:	81000317 	ldw	r4,12(r16)
10007500:	003f6a06 	br	100072ac <__alt_data_end+0xf80072ac>
10007504:	81c5883a 	add	r2,r16,r7
10007508:	10c00117 	ldw	r3,4(r2)
1000750c:	9009883a 	mov	r4,r18
10007510:	18c00054 	ori	r3,r3,1
10007514:	10c00115 	stw	r3,4(r2)
10007518:	000f14c0 	call	1000f14c <__malloc_unlock>
1000751c:	80800204 	addi	r2,r16,8
10007520:	003f6c06 	br	100072d4 <__alt_data_end+0xf80072d4>
10007524:	9c000217 	ldw	r16,8(r19)
10007528:	00bfff04 	movi	r2,-4
1000752c:	85800117 	ldw	r22,4(r16)
10007530:	b0ac703a 	and	r22,r22,r2
10007534:	b4400336 	bltu	r22,r17,10007544 <_malloc_r+0x324>
10007538:	b445c83a 	sub	r2,r22,r17
1000753c:	00c003c4 	movi	r3,15
10007540:	18805d16 	blt	r3,r2,100076b8 <_malloc_r+0x498>
10007544:	05c40074 	movhi	r23,4097
10007548:	00840074 	movhi	r2,4097
1000754c:	bdce3b04 	addi	r23,r23,14572
10007550:	10950a04 	addi	r2,r2,21544
10007554:	15400017 	ldw	r21,0(r2)
10007558:	b9000017 	ldw	r4,0(r23)
1000755c:	00ffffc4 	movi	r3,-1
10007560:	858d883a 	add	r6,r16,r22
10007564:	8d6b883a 	add	r21,r17,r21
10007568:	20c0e426 	beq	r4,r3,100078fc <_malloc_r+0x6dc>
1000756c:	ad4403c4 	addi	r21,r21,4111
10007570:	00fc0004 	movi	r3,-4096
10007574:	a8ea703a 	and	r21,r21,r3
10007578:	9009883a 	mov	r4,r18
1000757c:	a80b883a 	mov	r5,r21
10007580:	d9800015 	stw	r6,0(sp)
10007584:	00094c40 	call	100094c4 <_sbrk_r>
10007588:	00ffffc4 	movi	r3,-1
1000758c:	1029883a 	mov	r20,r2
10007590:	d9800017 	ldw	r6,0(sp)
10007594:	10c0a426 	beq	r2,r3,10007828 <_malloc_r+0x608>
10007598:	1180a236 	bltu	r2,r6,10007824 <_malloc_r+0x604>
1000759c:	07040074 	movhi	fp,4097
100075a0:	e7151204 	addi	fp,fp,21576
100075a4:	e0c00017 	ldw	r3,0(fp)
100075a8:	a8c7883a 	add	r3,r21,r3
100075ac:	e0c00015 	stw	r3,0(fp)
100075b0:	3500da26 	beq	r6,r20,1000791c <_malloc_r+0x6fc>
100075b4:	b9000017 	ldw	r4,0(r23)
100075b8:	00bfffc4 	movi	r2,-1
100075bc:	2080e426 	beq	r4,r2,10007950 <_malloc_r+0x730>
100075c0:	a185c83a 	sub	r2,r20,r6
100075c4:	1885883a 	add	r2,r3,r2
100075c8:	e0800015 	stw	r2,0(fp)
100075cc:	a0c001cc 	andi	r3,r20,7
100075d0:	1800b526 	beq	r3,zero,100078a8 <_malloc_r+0x688>
100075d4:	a0e9c83a 	sub	r20,r20,r3
100075d8:	00840204 	movi	r2,4104
100075dc:	a5000204 	addi	r20,r20,8
100075e0:	10c7c83a 	sub	r3,r2,r3
100075e4:	a545883a 	add	r2,r20,r21
100075e8:	1083ffcc 	andi	r2,r2,4095
100075ec:	18abc83a 	sub	r21,r3,r2
100075f0:	9009883a 	mov	r4,r18
100075f4:	a80b883a 	mov	r5,r21
100075f8:	00094c40 	call	100094c4 <_sbrk_r>
100075fc:	00ffffc4 	movi	r3,-1
10007600:	10c0d026 	beq	r2,r3,10007944 <_malloc_r+0x724>
10007604:	1507c83a 	sub	r3,r2,r20
10007608:	a8c7883a 	add	r3,r21,r3
1000760c:	18c00054 	ori	r3,r3,1
10007610:	e0800017 	ldw	r2,0(fp)
10007614:	9d000215 	stw	r20,8(r19)
10007618:	a0c00115 	stw	r3,4(r20)
1000761c:	a887883a 	add	r3,r21,r2
10007620:	e0c00015 	stw	r3,0(fp)
10007624:	84c00e26 	beq	r16,r19,10007660 <_malloc_r+0x440>
10007628:	018003c4 	movi	r6,15
1000762c:	3580a02e 	bgeu	r6,r22,100078b0 <_malloc_r+0x690>
10007630:	81400117 	ldw	r5,4(r16)
10007634:	013ffe04 	movi	r4,-8
10007638:	b0bffd04 	addi	r2,r22,-12
1000763c:	1104703a 	and	r2,r2,r4
10007640:	2900004c 	andi	r4,r5,1
10007644:	1108b03a 	or	r4,r2,r4
10007648:	81000115 	stw	r4,4(r16)
1000764c:	01400144 	movi	r5,5
10007650:	8089883a 	add	r4,r16,r2
10007654:	21400115 	stw	r5,4(r4)
10007658:	21400215 	stw	r5,8(r4)
1000765c:	3080c036 	bltu	r6,r2,10007960 <_malloc_r+0x740>
10007660:	00840074 	movhi	r2,4097
10007664:	10950904 	addi	r2,r2,21540
10007668:	11000017 	ldw	r4,0(r2)
1000766c:	20c0012e 	bgeu	r4,r3,10007674 <_malloc_r+0x454>
10007670:	10c00015 	stw	r3,0(r2)
10007674:	00840074 	movhi	r2,4097
10007678:	10950804 	addi	r2,r2,21536
1000767c:	11000017 	ldw	r4,0(r2)
10007680:	9c000217 	ldw	r16,8(r19)
10007684:	20c0012e 	bgeu	r4,r3,1000768c <_malloc_r+0x46c>
10007688:	10c00015 	stw	r3,0(r2)
1000768c:	80c00117 	ldw	r3,4(r16)
10007690:	00bfff04 	movi	r2,-4
10007694:	1886703a 	and	r3,r3,r2
10007698:	1c45c83a 	sub	r2,r3,r17
1000769c:	1c400236 	bltu	r3,r17,100076a8 <_malloc_r+0x488>
100076a0:	00c003c4 	movi	r3,15
100076a4:	18800416 	blt	r3,r2,100076b8 <_malloc_r+0x498>
100076a8:	9009883a 	mov	r4,r18
100076ac:	000f14c0 	call	1000f14c <__malloc_unlock>
100076b0:	0005883a 	mov	r2,zero
100076b4:	003f0706 	br	100072d4 <__alt_data_end+0xf80072d4>
100076b8:	88c00054 	ori	r3,r17,1
100076bc:	80c00115 	stw	r3,4(r16)
100076c0:	8463883a 	add	r17,r16,r17
100076c4:	10800054 	ori	r2,r2,1
100076c8:	9c400215 	stw	r17,8(r19)
100076cc:	88800115 	stw	r2,4(r17)
100076d0:	9009883a 	mov	r4,r18
100076d4:	000f14c0 	call	1000f14c <__malloc_unlock>
100076d8:	80800204 	addi	r2,r16,8
100076dc:	003efd06 	br	100072d4 <__alt_data_end+0xf80072d4>
100076e0:	00800504 	movi	r2,20
100076e4:	10c0482e 	bgeu	r2,r3,10007808 <_malloc_r+0x5e8>
100076e8:	00801504 	movi	r2,84
100076ec:	10c06836 	bltu	r2,r3,10007890 <_malloc_r+0x670>
100076f0:	8806d33a 	srli	r3,r17,12
100076f4:	19c01b84 	addi	r7,r3,110
100076f8:	39cb883a 	add	r5,r7,r7
100076fc:	003f0c06 	br	10007330 <__alt_data_end+0xf8007330>
10007700:	3804d27a 	srli	r2,r7,9
10007704:	01000104 	movi	r4,4
10007708:	2080422e 	bgeu	r4,r2,10007814 <_malloc_r+0x5f4>
1000770c:	01000504 	movi	r4,20
10007710:	20807c36 	bltu	r4,r2,10007904 <_malloc_r+0x6e4>
10007714:	110016c4 	addi	r4,r2,91
10007718:	210b883a 	add	r5,r4,r4
1000771c:	294b883a 	add	r5,r5,r5
10007720:	294b883a 	add	r5,r5,r5
10007724:	994b883a 	add	r5,r19,r5
10007728:	28800217 	ldw	r2,8(r5)
1000772c:	02040074 	movhi	r8,4097
10007730:	4208b304 	addi	r8,r8,8908
10007734:	11406326 	beq	r2,r5,100078c4 <_malloc_r+0x6a4>
10007738:	01bfff04 	movi	r6,-4
1000773c:	11000117 	ldw	r4,4(r2)
10007740:	2188703a 	and	r4,r4,r6
10007744:	3900022e 	bgeu	r7,r4,10007750 <_malloc_r+0x530>
10007748:	10800217 	ldw	r2,8(r2)
1000774c:	28bffb1e 	bne	r5,r2,1000773c <__alt_data_end+0xf800773c>
10007750:	11800317 	ldw	r6,12(r2)
10007754:	99000117 	ldw	r4,4(r19)
10007758:	81800315 	stw	r6,12(r16)
1000775c:	80800215 	stw	r2,8(r16)
10007760:	34000215 	stw	r16,8(r6)
10007764:	14000315 	stw	r16,12(r2)
10007768:	003f2706 	br	10007408 <__alt_data_end+0xf8007408>
1000776c:	88c00054 	ori	r3,r17,1
10007770:	80c00115 	stw	r3,4(r16)
10007774:	8463883a 	add	r17,r16,r17
10007778:	34400515 	stw	r17,20(r6)
1000777c:	34400415 	stw	r17,16(r6)
10007780:	10c00054 	ori	r3,r2,1
10007784:	8a400315 	stw	r9,12(r17)
10007788:	8a400215 	stw	r9,8(r17)
1000778c:	88c00115 	stw	r3,4(r17)
10007790:	88a3883a 	add	r17,r17,r2
10007794:	88800015 	stw	r2,0(r17)
10007798:	9009883a 	mov	r4,r18
1000779c:	000f14c0 	call	1000f14c <__malloc_unlock>
100077a0:	80800204 	addi	r2,r16,8
100077a4:	003ecb06 	br	100072d4 <__alt_data_end+0xf80072d4>
100077a8:	31000117 	ldw	r4,4(r6)
100077ac:	003f1606 	br	10007408 <__alt_data_end+0xf8007408>
100077b0:	63000044 	addi	r12,r12,1
100077b4:	608000cc 	andi	r2,r12,3
100077b8:	5ac00204 	addi	r11,r11,8
100077bc:	103f2a1e 	bne	r2,zero,10007468 <__alt_data_end+0xf8007468>
100077c0:	00002106 	br	10007848 <_malloc_r+0x628>
100077c4:	80800204 	addi	r2,r16,8
100077c8:	84000517 	ldw	r16,20(r16)
100077cc:	143eb31e 	bne	r2,r16,1000729c <__alt_data_end+0xf800729c>
100077d0:	18c00084 	addi	r3,r3,2
100077d4:	003eec06 	br	10007388 <__alt_data_end+0xf8007388>
100077d8:	8085883a 	add	r2,r16,r2
100077dc:	10c00117 	ldw	r3,4(r2)
100077e0:	81000317 	ldw	r4,12(r16)
100077e4:	81400217 	ldw	r5,8(r16)
100077e8:	18c00054 	ori	r3,r3,1
100077ec:	10c00115 	stw	r3,4(r2)
100077f0:	29000315 	stw	r4,12(r5)
100077f4:	21400215 	stw	r5,8(r4)
100077f8:	9009883a 	mov	r4,r18
100077fc:	000f14c0 	call	1000f14c <__malloc_unlock>
10007800:	80800204 	addi	r2,r16,8
10007804:	003eb306 	br	100072d4 <__alt_data_end+0xf80072d4>
10007808:	19c016c4 	addi	r7,r3,91
1000780c:	39cb883a 	add	r5,r7,r7
10007810:	003ec706 	br	10007330 <__alt_data_end+0xf8007330>
10007814:	3804d1ba 	srli	r2,r7,6
10007818:	11000e04 	addi	r4,r2,56
1000781c:	210b883a 	add	r5,r4,r4
10007820:	003fbe06 	br	1000771c <__alt_data_end+0xf800771c>
10007824:	84ff5d26 	beq	r16,r19,1000759c <__alt_data_end+0xf800759c>
10007828:	9c000217 	ldw	r16,8(r19)
1000782c:	00bfff04 	movi	r2,-4
10007830:	80c00117 	ldw	r3,4(r16)
10007834:	1886703a 	and	r3,r3,r2
10007838:	003f9706 	br	10007698 <__alt_data_end+0xf8007698>
1000783c:	52800017 	ldw	r10,0(r10)
10007840:	18ffffc4 	addi	r3,r3,-1
10007844:	50805c1e 	bne	r10,r2,100079b8 <_malloc_r+0x798>
10007848:	190000cc 	andi	r4,r3,3
1000784c:	50bffe04 	addi	r2,r10,-8
10007850:	203ffa1e 	bne	r4,zero,1000783c <__alt_data_end+0xf800783c>
10007854:	98800117 	ldw	r2,4(r19)
10007858:	0146303a 	nor	r3,zero,r5
1000785c:	1884703a 	and	r2,r3,r2
10007860:	98800115 	stw	r2,4(r19)
10007864:	294b883a 	add	r5,r5,r5
10007868:	117f2e36 	bltu	r2,r5,10007524 <__alt_data_end+0xf8007524>
1000786c:	283f2d26 	beq	r5,zero,10007524 <__alt_data_end+0xf8007524>
10007870:	1146703a 	and	r3,r2,r5
10007874:	1800521e 	bne	r3,zero,100079c0 <_malloc_r+0x7a0>
10007878:	6007883a 	mov	r3,r12
1000787c:	294b883a 	add	r5,r5,r5
10007880:	1148703a 	and	r4,r2,r5
10007884:	18c00104 	addi	r3,r3,4
10007888:	203ffc26 	beq	r4,zero,1000787c <__alt_data_end+0xf800787c>
1000788c:	003ef006 	br	10007450 <__alt_data_end+0xf8007450>
10007890:	00805504 	movi	r2,340
10007894:	10c01336 	bltu	r2,r3,100078e4 <_malloc_r+0x6c4>
10007898:	8806d3fa 	srli	r3,r17,15
1000789c:	19c01dc4 	addi	r7,r3,119
100078a0:	39cb883a 	add	r5,r7,r7
100078a4:	003ea206 	br	10007330 <__alt_data_end+0xf8007330>
100078a8:	00c40004 	movi	r3,4096
100078ac:	003f4d06 	br	100075e4 <__alt_data_end+0xf80075e4>
100078b0:	00800044 	movi	r2,1
100078b4:	a0800115 	stw	r2,4(r20)
100078b8:	a021883a 	mov	r16,r20
100078bc:	0007883a 	mov	r3,zero
100078c0:	003f7506 	br	10007698 <__alt_data_end+0xf8007698>
100078c4:	200bd0ba 	srai	r5,r4,2
100078c8:	01800044 	movi	r6,1
100078cc:	41000117 	ldw	r4,4(r8)
100078d0:	314a983a 	sll	r5,r6,r5
100078d4:	100d883a 	mov	r6,r2
100078d8:	2908b03a 	or	r4,r5,r4
100078dc:	41000115 	stw	r4,4(r8)
100078e0:	003f9d06 	br	10007758 <__alt_data_end+0xf8007758>
100078e4:	00815504 	movi	r2,1364
100078e8:	10c01336 	bltu	r2,r3,10007938 <_malloc_r+0x718>
100078ec:	8806d4ba 	srli	r3,r17,18
100078f0:	19c01f04 	addi	r7,r3,124
100078f4:	39cb883a 	add	r5,r7,r7
100078f8:	003e8d06 	br	10007330 <__alt_data_end+0xf8007330>
100078fc:	ad400404 	addi	r21,r21,16
10007900:	003f1d06 	br	10007578 <__alt_data_end+0xf8007578>
10007904:	01001504 	movi	r4,84
10007908:	20801c36 	bltu	r4,r2,1000797c <_malloc_r+0x75c>
1000790c:	3804d33a 	srli	r2,r7,12
10007910:	11001b84 	addi	r4,r2,110
10007914:	210b883a 	add	r5,r4,r4
10007918:	003f8006 	br	1000771c <__alt_data_end+0xf800771c>
1000791c:	3083ffcc 	andi	r2,r6,4095
10007920:	103f241e 	bne	r2,zero,100075b4 <__alt_data_end+0xf80075b4>
10007924:	99000217 	ldw	r4,8(r19)
10007928:	ad85883a 	add	r2,r21,r22
1000792c:	10800054 	ori	r2,r2,1
10007930:	20800115 	stw	r2,4(r4)
10007934:	003f4a06 	br	10007660 <__alt_data_end+0xf8007660>
10007938:	01403f04 	movi	r5,252
1000793c:	01c01f84 	movi	r7,126
10007940:	003e7b06 	br	10007330 <__alt_data_end+0xf8007330>
10007944:	00c00044 	movi	r3,1
10007948:	002b883a 	mov	r21,zero
1000794c:	003f3006 	br	10007610 <__alt_data_end+0xf8007610>
10007950:	00840074 	movhi	r2,4097
10007954:	108e3b04 	addi	r2,r2,14572
10007958:	15000015 	stw	r20,0(r2)
1000795c:	003f1b06 	br	100075cc <__alt_data_end+0xf80075cc>
10007960:	9009883a 	mov	r4,r18
10007964:	81400204 	addi	r5,r16,8
10007968:	00066840 	call	10006684 <_free_r>
1000796c:	00840074 	movhi	r2,4097
10007970:	10951204 	addi	r2,r2,21576
10007974:	10c00017 	ldw	r3,0(r2)
10007978:	003f3906 	br	10007660 <__alt_data_end+0xf8007660>
1000797c:	01005504 	movi	r4,340
10007980:	20800436 	bltu	r4,r2,10007994 <_malloc_r+0x774>
10007984:	3804d3fa 	srli	r2,r7,15
10007988:	11001dc4 	addi	r4,r2,119
1000798c:	210b883a 	add	r5,r4,r4
10007990:	003f6206 	br	1000771c <__alt_data_end+0xf800771c>
10007994:	01015504 	movi	r4,1364
10007998:	20800436 	bltu	r4,r2,100079ac <_malloc_r+0x78c>
1000799c:	3804d4ba 	srli	r2,r7,18
100079a0:	11001f04 	addi	r4,r2,124
100079a4:	210b883a 	add	r5,r4,r4
100079a8:	003f5c06 	br	1000771c <__alt_data_end+0xf800771c>
100079ac:	01403f04 	movi	r5,252
100079b0:	01001f84 	movi	r4,126
100079b4:	003f5906 	br	1000771c <__alt_data_end+0xf800771c>
100079b8:	98800117 	ldw	r2,4(r19)
100079bc:	003fa906 	br	10007864 <__alt_data_end+0xf8007864>
100079c0:	6007883a 	mov	r3,r12
100079c4:	003ea206 	br	10007450 <__alt_data_end+0xf8007450>

100079c8 <memchr>:
100079c8:	208000cc 	andi	r2,r4,3
100079cc:	280f883a 	mov	r7,r5
100079d0:	10003526 	beq	r2,zero,10007aa8 <memchr+0xe0>
100079d4:	30bfffc4 	addi	r2,r6,-1
100079d8:	30001b26 	beq	r6,zero,10007a48 <memchr+0x80>
100079dc:	21800003 	ldbu	r6,0(r4)
100079e0:	28c03fcc 	andi	r3,r5,255
100079e4:	30c01a26 	beq	r6,r3,10007a50 <memchr+0x88>
100079e8:	180d883a 	mov	r6,r3
100079ec:	00000406 	br	10007a00 <memchr+0x38>
100079f0:	10001526 	beq	r2,zero,10007a48 <memchr+0x80>
100079f4:	20c00003 	ldbu	r3,0(r4)
100079f8:	10bfffc4 	addi	r2,r2,-1
100079fc:	19801426 	beq	r3,r6,10007a50 <memchr+0x88>
10007a00:	21000044 	addi	r4,r4,1
10007a04:	20c000cc 	andi	r3,r4,3
10007a08:	183ff91e 	bne	r3,zero,100079f0 <__alt_data_end+0xf80079f0>
10007a0c:	024000c4 	movi	r9,3
10007a10:	48801136 	bltu	r9,r2,10007a58 <memchr+0x90>
10007a14:	10000c26 	beq	r2,zero,10007a48 <memchr+0x80>
10007a18:	20c00003 	ldbu	r3,0(r4)
10007a1c:	29403fcc 	andi	r5,r5,255
10007a20:	19400b26 	beq	r3,r5,10007a50 <memchr+0x88>
10007a24:	20c00044 	addi	r3,r4,1
10007a28:	2085883a 	add	r2,r4,r2
10007a2c:	39803fcc 	andi	r6,r7,255
10007a30:	00000306 	br	10007a40 <memchr+0x78>
10007a34:	18c00044 	addi	r3,r3,1
10007a38:	197fffc3 	ldbu	r5,-1(r3)
10007a3c:	29800426 	beq	r5,r6,10007a50 <memchr+0x88>
10007a40:	1809883a 	mov	r4,r3
10007a44:	18bffb1e 	bne	r3,r2,10007a34 <__alt_data_end+0xf8007a34>
10007a48:	0005883a 	mov	r2,zero
10007a4c:	f800283a 	ret
10007a50:	2005883a 	mov	r2,r4
10007a54:	f800283a 	ret
10007a58:	28c03fcc 	andi	r3,r5,255
10007a5c:	1810923a 	slli	r8,r3,8
10007a60:	02ffbff4 	movhi	r11,65279
10007a64:	02a02074 	movhi	r10,32897
10007a68:	40c6b03a 	or	r3,r8,r3
10007a6c:	1810943a 	slli	r8,r3,16
10007a70:	5affbfc4 	addi	r11,r11,-257
10007a74:	52a02004 	addi	r10,r10,-32640
10007a78:	40d0b03a 	or	r8,r8,r3
10007a7c:	20c00017 	ldw	r3,0(r4)
10007a80:	40c6f03a 	xor	r3,r8,r3
10007a84:	1acd883a 	add	r6,r3,r11
10007a88:	00c6303a 	nor	r3,zero,r3
10007a8c:	30c6703a 	and	r3,r6,r3
10007a90:	1a86703a 	and	r3,r3,r10
10007a94:	183fdf1e 	bne	r3,zero,10007a14 <__alt_data_end+0xf8007a14>
10007a98:	10bfff04 	addi	r2,r2,-4
10007a9c:	21000104 	addi	r4,r4,4
10007aa0:	48bff636 	bltu	r9,r2,10007a7c <__alt_data_end+0xf8007a7c>
10007aa4:	003fdb06 	br	10007a14 <__alt_data_end+0xf8007a14>
10007aa8:	3005883a 	mov	r2,r6
10007aac:	003fd706 	br	10007a0c <__alt_data_end+0xf8007a0c>

10007ab0 <memcpy>:
10007ab0:	deffff04 	addi	sp,sp,-4
10007ab4:	dc000015 	stw	r16,0(sp)
10007ab8:	00c003c4 	movi	r3,15
10007abc:	2005883a 	mov	r2,r4
10007ac0:	1980432e 	bgeu	r3,r6,10007bd0 <memcpy+0x120>
10007ac4:	2146b03a 	or	r3,r4,r5
10007ac8:	18c000cc 	andi	r3,r3,3
10007acc:	1800421e 	bne	r3,zero,10007bd8 <memcpy+0x128>
10007ad0:	343ffc04 	addi	r16,r6,-16
10007ad4:	8020d13a 	srli	r16,r16,4
10007ad8:	28c00104 	addi	r3,r5,4
10007adc:	23400104 	addi	r13,r4,4
10007ae0:	801e913a 	slli	r15,r16,4
10007ae4:	2b000204 	addi	r12,r5,8
10007ae8:	22c00204 	addi	r11,r4,8
10007aec:	7bc00504 	addi	r15,r15,20
10007af0:	2a800304 	addi	r10,r5,12
10007af4:	22400304 	addi	r9,r4,12
10007af8:	2bdf883a 	add	r15,r5,r15
10007afc:	2811883a 	mov	r8,r5
10007b00:	200f883a 	mov	r7,r4
10007b04:	41000017 	ldw	r4,0(r8)
10007b08:	39c00404 	addi	r7,r7,16
10007b0c:	18c00404 	addi	r3,r3,16
10007b10:	393ffc15 	stw	r4,-16(r7)
10007b14:	1bbffc17 	ldw	r14,-16(r3)
10007b18:	6b400404 	addi	r13,r13,16
10007b1c:	5ac00404 	addi	r11,r11,16
10007b20:	6bbffc15 	stw	r14,-16(r13)
10007b24:	63800017 	ldw	r14,0(r12)
10007b28:	4a400404 	addi	r9,r9,16
10007b2c:	42000404 	addi	r8,r8,16
10007b30:	5bbffc15 	stw	r14,-16(r11)
10007b34:	53800017 	ldw	r14,0(r10)
10007b38:	63000404 	addi	r12,r12,16
10007b3c:	52800404 	addi	r10,r10,16
10007b40:	4bbffc15 	stw	r14,-16(r9)
10007b44:	1bffef1e 	bne	r3,r15,10007b04 <__alt_data_end+0xf8007b04>
10007b48:	81c00044 	addi	r7,r16,1
10007b4c:	380e913a 	slli	r7,r7,4
10007b50:	310003cc 	andi	r4,r6,15
10007b54:	02c000c4 	movi	r11,3
10007b58:	11c7883a 	add	r3,r2,r7
10007b5c:	29cb883a 	add	r5,r5,r7
10007b60:	59001f2e 	bgeu	r11,r4,10007be0 <memcpy+0x130>
10007b64:	1813883a 	mov	r9,r3
10007b68:	2811883a 	mov	r8,r5
10007b6c:	200f883a 	mov	r7,r4
10007b70:	42800017 	ldw	r10,0(r8)
10007b74:	4a400104 	addi	r9,r9,4
10007b78:	39ffff04 	addi	r7,r7,-4
10007b7c:	4abfff15 	stw	r10,-4(r9)
10007b80:	42000104 	addi	r8,r8,4
10007b84:	59fffa36 	bltu	r11,r7,10007b70 <__alt_data_end+0xf8007b70>
10007b88:	213fff04 	addi	r4,r4,-4
10007b8c:	2008d0ba 	srli	r4,r4,2
10007b90:	318000cc 	andi	r6,r6,3
10007b94:	21000044 	addi	r4,r4,1
10007b98:	2109883a 	add	r4,r4,r4
10007b9c:	2109883a 	add	r4,r4,r4
10007ba0:	1907883a 	add	r3,r3,r4
10007ba4:	290b883a 	add	r5,r5,r4
10007ba8:	30000626 	beq	r6,zero,10007bc4 <memcpy+0x114>
10007bac:	198d883a 	add	r6,r3,r6
10007bb0:	29c00003 	ldbu	r7,0(r5)
10007bb4:	18c00044 	addi	r3,r3,1
10007bb8:	29400044 	addi	r5,r5,1
10007bbc:	19ffffc5 	stb	r7,-1(r3)
10007bc0:	19bffb1e 	bne	r3,r6,10007bb0 <__alt_data_end+0xf8007bb0>
10007bc4:	dc000017 	ldw	r16,0(sp)
10007bc8:	dec00104 	addi	sp,sp,4
10007bcc:	f800283a 	ret
10007bd0:	2007883a 	mov	r3,r4
10007bd4:	003ff406 	br	10007ba8 <__alt_data_end+0xf8007ba8>
10007bd8:	2007883a 	mov	r3,r4
10007bdc:	003ff306 	br	10007bac <__alt_data_end+0xf8007bac>
10007be0:	200d883a 	mov	r6,r4
10007be4:	003ff006 	br	10007ba8 <__alt_data_end+0xf8007ba8>

10007be8 <memmove>:
10007be8:	2005883a 	mov	r2,r4
10007bec:	29000b2e 	bgeu	r5,r4,10007c1c <memmove+0x34>
10007bf0:	298f883a 	add	r7,r5,r6
10007bf4:	21c0092e 	bgeu	r4,r7,10007c1c <memmove+0x34>
10007bf8:	2187883a 	add	r3,r4,r6
10007bfc:	198bc83a 	sub	r5,r3,r6
10007c00:	30004b26 	beq	r6,zero,10007d30 <memmove+0x148>
10007c04:	39ffffc4 	addi	r7,r7,-1
10007c08:	39000003 	ldbu	r4,0(r7)
10007c0c:	18ffffc4 	addi	r3,r3,-1
10007c10:	19000005 	stb	r4,0(r3)
10007c14:	197ffb1e 	bne	r3,r5,10007c04 <__alt_data_end+0xf8007c04>
10007c18:	f800283a 	ret
10007c1c:	00c003c4 	movi	r3,15
10007c20:	1980412e 	bgeu	r3,r6,10007d28 <memmove+0x140>
10007c24:	1146b03a 	or	r3,r2,r5
10007c28:	18c000cc 	andi	r3,r3,3
10007c2c:	1800411e 	bne	r3,zero,10007d34 <memmove+0x14c>
10007c30:	33fffc04 	addi	r15,r6,-16
10007c34:	781ed13a 	srli	r15,r15,4
10007c38:	28c00104 	addi	r3,r5,4
10007c3c:	13400104 	addi	r13,r2,4
10007c40:	781c913a 	slli	r14,r15,4
10007c44:	2b000204 	addi	r12,r5,8
10007c48:	12c00204 	addi	r11,r2,8
10007c4c:	73800504 	addi	r14,r14,20
10007c50:	2a800304 	addi	r10,r5,12
10007c54:	12400304 	addi	r9,r2,12
10007c58:	2b9d883a 	add	r14,r5,r14
10007c5c:	2811883a 	mov	r8,r5
10007c60:	100f883a 	mov	r7,r2
10007c64:	41000017 	ldw	r4,0(r8)
10007c68:	39c00404 	addi	r7,r7,16
10007c6c:	18c00404 	addi	r3,r3,16
10007c70:	393ffc15 	stw	r4,-16(r7)
10007c74:	193ffc17 	ldw	r4,-16(r3)
10007c78:	6b400404 	addi	r13,r13,16
10007c7c:	5ac00404 	addi	r11,r11,16
10007c80:	693ffc15 	stw	r4,-16(r13)
10007c84:	61000017 	ldw	r4,0(r12)
10007c88:	4a400404 	addi	r9,r9,16
10007c8c:	42000404 	addi	r8,r8,16
10007c90:	593ffc15 	stw	r4,-16(r11)
10007c94:	51000017 	ldw	r4,0(r10)
10007c98:	63000404 	addi	r12,r12,16
10007c9c:	52800404 	addi	r10,r10,16
10007ca0:	493ffc15 	stw	r4,-16(r9)
10007ca4:	1bbfef1e 	bne	r3,r14,10007c64 <__alt_data_end+0xf8007c64>
10007ca8:	79000044 	addi	r4,r15,1
10007cac:	2008913a 	slli	r4,r4,4
10007cb0:	328003cc 	andi	r10,r6,15
10007cb4:	02c000c4 	movi	r11,3
10007cb8:	1107883a 	add	r3,r2,r4
10007cbc:	290b883a 	add	r5,r5,r4
10007cc0:	5a801e2e 	bgeu	r11,r10,10007d3c <memmove+0x154>
10007cc4:	1813883a 	mov	r9,r3
10007cc8:	2811883a 	mov	r8,r5
10007ccc:	500f883a 	mov	r7,r10
10007cd0:	41000017 	ldw	r4,0(r8)
10007cd4:	4a400104 	addi	r9,r9,4
10007cd8:	39ffff04 	addi	r7,r7,-4
10007cdc:	493fff15 	stw	r4,-4(r9)
10007ce0:	42000104 	addi	r8,r8,4
10007ce4:	59fffa36 	bltu	r11,r7,10007cd0 <__alt_data_end+0xf8007cd0>
10007ce8:	513fff04 	addi	r4,r10,-4
10007cec:	2008d0ba 	srli	r4,r4,2
10007cf0:	318000cc 	andi	r6,r6,3
10007cf4:	21000044 	addi	r4,r4,1
10007cf8:	2109883a 	add	r4,r4,r4
10007cfc:	2109883a 	add	r4,r4,r4
10007d00:	1907883a 	add	r3,r3,r4
10007d04:	290b883a 	add	r5,r5,r4
10007d08:	30000926 	beq	r6,zero,10007d30 <memmove+0x148>
10007d0c:	198d883a 	add	r6,r3,r6
10007d10:	29c00003 	ldbu	r7,0(r5)
10007d14:	18c00044 	addi	r3,r3,1
10007d18:	29400044 	addi	r5,r5,1
10007d1c:	19ffffc5 	stb	r7,-1(r3)
10007d20:	19bffb1e 	bne	r3,r6,10007d10 <__alt_data_end+0xf8007d10>
10007d24:	f800283a 	ret
10007d28:	1007883a 	mov	r3,r2
10007d2c:	003ff606 	br	10007d08 <__alt_data_end+0xf8007d08>
10007d30:	f800283a 	ret
10007d34:	1007883a 	mov	r3,r2
10007d38:	003ff406 	br	10007d0c <__alt_data_end+0xf8007d0c>
10007d3c:	500d883a 	mov	r6,r10
10007d40:	003ff106 	br	10007d08 <__alt_data_end+0xf8007d08>

10007d44 <memset>:
10007d44:	20c000cc 	andi	r3,r4,3
10007d48:	2005883a 	mov	r2,r4
10007d4c:	18004326 	beq	r3,zero,10007e5c <memset+0x118>
10007d50:	31ffffc4 	addi	r7,r6,-1
10007d54:	30004026 	beq	r6,zero,10007e58 <memset+0x114>
10007d58:	2813883a 	mov	r9,r5
10007d5c:	200d883a 	mov	r6,r4
10007d60:	2007883a 	mov	r3,r4
10007d64:	00000406 	br	10007d78 <memset+0x34>
10007d68:	3a3fffc4 	addi	r8,r7,-1
10007d6c:	31800044 	addi	r6,r6,1
10007d70:	38003926 	beq	r7,zero,10007e58 <memset+0x114>
10007d74:	400f883a 	mov	r7,r8
10007d78:	18c00044 	addi	r3,r3,1
10007d7c:	32400005 	stb	r9,0(r6)
10007d80:	1a0000cc 	andi	r8,r3,3
10007d84:	403ff81e 	bne	r8,zero,10007d68 <__alt_data_end+0xf8007d68>
10007d88:	010000c4 	movi	r4,3
10007d8c:	21c02d2e 	bgeu	r4,r7,10007e44 <memset+0x100>
10007d90:	29803fcc 	andi	r6,r5,255
10007d94:	3008923a 	slli	r4,r6,8
10007d98:	218cb03a 	or	r6,r4,r6
10007d9c:	3008943a 	slli	r4,r6,16
10007da0:	218cb03a 	or	r6,r4,r6
10007da4:	010003c4 	movi	r4,15
10007da8:	21c0182e 	bgeu	r4,r7,10007e0c <memset+0xc8>
10007dac:	3b3ffc04 	addi	r12,r7,-16
10007db0:	6018d13a 	srli	r12,r12,4
10007db4:	1a000104 	addi	r8,r3,4
10007db8:	1ac00204 	addi	r11,r3,8
10007dbc:	6008913a 	slli	r4,r12,4
10007dc0:	1a800304 	addi	r10,r3,12
10007dc4:	1813883a 	mov	r9,r3
10007dc8:	21000504 	addi	r4,r4,20
10007dcc:	1909883a 	add	r4,r3,r4
10007dd0:	49800015 	stw	r6,0(r9)
10007dd4:	41800015 	stw	r6,0(r8)
10007dd8:	59800015 	stw	r6,0(r11)
10007ddc:	51800015 	stw	r6,0(r10)
10007de0:	42000404 	addi	r8,r8,16
10007de4:	4a400404 	addi	r9,r9,16
10007de8:	5ac00404 	addi	r11,r11,16
10007dec:	52800404 	addi	r10,r10,16
10007df0:	413ff71e 	bne	r8,r4,10007dd0 <__alt_data_end+0xf8007dd0>
10007df4:	63000044 	addi	r12,r12,1
10007df8:	6018913a 	slli	r12,r12,4
10007dfc:	39c003cc 	andi	r7,r7,15
10007e00:	010000c4 	movi	r4,3
10007e04:	1b07883a 	add	r3,r3,r12
10007e08:	21c00e2e 	bgeu	r4,r7,10007e44 <memset+0x100>
10007e0c:	1813883a 	mov	r9,r3
10007e10:	3811883a 	mov	r8,r7
10007e14:	010000c4 	movi	r4,3
10007e18:	49800015 	stw	r6,0(r9)
10007e1c:	423fff04 	addi	r8,r8,-4
10007e20:	4a400104 	addi	r9,r9,4
10007e24:	223ffc36 	bltu	r4,r8,10007e18 <__alt_data_end+0xf8007e18>
10007e28:	393fff04 	addi	r4,r7,-4
10007e2c:	2008d0ba 	srli	r4,r4,2
10007e30:	39c000cc 	andi	r7,r7,3
10007e34:	21000044 	addi	r4,r4,1
10007e38:	2109883a 	add	r4,r4,r4
10007e3c:	2109883a 	add	r4,r4,r4
10007e40:	1907883a 	add	r3,r3,r4
10007e44:	38000426 	beq	r7,zero,10007e58 <memset+0x114>
10007e48:	19cf883a 	add	r7,r3,r7
10007e4c:	19400005 	stb	r5,0(r3)
10007e50:	18c00044 	addi	r3,r3,1
10007e54:	19fffd1e 	bne	r3,r7,10007e4c <__alt_data_end+0xf8007e4c>
10007e58:	f800283a 	ret
10007e5c:	2007883a 	mov	r3,r4
10007e60:	300f883a 	mov	r7,r6
10007e64:	003fc806 	br	10007d88 <__alt_data_end+0xf8007d88>

10007e68 <_Balloc>:
10007e68:	20801317 	ldw	r2,76(r4)
10007e6c:	defffc04 	addi	sp,sp,-16
10007e70:	dc400115 	stw	r17,4(sp)
10007e74:	dc000015 	stw	r16,0(sp)
10007e78:	dfc00315 	stw	ra,12(sp)
10007e7c:	dc800215 	stw	r18,8(sp)
10007e80:	2023883a 	mov	r17,r4
10007e84:	2821883a 	mov	r16,r5
10007e88:	10000f26 	beq	r2,zero,10007ec8 <_Balloc+0x60>
10007e8c:	8407883a 	add	r3,r16,r16
10007e90:	18c7883a 	add	r3,r3,r3
10007e94:	10c7883a 	add	r3,r2,r3
10007e98:	18800017 	ldw	r2,0(r3)
10007e9c:	10001126 	beq	r2,zero,10007ee4 <_Balloc+0x7c>
10007ea0:	11000017 	ldw	r4,0(r2)
10007ea4:	19000015 	stw	r4,0(r3)
10007ea8:	10000415 	stw	zero,16(r2)
10007eac:	10000315 	stw	zero,12(r2)
10007eb0:	dfc00317 	ldw	ra,12(sp)
10007eb4:	dc800217 	ldw	r18,8(sp)
10007eb8:	dc400117 	ldw	r17,4(sp)
10007ebc:	dc000017 	ldw	r16,0(sp)
10007ec0:	dec00404 	addi	sp,sp,16
10007ec4:	f800283a 	ret
10007ec8:	01400104 	movi	r5,4
10007ecc:	01800844 	movi	r6,33
10007ed0:	000ad040 	call	1000ad04 <_calloc_r>
10007ed4:	88801315 	stw	r2,76(r17)
10007ed8:	103fec1e 	bne	r2,zero,10007e8c <__alt_data_end+0xf8007e8c>
10007edc:	0005883a 	mov	r2,zero
10007ee0:	003ff306 	br	10007eb0 <__alt_data_end+0xf8007eb0>
10007ee4:	01400044 	movi	r5,1
10007ee8:	2c24983a 	sll	r18,r5,r16
10007eec:	8809883a 	mov	r4,r17
10007ef0:	91800144 	addi	r6,r18,5
10007ef4:	318d883a 	add	r6,r6,r6
10007ef8:	318d883a 	add	r6,r6,r6
10007efc:	000ad040 	call	1000ad04 <_calloc_r>
10007f00:	103ff626 	beq	r2,zero,10007edc <__alt_data_end+0xf8007edc>
10007f04:	14000115 	stw	r16,4(r2)
10007f08:	14800215 	stw	r18,8(r2)
10007f0c:	003fe606 	br	10007ea8 <__alt_data_end+0xf8007ea8>

10007f10 <_Bfree>:
10007f10:	28000826 	beq	r5,zero,10007f34 <_Bfree+0x24>
10007f14:	28c00117 	ldw	r3,4(r5)
10007f18:	20801317 	ldw	r2,76(r4)
10007f1c:	18c7883a 	add	r3,r3,r3
10007f20:	18c7883a 	add	r3,r3,r3
10007f24:	10c5883a 	add	r2,r2,r3
10007f28:	10c00017 	ldw	r3,0(r2)
10007f2c:	28c00015 	stw	r3,0(r5)
10007f30:	11400015 	stw	r5,0(r2)
10007f34:	f800283a 	ret

10007f38 <__multadd>:
10007f38:	defff704 	addi	sp,sp,-36
10007f3c:	dc800215 	stw	r18,8(sp)
10007f40:	2c800417 	ldw	r18,16(r5)
10007f44:	ddc00715 	stw	r23,28(sp)
10007f48:	dd800615 	stw	r22,24(sp)
10007f4c:	dd000415 	stw	r20,16(sp)
10007f50:	dcc00315 	stw	r19,12(sp)
10007f54:	dc400115 	stw	r17,4(sp)
10007f58:	dc000015 	stw	r16,0(sp)
10007f5c:	dfc00815 	stw	ra,32(sp)
10007f60:	dd400515 	stw	r21,20(sp)
10007f64:	2827883a 	mov	r19,r5
10007f68:	2029883a 	mov	r20,r4
10007f6c:	3023883a 	mov	r17,r6
10007f70:	3821883a 	mov	r16,r7
10007f74:	2d800504 	addi	r22,r5,20
10007f78:	002f883a 	mov	r23,zero
10007f7c:	b5400017 	ldw	r21,0(r22)
10007f80:	880b883a 	mov	r5,r17
10007f84:	bdc00044 	addi	r23,r23,1
10007f88:	a93fffcc 	andi	r4,r21,65535
10007f8c:	000c3280 	call	1000c328 <__mulsi3>
10007f90:	1421883a 	add	r16,r2,r16
10007f94:	a808d43a 	srli	r4,r21,16
10007f98:	802ad43a 	srli	r21,r16,16
10007f9c:	880b883a 	mov	r5,r17
10007fa0:	000c3280 	call	1000c328 <__mulsi3>
10007fa4:	a88f883a 	add	r7,r21,r2
10007fa8:	3804943a 	slli	r2,r7,16
10007fac:	80ffffcc 	andi	r3,r16,65535
10007fb0:	b5800104 	addi	r22,r22,4
10007fb4:	10c7883a 	add	r3,r2,r3
10007fb8:	b0ffff15 	stw	r3,-4(r22)
10007fbc:	3820d43a 	srli	r16,r7,16
10007fc0:	bcbfee16 	blt	r23,r18,10007f7c <__alt_data_end+0xf8007f7c>
10007fc4:	80000926 	beq	r16,zero,10007fec <__multadd+0xb4>
10007fc8:	98800217 	ldw	r2,8(r19)
10007fcc:	9080130e 	bge	r18,r2,1000801c <__multadd+0xe4>
10007fd0:	90800144 	addi	r2,r18,5
10007fd4:	1085883a 	add	r2,r2,r2
10007fd8:	1085883a 	add	r2,r2,r2
10007fdc:	9885883a 	add	r2,r19,r2
10007fe0:	14000015 	stw	r16,0(r2)
10007fe4:	94800044 	addi	r18,r18,1
10007fe8:	9c800415 	stw	r18,16(r19)
10007fec:	9805883a 	mov	r2,r19
10007ff0:	dfc00817 	ldw	ra,32(sp)
10007ff4:	ddc00717 	ldw	r23,28(sp)
10007ff8:	dd800617 	ldw	r22,24(sp)
10007ffc:	dd400517 	ldw	r21,20(sp)
10008000:	dd000417 	ldw	r20,16(sp)
10008004:	dcc00317 	ldw	r19,12(sp)
10008008:	dc800217 	ldw	r18,8(sp)
1000800c:	dc400117 	ldw	r17,4(sp)
10008010:	dc000017 	ldw	r16,0(sp)
10008014:	dec00904 	addi	sp,sp,36
10008018:	f800283a 	ret
1000801c:	99400117 	ldw	r5,4(r19)
10008020:	a009883a 	mov	r4,r20
10008024:	29400044 	addi	r5,r5,1
10008028:	0007e680 	call	10007e68 <_Balloc>
1000802c:	99800417 	ldw	r6,16(r19)
10008030:	99400304 	addi	r5,r19,12
10008034:	11000304 	addi	r4,r2,12
10008038:	31800084 	addi	r6,r6,2
1000803c:	318d883a 	add	r6,r6,r6
10008040:	318d883a 	add	r6,r6,r6
10008044:	1023883a 	mov	r17,r2
10008048:	0007ab00 	call	10007ab0 <memcpy>
1000804c:	99000117 	ldw	r4,4(r19)
10008050:	a0c01317 	ldw	r3,76(r20)
10008054:	2109883a 	add	r4,r4,r4
10008058:	2109883a 	add	r4,r4,r4
1000805c:	1907883a 	add	r3,r3,r4
10008060:	18800017 	ldw	r2,0(r3)
10008064:	98800015 	stw	r2,0(r19)
10008068:	1cc00015 	stw	r19,0(r3)
1000806c:	8827883a 	mov	r19,r17
10008070:	003fd706 	br	10007fd0 <__alt_data_end+0xf8007fd0>

10008074 <__s2b>:
10008074:	defff904 	addi	sp,sp,-28
10008078:	dc400115 	stw	r17,4(sp)
1000807c:	dc000015 	stw	r16,0(sp)
10008080:	2023883a 	mov	r17,r4
10008084:	2821883a 	mov	r16,r5
10008088:	39000204 	addi	r4,r7,8
1000808c:	01400244 	movi	r5,9
10008090:	dcc00315 	stw	r19,12(sp)
10008094:	dc800215 	stw	r18,8(sp)
10008098:	dfc00615 	stw	ra,24(sp)
1000809c:	dd400515 	stw	r21,20(sp)
100080a0:	dd000415 	stw	r20,16(sp)
100080a4:	3825883a 	mov	r18,r7
100080a8:	3027883a 	mov	r19,r6
100080ac:	000c2680 	call	1000c268 <__divsi3>
100080b0:	00c00044 	movi	r3,1
100080b4:	000b883a 	mov	r5,zero
100080b8:	1880030e 	bge	r3,r2,100080c8 <__s2b+0x54>
100080bc:	18c7883a 	add	r3,r3,r3
100080c0:	29400044 	addi	r5,r5,1
100080c4:	18bffd16 	blt	r3,r2,100080bc <__alt_data_end+0xf80080bc>
100080c8:	8809883a 	mov	r4,r17
100080cc:	0007e680 	call	10007e68 <_Balloc>
100080d0:	d8c00717 	ldw	r3,28(sp)
100080d4:	10c00515 	stw	r3,20(r2)
100080d8:	00c00044 	movi	r3,1
100080dc:	10c00415 	stw	r3,16(r2)
100080e0:	00c00244 	movi	r3,9
100080e4:	1cc0210e 	bge	r3,r19,1000816c <__s2b+0xf8>
100080e8:	80eb883a 	add	r21,r16,r3
100080ec:	a829883a 	mov	r20,r21
100080f0:	84e1883a 	add	r16,r16,r19
100080f4:	a1c00007 	ldb	r7,0(r20)
100080f8:	8809883a 	mov	r4,r17
100080fc:	a5000044 	addi	r20,r20,1
10008100:	100b883a 	mov	r5,r2
10008104:	01800284 	movi	r6,10
10008108:	39fff404 	addi	r7,r7,-48
1000810c:	0007f380 	call	10007f38 <__multadd>
10008110:	a43ff81e 	bne	r20,r16,100080f4 <__alt_data_end+0xf80080f4>
10008114:	ace1883a 	add	r16,r21,r19
10008118:	843ffe04 	addi	r16,r16,-8
1000811c:	9c800a0e 	bge	r19,r18,10008148 <__s2b+0xd4>
10008120:	94e5c83a 	sub	r18,r18,r19
10008124:	84a5883a 	add	r18,r16,r18
10008128:	81c00007 	ldb	r7,0(r16)
1000812c:	8809883a 	mov	r4,r17
10008130:	84000044 	addi	r16,r16,1
10008134:	100b883a 	mov	r5,r2
10008138:	01800284 	movi	r6,10
1000813c:	39fff404 	addi	r7,r7,-48
10008140:	0007f380 	call	10007f38 <__multadd>
10008144:	84bff81e 	bne	r16,r18,10008128 <__alt_data_end+0xf8008128>
10008148:	dfc00617 	ldw	ra,24(sp)
1000814c:	dd400517 	ldw	r21,20(sp)
10008150:	dd000417 	ldw	r20,16(sp)
10008154:	dcc00317 	ldw	r19,12(sp)
10008158:	dc800217 	ldw	r18,8(sp)
1000815c:	dc400117 	ldw	r17,4(sp)
10008160:	dc000017 	ldw	r16,0(sp)
10008164:	dec00704 	addi	sp,sp,28
10008168:	f800283a 	ret
1000816c:	84000284 	addi	r16,r16,10
10008170:	1827883a 	mov	r19,r3
10008174:	003fe906 	br	1000811c <__alt_data_end+0xf800811c>

10008178 <__hi0bits>:
10008178:	20bfffec 	andhi	r2,r4,65535
1000817c:	1000141e 	bne	r2,zero,100081d0 <__hi0bits+0x58>
10008180:	2008943a 	slli	r4,r4,16
10008184:	00800404 	movi	r2,16
10008188:	20ffc02c 	andhi	r3,r4,65280
1000818c:	1800021e 	bne	r3,zero,10008198 <__hi0bits+0x20>
10008190:	2008923a 	slli	r4,r4,8
10008194:	10800204 	addi	r2,r2,8
10008198:	20fc002c 	andhi	r3,r4,61440
1000819c:	1800021e 	bne	r3,zero,100081a8 <__hi0bits+0x30>
100081a0:	2008913a 	slli	r4,r4,4
100081a4:	10800104 	addi	r2,r2,4
100081a8:	20f0002c 	andhi	r3,r4,49152
100081ac:	1800031e 	bne	r3,zero,100081bc <__hi0bits+0x44>
100081b0:	2109883a 	add	r4,r4,r4
100081b4:	10800084 	addi	r2,r2,2
100081b8:	2109883a 	add	r4,r4,r4
100081bc:	20000316 	blt	r4,zero,100081cc <__hi0bits+0x54>
100081c0:	2110002c 	andhi	r4,r4,16384
100081c4:	2000041e 	bne	r4,zero,100081d8 <__hi0bits+0x60>
100081c8:	00800804 	movi	r2,32
100081cc:	f800283a 	ret
100081d0:	0005883a 	mov	r2,zero
100081d4:	003fec06 	br	10008188 <__alt_data_end+0xf8008188>
100081d8:	10800044 	addi	r2,r2,1
100081dc:	f800283a 	ret

100081e0 <__lo0bits>:
100081e0:	20c00017 	ldw	r3,0(r4)
100081e4:	188001cc 	andi	r2,r3,7
100081e8:	10000826 	beq	r2,zero,1000820c <__lo0bits+0x2c>
100081ec:	1880004c 	andi	r2,r3,1
100081f0:	1000211e 	bne	r2,zero,10008278 <__lo0bits+0x98>
100081f4:	1880008c 	andi	r2,r3,2
100081f8:	1000211e 	bne	r2,zero,10008280 <__lo0bits+0xa0>
100081fc:	1806d0ba 	srli	r3,r3,2
10008200:	00800084 	movi	r2,2
10008204:	20c00015 	stw	r3,0(r4)
10008208:	f800283a 	ret
1000820c:	18bfffcc 	andi	r2,r3,65535
10008210:	10001326 	beq	r2,zero,10008260 <__lo0bits+0x80>
10008214:	0005883a 	mov	r2,zero
10008218:	19403fcc 	andi	r5,r3,255
1000821c:	2800021e 	bne	r5,zero,10008228 <__lo0bits+0x48>
10008220:	1806d23a 	srli	r3,r3,8
10008224:	10800204 	addi	r2,r2,8
10008228:	194003cc 	andi	r5,r3,15
1000822c:	2800021e 	bne	r5,zero,10008238 <__lo0bits+0x58>
10008230:	1806d13a 	srli	r3,r3,4
10008234:	10800104 	addi	r2,r2,4
10008238:	194000cc 	andi	r5,r3,3
1000823c:	2800021e 	bne	r5,zero,10008248 <__lo0bits+0x68>
10008240:	1806d0ba 	srli	r3,r3,2
10008244:	10800084 	addi	r2,r2,2
10008248:	1940004c 	andi	r5,r3,1
1000824c:	2800081e 	bne	r5,zero,10008270 <__lo0bits+0x90>
10008250:	1806d07a 	srli	r3,r3,1
10008254:	1800051e 	bne	r3,zero,1000826c <__lo0bits+0x8c>
10008258:	00800804 	movi	r2,32
1000825c:	f800283a 	ret
10008260:	1806d43a 	srli	r3,r3,16
10008264:	00800404 	movi	r2,16
10008268:	003feb06 	br	10008218 <__alt_data_end+0xf8008218>
1000826c:	10800044 	addi	r2,r2,1
10008270:	20c00015 	stw	r3,0(r4)
10008274:	f800283a 	ret
10008278:	0005883a 	mov	r2,zero
1000827c:	f800283a 	ret
10008280:	1806d07a 	srli	r3,r3,1
10008284:	00800044 	movi	r2,1
10008288:	20c00015 	stw	r3,0(r4)
1000828c:	f800283a 	ret

10008290 <__i2b>:
10008290:	defffd04 	addi	sp,sp,-12
10008294:	dc000015 	stw	r16,0(sp)
10008298:	04000044 	movi	r16,1
1000829c:	dc400115 	stw	r17,4(sp)
100082a0:	2823883a 	mov	r17,r5
100082a4:	800b883a 	mov	r5,r16
100082a8:	dfc00215 	stw	ra,8(sp)
100082ac:	0007e680 	call	10007e68 <_Balloc>
100082b0:	14400515 	stw	r17,20(r2)
100082b4:	14000415 	stw	r16,16(r2)
100082b8:	dfc00217 	ldw	ra,8(sp)
100082bc:	dc400117 	ldw	r17,4(sp)
100082c0:	dc000017 	ldw	r16,0(sp)
100082c4:	dec00304 	addi	sp,sp,12
100082c8:	f800283a 	ret

100082cc <__multiply>:
100082cc:	deffef04 	addi	sp,sp,-68
100082d0:	dc400815 	stw	r17,32(sp)
100082d4:	dc000715 	stw	r16,28(sp)
100082d8:	2c400417 	ldw	r17,16(r5)
100082dc:	34000417 	ldw	r16,16(r6)
100082e0:	dd800d15 	stw	r22,52(sp)
100082e4:	dc800915 	stw	r18,36(sp)
100082e8:	dfc01015 	stw	ra,64(sp)
100082ec:	df000f15 	stw	fp,60(sp)
100082f0:	ddc00e15 	stw	r23,56(sp)
100082f4:	dd400c15 	stw	r21,48(sp)
100082f8:	dd000b15 	stw	r20,44(sp)
100082fc:	dcc00a15 	stw	r19,40(sp)
10008300:	2825883a 	mov	r18,r5
10008304:	302d883a 	mov	r22,r6
10008308:	8c009116 	blt	r17,r16,10008550 <__multiply+0x284>
1000830c:	8005883a 	mov	r2,r16
10008310:	8821883a 	mov	r16,r17
10008314:	1023883a 	mov	r17,r2
10008318:	90800217 	ldw	r2,8(r18)
1000831c:	8447883a 	add	r3,r16,r17
10008320:	d8c00215 	stw	r3,8(sp)
10008324:	91400117 	ldw	r5,4(r18)
10008328:	10c0010e 	bge	r2,r3,10008330 <__multiply+0x64>
1000832c:	29400044 	addi	r5,r5,1
10008330:	0007e680 	call	10007e68 <_Balloc>
10008334:	d8c00217 	ldw	r3,8(sp)
10008338:	d8800615 	stw	r2,24(sp)
1000833c:	18eb883a 	add	r21,r3,r3
10008340:	ad6b883a 	add	r21,r21,r21
10008344:	10c00504 	addi	r3,r2,20
10008348:	1d6b883a 	add	r21,r3,r21
1000834c:	d8c00115 	stw	r3,4(sp)
10008350:	dd400315 	stw	r21,12(sp)
10008354:	1805883a 	mov	r2,r3
10008358:	1d40042e 	bgeu	r3,r21,1000836c <__multiply+0xa0>
1000835c:	d8c00317 	ldw	r3,12(sp)
10008360:	10000015 	stw	zero,0(r2)
10008364:	10800104 	addi	r2,r2,4
10008368:	10fffc36 	bltu	r2,r3,1000835c <__alt_data_end+0xf800835c>
1000836c:	8c63883a 	add	r17,r17,r17
10008370:	b5800504 	addi	r22,r22,20
10008374:	8c63883a 	add	r17,r17,r17
10008378:	94800504 	addi	r18,r18,20
1000837c:	8421883a 	add	r16,r16,r16
10008380:	b463883a 	add	r17,r22,r17
10008384:	8421883a 	add	r16,r16,r16
10008388:	dd800015 	stw	r22,0(sp)
1000838c:	dc800415 	stw	r18,16(sp)
10008390:	dc400515 	stw	r17,20(sp)
10008394:	9429883a 	add	r20,r18,r16
10008398:	b4404f2e 	bgeu	r22,r17,100084d8 <__multiply+0x20c>
1000839c:	d8c00017 	ldw	r3,0(sp)
100083a0:	1c800017 	ldw	r18,0(r3)
100083a4:	943fffcc 	andi	r16,r18,65535
100083a8:	80001e26 	beq	r16,zero,10008424 <__multiply+0x158>
100083ac:	dd800117 	ldw	r22,4(sp)
100083b0:	dd400417 	ldw	r21,16(sp)
100083b4:	0025883a 	mov	r18,zero
100083b8:	adc00017 	ldw	r23,0(r21)
100083bc:	b4c00017 	ldw	r19,0(r22)
100083c0:	800b883a 	mov	r5,r16
100083c4:	b93fffcc 	andi	r4,r23,65535
100083c8:	000c3280 	call	1000c328 <__mulsi3>
100083cc:	9c7fffcc 	andi	r17,r19,65535
100083d0:	8885883a 	add	r2,r17,r2
100083d4:	b808d43a 	srli	r4,r23,16
100083d8:	14a3883a 	add	r17,r2,r18
100083dc:	9826d43a 	srli	r19,r19,16
100083e0:	8824d43a 	srli	r18,r17,16
100083e4:	800b883a 	mov	r5,r16
100083e8:	000c3280 	call	1000c328 <__mulsi3>
100083ec:	9885883a 	add	r2,r19,r2
100083f0:	14a7883a 	add	r19,r2,r18
100083f4:	88ffffcc 	andi	r3,r17,65535
100083f8:	9822943a 	slli	r17,r19,16
100083fc:	ad400104 	addi	r21,r21,4
10008400:	b005883a 	mov	r2,r22
10008404:	88c6b03a 	or	r3,r17,r3
10008408:	b0c00015 	stw	r3,0(r22)
1000840c:	9824d43a 	srli	r18,r19,16
10008410:	b5800104 	addi	r22,r22,4
10008414:	ad3fe836 	bltu	r21,r20,100083b8 <__alt_data_end+0xf80083b8>
10008418:	d8c00017 	ldw	r3,0(sp)
1000841c:	14800115 	stw	r18,4(r2)
10008420:	1c800017 	ldw	r18,0(r3)
10008424:	9024d43a 	srli	r18,r18,16
10008428:	90002226 	beq	r18,zero,100084b4 <__multiply+0x1e8>
1000842c:	d8c00117 	ldw	r3,4(sp)
10008430:	dd800417 	ldw	r22,16(sp)
10008434:	002f883a 	mov	r23,zero
10008438:	1f000017 	ldw	fp,0(r3)
1000843c:	1823883a 	mov	r17,r3
10008440:	182b883a 	mov	r21,r3
10008444:	e021883a 	mov	r16,fp
10008448:	00000106 	br	10008450 <__multiply+0x184>
1000844c:	982b883a 	mov	r21,r19
10008450:	b100000b 	ldhu	r4,0(r22)
10008454:	8020d43a 	srli	r16,r16,16
10008458:	900b883a 	mov	r5,r18
1000845c:	000c3280 	call	1000c328 <__mulsi3>
10008460:	1405883a 	add	r2,r2,r16
10008464:	15ef883a 	add	r23,r2,r23
10008468:	b804943a 	slli	r2,r23,16
1000846c:	e0ffffcc 	andi	r3,fp,65535
10008470:	8c400104 	addi	r17,r17,4
10008474:	10c6b03a 	or	r3,r2,r3
10008478:	88ffff15 	stw	r3,-4(r17)
1000847c:	b5800104 	addi	r22,r22,4
10008480:	b13fff17 	ldw	r4,-4(r22)
10008484:	acc00104 	addi	r19,r21,4
10008488:	900b883a 	mov	r5,r18
1000848c:	2008d43a 	srli	r4,r4,16
10008490:	9c000017 	ldw	r16,0(r19)
10008494:	000c3280 	call	1000c328 <__mulsi3>
10008498:	b806d43a 	srli	r3,r23,16
1000849c:	813fffcc 	andi	r4,r16,65535
100084a0:	1105883a 	add	r2,r2,r4
100084a4:	10f9883a 	add	fp,r2,r3
100084a8:	e02ed43a 	srli	r23,fp,16
100084ac:	b53fe736 	bltu	r22,r20,1000844c <__alt_data_end+0xf800844c>
100084b0:	af000115 	stw	fp,4(r21)
100084b4:	d8c00017 	ldw	r3,0(sp)
100084b8:	d9000517 	ldw	r4,20(sp)
100084bc:	18c00104 	addi	r3,r3,4
100084c0:	d8c00015 	stw	r3,0(sp)
100084c4:	d8c00117 	ldw	r3,4(sp)
100084c8:	18c00104 	addi	r3,r3,4
100084cc:	d8c00115 	stw	r3,4(sp)
100084d0:	d8c00017 	ldw	r3,0(sp)
100084d4:	193fb136 	bltu	r3,r4,1000839c <__alt_data_end+0xf800839c>
100084d8:	d8c00217 	ldw	r3,8(sp)
100084dc:	00c00c0e 	bge	zero,r3,10008510 <__multiply+0x244>
100084e0:	d8c00317 	ldw	r3,12(sp)
100084e4:	18bfff17 	ldw	r2,-4(r3)
100084e8:	1d7fff04 	addi	r21,r3,-4
100084ec:	10000326 	beq	r2,zero,100084fc <__multiply+0x230>
100084f0:	00000706 	br	10008510 <__multiply+0x244>
100084f4:	a8800017 	ldw	r2,0(r21)
100084f8:	1000051e 	bne	r2,zero,10008510 <__multiply+0x244>
100084fc:	d8c00217 	ldw	r3,8(sp)
10008500:	ad7fff04 	addi	r21,r21,-4
10008504:	18ffffc4 	addi	r3,r3,-1
10008508:	d8c00215 	stw	r3,8(sp)
1000850c:	183ff91e 	bne	r3,zero,100084f4 <__alt_data_end+0xf80084f4>
10008510:	d8c00617 	ldw	r3,24(sp)
10008514:	d9000217 	ldw	r4,8(sp)
10008518:	1805883a 	mov	r2,r3
1000851c:	19000415 	stw	r4,16(r3)
10008520:	dfc01017 	ldw	ra,64(sp)
10008524:	df000f17 	ldw	fp,60(sp)
10008528:	ddc00e17 	ldw	r23,56(sp)
1000852c:	dd800d17 	ldw	r22,52(sp)
10008530:	dd400c17 	ldw	r21,48(sp)
10008534:	dd000b17 	ldw	r20,44(sp)
10008538:	dcc00a17 	ldw	r19,40(sp)
1000853c:	dc800917 	ldw	r18,36(sp)
10008540:	dc400817 	ldw	r17,32(sp)
10008544:	dc000717 	ldw	r16,28(sp)
10008548:	dec01104 	addi	sp,sp,68
1000854c:	f800283a 	ret
10008550:	3025883a 	mov	r18,r6
10008554:	282d883a 	mov	r22,r5
10008558:	003f6f06 	br	10008318 <__alt_data_end+0xf8008318>

1000855c <__pow5mult>:
1000855c:	defffa04 	addi	sp,sp,-24
10008560:	dcc00315 	stw	r19,12(sp)
10008564:	dc800215 	stw	r18,8(sp)
10008568:	dc000015 	stw	r16,0(sp)
1000856c:	dfc00515 	stw	ra,20(sp)
10008570:	dd000415 	stw	r20,16(sp)
10008574:	dc400115 	stw	r17,4(sp)
10008578:	308000cc 	andi	r2,r6,3
1000857c:	3021883a 	mov	r16,r6
10008580:	2027883a 	mov	r19,r4
10008584:	2825883a 	mov	r18,r5
10008588:	10002e1e 	bne	r2,zero,10008644 <__pow5mult+0xe8>
1000858c:	8021d0ba 	srai	r16,r16,2
10008590:	80001a26 	beq	r16,zero,100085fc <__pow5mult+0xa0>
10008594:	9c401217 	ldw	r17,72(r19)
10008598:	8800061e 	bne	r17,zero,100085b4 <__pow5mult+0x58>
1000859c:	00003406 	br	10008670 <__pow5mult+0x114>
100085a0:	8021d07a 	srai	r16,r16,1
100085a4:	80001526 	beq	r16,zero,100085fc <__pow5mult+0xa0>
100085a8:	88800017 	ldw	r2,0(r17)
100085ac:	10001c26 	beq	r2,zero,10008620 <__pow5mult+0xc4>
100085b0:	1023883a 	mov	r17,r2
100085b4:	80c0004c 	andi	r3,r16,1
100085b8:	183ff926 	beq	r3,zero,100085a0 <__alt_data_end+0xf80085a0>
100085bc:	900b883a 	mov	r5,r18
100085c0:	880d883a 	mov	r6,r17
100085c4:	9809883a 	mov	r4,r19
100085c8:	00082cc0 	call	100082cc <__multiply>
100085cc:	90001b26 	beq	r18,zero,1000863c <__pow5mult+0xe0>
100085d0:	91c00117 	ldw	r7,4(r18)
100085d4:	98c01317 	ldw	r3,76(r19)
100085d8:	8021d07a 	srai	r16,r16,1
100085dc:	39cf883a 	add	r7,r7,r7
100085e0:	39cf883a 	add	r7,r7,r7
100085e4:	19c7883a 	add	r3,r3,r7
100085e8:	19000017 	ldw	r4,0(r3)
100085ec:	91000015 	stw	r4,0(r18)
100085f0:	1c800015 	stw	r18,0(r3)
100085f4:	1025883a 	mov	r18,r2
100085f8:	803feb1e 	bne	r16,zero,100085a8 <__alt_data_end+0xf80085a8>
100085fc:	9005883a 	mov	r2,r18
10008600:	dfc00517 	ldw	ra,20(sp)
10008604:	dd000417 	ldw	r20,16(sp)
10008608:	dcc00317 	ldw	r19,12(sp)
1000860c:	dc800217 	ldw	r18,8(sp)
10008610:	dc400117 	ldw	r17,4(sp)
10008614:	dc000017 	ldw	r16,0(sp)
10008618:	dec00604 	addi	sp,sp,24
1000861c:	f800283a 	ret
10008620:	9809883a 	mov	r4,r19
10008624:	880b883a 	mov	r5,r17
10008628:	880d883a 	mov	r6,r17
1000862c:	00082cc0 	call	100082cc <__multiply>
10008630:	88800015 	stw	r2,0(r17)
10008634:	10000015 	stw	zero,0(r2)
10008638:	003fdd06 	br	100085b0 <__alt_data_end+0xf80085b0>
1000863c:	1025883a 	mov	r18,r2
10008640:	003fd706 	br	100085a0 <__alt_data_end+0xf80085a0>
10008644:	10bfffc4 	addi	r2,r2,-1
10008648:	1085883a 	add	r2,r2,r2
1000864c:	00c40074 	movhi	r3,4097
10008650:	18c6ee04 	addi	r3,r3,7096
10008654:	1085883a 	add	r2,r2,r2
10008658:	1885883a 	add	r2,r3,r2
1000865c:	11800017 	ldw	r6,0(r2)
10008660:	000f883a 	mov	r7,zero
10008664:	0007f380 	call	10007f38 <__multadd>
10008668:	1025883a 	mov	r18,r2
1000866c:	003fc706 	br	1000858c <__alt_data_end+0xf800858c>
10008670:	05000044 	movi	r20,1
10008674:	9809883a 	mov	r4,r19
10008678:	a00b883a 	mov	r5,r20
1000867c:	0007e680 	call	10007e68 <_Balloc>
10008680:	1023883a 	mov	r17,r2
10008684:	00809c44 	movi	r2,625
10008688:	88800515 	stw	r2,20(r17)
1000868c:	8d000415 	stw	r20,16(r17)
10008690:	9c401215 	stw	r17,72(r19)
10008694:	88000015 	stw	zero,0(r17)
10008698:	003fc606 	br	100085b4 <__alt_data_end+0xf80085b4>

1000869c <__lshift>:
1000869c:	defff904 	addi	sp,sp,-28
100086a0:	dd000415 	stw	r20,16(sp)
100086a4:	dcc00315 	stw	r19,12(sp)
100086a8:	3029d17a 	srai	r20,r6,5
100086ac:	2cc00417 	ldw	r19,16(r5)
100086b0:	28800217 	ldw	r2,8(r5)
100086b4:	dd400515 	stw	r21,20(sp)
100086b8:	a4e7883a 	add	r19,r20,r19
100086bc:	dc800215 	stw	r18,8(sp)
100086c0:	dc400115 	stw	r17,4(sp)
100086c4:	dc000015 	stw	r16,0(sp)
100086c8:	dfc00615 	stw	ra,24(sp)
100086cc:	9c000044 	addi	r16,r19,1
100086d0:	2823883a 	mov	r17,r5
100086d4:	302b883a 	mov	r21,r6
100086d8:	2025883a 	mov	r18,r4
100086dc:	29400117 	ldw	r5,4(r5)
100086e0:	1400030e 	bge	r2,r16,100086f0 <__lshift+0x54>
100086e4:	1085883a 	add	r2,r2,r2
100086e8:	29400044 	addi	r5,r5,1
100086ec:	143ffd16 	blt	r2,r16,100086e4 <__alt_data_end+0xf80086e4>
100086f0:	9009883a 	mov	r4,r18
100086f4:	0007e680 	call	10007e68 <_Balloc>
100086f8:	11c00504 	addi	r7,r2,20
100086fc:	0500090e 	bge	zero,r20,10008724 <__lshift+0x88>
10008700:	3811883a 	mov	r8,r7
10008704:	0007883a 	mov	r3,zero
10008708:	40000015 	stw	zero,0(r8)
1000870c:	18c00044 	addi	r3,r3,1
10008710:	42000104 	addi	r8,r8,4
10008714:	1d3ffc1e 	bne	r3,r20,10008708 <__alt_data_end+0xf8008708>
10008718:	18c7883a 	add	r3,r3,r3
1000871c:	18c7883a 	add	r3,r3,r3
10008720:	38cf883a 	add	r7,r7,r3
10008724:	89000417 	ldw	r4,16(r17)
10008728:	88c00504 	addi	r3,r17,20
1000872c:	a98007cc 	andi	r6,r21,31
10008730:	2109883a 	add	r4,r4,r4
10008734:	2109883a 	add	r4,r4,r4
10008738:	1909883a 	add	r4,r3,r4
1000873c:	30002326 	beq	r6,zero,100087cc <__lshift+0x130>
10008740:	01400804 	movi	r5,32
10008744:	298bc83a 	sub	r5,r5,r6
10008748:	0013883a 	mov	r9,zero
1000874c:	1a000017 	ldw	r8,0(r3)
10008750:	3815883a 	mov	r10,r7
10008754:	39c00104 	addi	r7,r7,4
10008758:	4190983a 	sll	r8,r8,r6
1000875c:	18c00104 	addi	r3,r3,4
10008760:	4a10b03a 	or	r8,r9,r8
10008764:	3a3fff15 	stw	r8,-4(r7)
10008768:	1a3fff17 	ldw	r8,-4(r3)
1000876c:	4152d83a 	srl	r9,r8,r5
10008770:	193ff636 	bltu	r3,r4,1000874c <__alt_data_end+0xf800874c>
10008774:	52400115 	stw	r9,4(r10)
10008778:	48000126 	beq	r9,zero,10008780 <__lshift+0xe4>
1000877c:	9c000084 	addi	r16,r19,2
10008780:	89000117 	ldw	r4,4(r17)
10008784:	90c01317 	ldw	r3,76(r18)
10008788:	843fffc4 	addi	r16,r16,-1
1000878c:	2109883a 	add	r4,r4,r4
10008790:	2109883a 	add	r4,r4,r4
10008794:	1907883a 	add	r3,r3,r4
10008798:	19000017 	ldw	r4,0(r3)
1000879c:	14000415 	stw	r16,16(r2)
100087a0:	89000015 	stw	r4,0(r17)
100087a4:	1c400015 	stw	r17,0(r3)
100087a8:	dfc00617 	ldw	ra,24(sp)
100087ac:	dd400517 	ldw	r21,20(sp)
100087b0:	dd000417 	ldw	r20,16(sp)
100087b4:	dcc00317 	ldw	r19,12(sp)
100087b8:	dc800217 	ldw	r18,8(sp)
100087bc:	dc400117 	ldw	r17,4(sp)
100087c0:	dc000017 	ldw	r16,0(sp)
100087c4:	dec00704 	addi	sp,sp,28
100087c8:	f800283a 	ret
100087cc:	19400017 	ldw	r5,0(r3)
100087d0:	39c00104 	addi	r7,r7,4
100087d4:	18c00104 	addi	r3,r3,4
100087d8:	397fff15 	stw	r5,-4(r7)
100087dc:	193ffb36 	bltu	r3,r4,100087cc <__alt_data_end+0xf80087cc>
100087e0:	003fe706 	br	10008780 <__alt_data_end+0xf8008780>

100087e4 <__mcmp>:
100087e4:	20800417 	ldw	r2,16(r4)
100087e8:	28c00417 	ldw	r3,16(r5)
100087ec:	10c5c83a 	sub	r2,r2,r3
100087f0:	1000111e 	bne	r2,zero,10008838 <__mcmp+0x54>
100087f4:	18c7883a 	add	r3,r3,r3
100087f8:	18c7883a 	add	r3,r3,r3
100087fc:	21000504 	addi	r4,r4,20
10008800:	29400504 	addi	r5,r5,20
10008804:	20c5883a 	add	r2,r4,r3
10008808:	28cb883a 	add	r5,r5,r3
1000880c:	00000106 	br	10008814 <__mcmp+0x30>
10008810:	20800a2e 	bgeu	r4,r2,1000883c <__mcmp+0x58>
10008814:	10bfff04 	addi	r2,r2,-4
10008818:	297fff04 	addi	r5,r5,-4
1000881c:	11800017 	ldw	r6,0(r2)
10008820:	28c00017 	ldw	r3,0(r5)
10008824:	30fffa26 	beq	r6,r3,10008810 <__alt_data_end+0xf8008810>
10008828:	30c00236 	bltu	r6,r3,10008834 <__mcmp+0x50>
1000882c:	00800044 	movi	r2,1
10008830:	f800283a 	ret
10008834:	00bfffc4 	movi	r2,-1
10008838:	f800283a 	ret
1000883c:	0005883a 	mov	r2,zero
10008840:	f800283a 	ret

10008844 <__mdiff>:
10008844:	defffb04 	addi	sp,sp,-20
10008848:	dc000015 	stw	r16,0(sp)
1000884c:	2821883a 	mov	r16,r5
10008850:	dcc00315 	stw	r19,12(sp)
10008854:	300b883a 	mov	r5,r6
10008858:	2027883a 	mov	r19,r4
1000885c:	8009883a 	mov	r4,r16
10008860:	dc800215 	stw	r18,8(sp)
10008864:	dfc00415 	stw	ra,16(sp)
10008868:	dc400115 	stw	r17,4(sp)
1000886c:	3025883a 	mov	r18,r6
10008870:	00087e40 	call	100087e4 <__mcmp>
10008874:	10005226 	beq	r2,zero,100089c0 <__mdiff+0x17c>
10008878:	10004c16 	blt	r2,zero,100089ac <__mdiff+0x168>
1000887c:	0023883a 	mov	r17,zero
10008880:	81400117 	ldw	r5,4(r16)
10008884:	9809883a 	mov	r4,r19
10008888:	0007e680 	call	10007e68 <_Balloc>
1000888c:	83400417 	ldw	r13,16(r16)
10008890:	93800417 	ldw	r14,16(r18)
10008894:	81000504 	addi	r4,r16,20
10008898:	6b59883a 	add	r12,r13,r13
1000889c:	739d883a 	add	r14,r14,r14
100088a0:	6319883a 	add	r12,r12,r12
100088a4:	91800504 	addi	r6,r18,20
100088a8:	739d883a 	add	r14,r14,r14
100088ac:	14400315 	stw	r17,12(r2)
100088b0:	2319883a 	add	r12,r4,r12
100088b4:	339d883a 	add	r14,r6,r14
100088b8:	12400504 	addi	r9,r2,20
100088bc:	0007883a 	mov	r3,zero
100088c0:	22000017 	ldw	r8,0(r4)
100088c4:	32800017 	ldw	r10,0(r6)
100088c8:	4ac00104 	addi	r11,r9,4
100088cc:	41ffffcc 	andi	r7,r8,65535
100088d0:	38c7883a 	add	r3,r7,r3
100088d4:	51ffffcc 	andi	r7,r10,65535
100088d8:	19cfc83a 	sub	r7,r3,r7
100088dc:	4010d43a 	srli	r8,r8,16
100088e0:	5014d43a 	srli	r10,r10,16
100088e4:	3807d43a 	srai	r3,r7,16
100088e8:	39ffffcc 	andi	r7,r7,65535
100088ec:	4291c83a 	sub	r8,r8,r10
100088f0:	40c7883a 	add	r3,r8,r3
100088f4:	1810943a 	slli	r8,r3,16
100088f8:	31800104 	addi	r6,r6,4
100088fc:	21000104 	addi	r4,r4,4
10008900:	41ceb03a 	or	r7,r8,r7
10008904:	49c00015 	stw	r7,0(r9)
10008908:	1807d43a 	srai	r3,r3,16
1000890c:	580b883a 	mov	r5,r11
10008910:	5813883a 	mov	r9,r11
10008914:	33bfea36 	bltu	r6,r14,100088c0 <__alt_data_end+0xf80088c0>
10008918:	2011883a 	mov	r8,r4
1000891c:	2300152e 	bgeu	r4,r12,10008974 <__mdiff+0x130>
10008920:	21400017 	ldw	r5,0(r4)
10008924:	4a400104 	addi	r9,r9,4
10008928:	21000104 	addi	r4,r4,4
1000892c:	29ffffcc 	andi	r7,r5,65535
10008930:	38c7883a 	add	r3,r7,r3
10008934:	280ad43a 	srli	r5,r5,16
10008938:	180dd43a 	srai	r6,r3,16
1000893c:	19ffffcc 	andi	r7,r3,65535
10008940:	3147883a 	add	r3,r6,r5
10008944:	180a943a 	slli	r5,r3,16
10008948:	1807d43a 	srai	r3,r3,16
1000894c:	29ceb03a 	or	r7,r5,r7
10008950:	49ffff15 	stw	r7,-4(r9)
10008954:	233ff236 	bltu	r4,r12,10008920 <__alt_data_end+0xf8008920>
10008958:	0206303a 	nor	r3,zero,r8
1000895c:	1b07883a 	add	r3,r3,r12
10008960:	1806d0ba 	srli	r3,r3,2
10008964:	18c00044 	addi	r3,r3,1
10008968:	18c7883a 	add	r3,r3,r3
1000896c:	18c7883a 	add	r3,r3,r3
10008970:	58cb883a 	add	r5,r11,r3
10008974:	28ffff04 	addi	r3,r5,-4
10008978:	3800041e 	bne	r7,zero,1000898c <__mdiff+0x148>
1000897c:	18ffff04 	addi	r3,r3,-4
10008980:	19000017 	ldw	r4,0(r3)
10008984:	6b7fffc4 	addi	r13,r13,-1
10008988:	203ffc26 	beq	r4,zero,1000897c <__alt_data_end+0xf800897c>
1000898c:	13400415 	stw	r13,16(r2)
10008990:	dfc00417 	ldw	ra,16(sp)
10008994:	dcc00317 	ldw	r19,12(sp)
10008998:	dc800217 	ldw	r18,8(sp)
1000899c:	dc400117 	ldw	r17,4(sp)
100089a0:	dc000017 	ldw	r16,0(sp)
100089a4:	dec00504 	addi	sp,sp,20
100089a8:	f800283a 	ret
100089ac:	8005883a 	mov	r2,r16
100089b0:	04400044 	movi	r17,1
100089b4:	9021883a 	mov	r16,r18
100089b8:	1025883a 	mov	r18,r2
100089bc:	003fb006 	br	10008880 <__alt_data_end+0xf8008880>
100089c0:	9809883a 	mov	r4,r19
100089c4:	000b883a 	mov	r5,zero
100089c8:	0007e680 	call	10007e68 <_Balloc>
100089cc:	00c00044 	movi	r3,1
100089d0:	10c00415 	stw	r3,16(r2)
100089d4:	10000515 	stw	zero,20(r2)
100089d8:	003fed06 	br	10008990 <__alt_data_end+0xf8008990>

100089dc <__ulp>:
100089dc:	295ffc2c 	andhi	r5,r5,32752
100089e0:	00bf3034 	movhi	r2,64704
100089e4:	2887883a 	add	r3,r5,r2
100089e8:	00c0020e 	bge	zero,r3,100089f4 <__ulp+0x18>
100089ec:	0005883a 	mov	r2,zero
100089f0:	f800283a 	ret
100089f4:	00c7c83a 	sub	r3,zero,r3
100089f8:	180bd53a 	srai	r5,r3,20
100089fc:	008004c4 	movi	r2,19
10008a00:	11400a0e 	bge	r2,r5,10008a2c <__ulp+0x50>
10008a04:	00800c84 	movi	r2,50
10008a08:	0007883a 	mov	r3,zero
10008a0c:	11400516 	blt	r2,r5,10008a24 <__ulp+0x48>
10008a10:	00800cc4 	movi	r2,51
10008a14:	114bc83a 	sub	r5,r2,r5
10008a18:	00800044 	movi	r2,1
10008a1c:	1144983a 	sll	r2,r2,r5
10008a20:	f800283a 	ret
10008a24:	00800044 	movi	r2,1
10008a28:	f800283a 	ret
10008a2c:	00800234 	movhi	r2,8
10008a30:	1147d83a 	sra	r3,r2,r5
10008a34:	0005883a 	mov	r2,zero
10008a38:	f800283a 	ret

10008a3c <__b2d>:
10008a3c:	defffa04 	addi	sp,sp,-24
10008a40:	dc000015 	stw	r16,0(sp)
10008a44:	24000417 	ldw	r16,16(r4)
10008a48:	dc400115 	stw	r17,4(sp)
10008a4c:	24400504 	addi	r17,r4,20
10008a50:	8421883a 	add	r16,r16,r16
10008a54:	8421883a 	add	r16,r16,r16
10008a58:	8c21883a 	add	r16,r17,r16
10008a5c:	dc800215 	stw	r18,8(sp)
10008a60:	84bfff17 	ldw	r18,-4(r16)
10008a64:	dd000415 	stw	r20,16(sp)
10008a68:	dcc00315 	stw	r19,12(sp)
10008a6c:	9009883a 	mov	r4,r18
10008a70:	2829883a 	mov	r20,r5
10008a74:	dfc00515 	stw	ra,20(sp)
10008a78:	00081780 	call	10008178 <__hi0bits>
10008a7c:	00c00804 	movi	r3,32
10008a80:	1887c83a 	sub	r3,r3,r2
10008a84:	a0c00015 	stw	r3,0(r20)
10008a88:	00c00284 	movi	r3,10
10008a8c:	84ffff04 	addi	r19,r16,-4
10008a90:	18801216 	blt	r3,r2,10008adc <__b2d+0xa0>
10008a94:	014002c4 	movi	r5,11
10008a98:	2889c83a 	sub	r4,r5,r2
10008a9c:	9106d83a 	srl	r3,r18,r4
10008aa0:	18cffc34 	orhi	r3,r3,16368
10008aa4:	8cc0282e 	bgeu	r17,r19,10008b48 <__b2d+0x10c>
10008aa8:	817ffe17 	ldw	r5,-8(r16)
10008aac:	290ad83a 	srl	r5,r5,r4
10008ab0:	10800544 	addi	r2,r2,21
10008ab4:	9084983a 	sll	r2,r18,r2
10008ab8:	2884b03a 	or	r2,r5,r2
10008abc:	dfc00517 	ldw	ra,20(sp)
10008ac0:	dd000417 	ldw	r20,16(sp)
10008ac4:	dcc00317 	ldw	r19,12(sp)
10008ac8:	dc800217 	ldw	r18,8(sp)
10008acc:	dc400117 	ldw	r17,4(sp)
10008ad0:	dc000017 	ldw	r16,0(sp)
10008ad4:	dec00604 	addi	sp,sp,24
10008ad8:	f800283a 	ret
10008adc:	113ffd44 	addi	r4,r2,-11
10008ae0:	8cc00f2e 	bgeu	r17,r19,10008b20 <__b2d+0xe4>
10008ae4:	81bffe04 	addi	r6,r16,-8
10008ae8:	817ffe17 	ldw	r5,-8(r16)
10008aec:	20001326 	beq	r4,zero,10008b3c <__b2d+0x100>
10008af0:	00c00ac4 	movi	r3,43
10008af4:	1885c83a 	sub	r2,r3,r2
10008af8:	2886d83a 	srl	r3,r5,r2
10008afc:	9124983a 	sll	r18,r18,r4
10008b00:	90e4b03a 	or	r18,r18,r3
10008b04:	90cffc34 	orhi	r3,r18,16368
10008b08:	8980112e 	bgeu	r17,r6,10008b50 <__b2d+0x114>
10008b0c:	81bffd17 	ldw	r6,-12(r16)
10008b10:	308cd83a 	srl	r6,r6,r2
10008b14:	2904983a 	sll	r2,r5,r4
10008b18:	1184b03a 	or	r2,r2,r6
10008b1c:	003fe706 	br	10008abc <__alt_data_end+0xf8008abc>
10008b20:	20000526 	beq	r4,zero,10008b38 <__b2d+0xfc>
10008b24:	9124983a 	sll	r18,r18,r4
10008b28:	000d883a 	mov	r6,zero
10008b2c:	000b883a 	mov	r5,zero
10008b30:	90cffc34 	orhi	r3,r18,16368
10008b34:	003ff706 	br	10008b14 <__alt_data_end+0xf8008b14>
10008b38:	000b883a 	mov	r5,zero
10008b3c:	90cffc34 	orhi	r3,r18,16368
10008b40:	2805883a 	mov	r2,r5
10008b44:	003fdd06 	br	10008abc <__alt_data_end+0xf8008abc>
10008b48:	000b883a 	mov	r5,zero
10008b4c:	003fd806 	br	10008ab0 <__alt_data_end+0xf8008ab0>
10008b50:	000d883a 	mov	r6,zero
10008b54:	003fef06 	br	10008b14 <__alt_data_end+0xf8008b14>

10008b58 <__d2b>:
10008b58:	defff704 	addi	sp,sp,-36
10008b5c:	dc000215 	stw	r16,8(sp)
10008b60:	3021883a 	mov	r16,r6
10008b64:	dc400315 	stw	r17,12(sp)
10008b68:	8022907a 	slli	r17,r16,1
10008b6c:	dd400715 	stw	r21,28(sp)
10008b70:	282b883a 	mov	r21,r5
10008b74:	01400044 	movi	r5,1
10008b78:	dd000615 	stw	r20,24(sp)
10008b7c:	dcc00515 	stw	r19,20(sp)
10008b80:	dc800415 	stw	r18,16(sp)
10008b84:	dfc00815 	stw	ra,32(sp)
10008b88:	3829883a 	mov	r20,r7
10008b8c:	dc800917 	ldw	r18,36(sp)
10008b90:	8822d57a 	srli	r17,r17,21
10008b94:	0007e680 	call	10007e68 <_Balloc>
10008b98:	1027883a 	mov	r19,r2
10008b9c:	00800434 	movhi	r2,16
10008ba0:	10bfffc4 	addi	r2,r2,-1
10008ba4:	808c703a 	and	r6,r16,r2
10008ba8:	88000126 	beq	r17,zero,10008bb0 <__d2b+0x58>
10008bac:	31800434 	orhi	r6,r6,16
10008bb0:	d9800015 	stw	r6,0(sp)
10008bb4:	a8001f26 	beq	r21,zero,10008c34 <__d2b+0xdc>
10008bb8:	d9000104 	addi	r4,sp,4
10008bbc:	dd400115 	stw	r21,4(sp)
10008bc0:	00081e00 	call	100081e0 <__lo0bits>
10008bc4:	d8c00017 	ldw	r3,0(sp)
10008bc8:	1000291e 	bne	r2,zero,10008c70 <__d2b+0x118>
10008bcc:	d9000117 	ldw	r4,4(sp)
10008bd0:	99000515 	stw	r4,20(r19)
10008bd4:	1820c03a 	cmpne	r16,r3,zero
10008bd8:	84000044 	addi	r16,r16,1
10008bdc:	98c00615 	stw	r3,24(r19)
10008be0:	9c000415 	stw	r16,16(r19)
10008be4:	88001b1e 	bne	r17,zero,10008c54 <__d2b+0xfc>
10008be8:	800690ba 	slli	r3,r16,2
10008bec:	10bef384 	addi	r2,r2,-1074
10008bf0:	a0800015 	stw	r2,0(r20)
10008bf4:	98c5883a 	add	r2,r19,r3
10008bf8:	11000417 	ldw	r4,16(r2)
10008bfc:	8020917a 	slli	r16,r16,5
10008c00:	00081780 	call	10008178 <__hi0bits>
10008c04:	8085c83a 	sub	r2,r16,r2
10008c08:	90800015 	stw	r2,0(r18)
10008c0c:	9805883a 	mov	r2,r19
10008c10:	dfc00817 	ldw	ra,32(sp)
10008c14:	dd400717 	ldw	r21,28(sp)
10008c18:	dd000617 	ldw	r20,24(sp)
10008c1c:	dcc00517 	ldw	r19,20(sp)
10008c20:	dc800417 	ldw	r18,16(sp)
10008c24:	dc400317 	ldw	r17,12(sp)
10008c28:	dc000217 	ldw	r16,8(sp)
10008c2c:	dec00904 	addi	sp,sp,36
10008c30:	f800283a 	ret
10008c34:	d809883a 	mov	r4,sp
10008c38:	00081e00 	call	100081e0 <__lo0bits>
10008c3c:	d8c00017 	ldw	r3,0(sp)
10008c40:	04000044 	movi	r16,1
10008c44:	9c000415 	stw	r16,16(r19)
10008c48:	98c00515 	stw	r3,20(r19)
10008c4c:	10800804 	addi	r2,r2,32
10008c50:	883fe526 	beq	r17,zero,10008be8 <__alt_data_end+0xf8008be8>
10008c54:	8c7ef344 	addi	r17,r17,-1075
10008c58:	88a3883a 	add	r17,r17,r2
10008c5c:	00c00d44 	movi	r3,53
10008c60:	a4400015 	stw	r17,0(r20)
10008c64:	1885c83a 	sub	r2,r3,r2
10008c68:	90800015 	stw	r2,0(r18)
10008c6c:	003fe706 	br	10008c0c <__alt_data_end+0xf8008c0c>
10008c70:	01000804 	movi	r4,32
10008c74:	2089c83a 	sub	r4,r4,r2
10008c78:	1908983a 	sll	r4,r3,r4
10008c7c:	d9400117 	ldw	r5,4(sp)
10008c80:	1886d83a 	srl	r3,r3,r2
10008c84:	2148b03a 	or	r4,r4,r5
10008c88:	99000515 	stw	r4,20(r19)
10008c8c:	d8c00015 	stw	r3,0(sp)
10008c90:	003fd006 	br	10008bd4 <__alt_data_end+0xf8008bd4>

10008c94 <__ratio>:
10008c94:	defff904 	addi	sp,sp,-28
10008c98:	dc400315 	stw	r17,12(sp)
10008c9c:	2823883a 	mov	r17,r5
10008ca0:	d9400104 	addi	r5,sp,4
10008ca4:	dfc00615 	stw	ra,24(sp)
10008ca8:	dcc00515 	stw	r19,20(sp)
10008cac:	dc800415 	stw	r18,16(sp)
10008cb0:	2027883a 	mov	r19,r4
10008cb4:	dc000215 	stw	r16,8(sp)
10008cb8:	0008a3c0 	call	10008a3c <__b2d>
10008cbc:	8809883a 	mov	r4,r17
10008cc0:	d80b883a 	mov	r5,sp
10008cc4:	1025883a 	mov	r18,r2
10008cc8:	1821883a 	mov	r16,r3
10008ccc:	0008a3c0 	call	10008a3c <__b2d>
10008cd0:	8a400417 	ldw	r9,16(r17)
10008cd4:	9a000417 	ldw	r8,16(r19)
10008cd8:	100d883a 	mov	r6,r2
10008cdc:	d8800017 	ldw	r2,0(sp)
10008ce0:	4251c83a 	sub	r8,r8,r9
10008ce4:	4012917a 	slli	r9,r8,5
10008ce8:	da000117 	ldw	r8,4(sp)
10008cec:	4091c83a 	sub	r8,r8,r2
10008cf0:	4251883a 	add	r8,r8,r9
10008cf4:	02000d0e 	bge	zero,r8,10008d2c <__ratio+0x98>
10008cf8:	4010953a 	slli	r8,r8,20
10008cfc:	4421883a 	add	r16,r8,r16
10008d00:	9009883a 	mov	r4,r18
10008d04:	800b883a 	mov	r5,r16
10008d08:	180f883a 	mov	r7,r3
10008d0c:	000cbec0 	call	1000cbec <__divdf3>
10008d10:	dfc00617 	ldw	ra,24(sp)
10008d14:	dcc00517 	ldw	r19,20(sp)
10008d18:	dc800417 	ldw	r18,16(sp)
10008d1c:	dc400317 	ldw	r17,12(sp)
10008d20:	dc000217 	ldw	r16,8(sp)
10008d24:	dec00704 	addi	sp,sp,28
10008d28:	f800283a 	ret
10008d2c:	4010953a 	slli	r8,r8,20
10008d30:	1a07c83a 	sub	r3,r3,r8
10008d34:	003ff206 	br	10008d00 <__alt_data_end+0xf8008d00>

10008d38 <_mprec_log10>:
10008d38:	defffe04 	addi	sp,sp,-8
10008d3c:	dc000015 	stw	r16,0(sp)
10008d40:	dfc00115 	stw	ra,4(sp)
10008d44:	008005c4 	movi	r2,23
10008d48:	2021883a 	mov	r16,r4
10008d4c:	11000d0e 	bge	r2,r4,10008d84 <_mprec_log10+0x4c>
10008d50:	0005883a 	mov	r2,zero
10008d54:	00cffc34 	movhi	r3,16368
10008d58:	843fffc4 	addi	r16,r16,-1
10008d5c:	1009883a 	mov	r4,r2
10008d60:	180b883a 	mov	r5,r3
10008d64:	000d883a 	mov	r6,zero
10008d68:	01d00934 	movhi	r7,16420
10008d6c:	000d7b00 	call	1000d7b0 <__muldf3>
10008d70:	803ff91e 	bne	r16,zero,10008d58 <__alt_data_end+0xf8008d58>
10008d74:	dfc00117 	ldw	ra,4(sp)
10008d78:	dc000017 	ldw	r16,0(sp)
10008d7c:	dec00204 	addi	sp,sp,8
10008d80:	f800283a 	ret
10008d84:	202090fa 	slli	r16,r4,3
10008d88:	00840074 	movhi	r2,4097
10008d8c:	10870504 	addi	r2,r2,7188
10008d90:	1421883a 	add	r16,r2,r16
10008d94:	80800017 	ldw	r2,0(r16)
10008d98:	80c00117 	ldw	r3,4(r16)
10008d9c:	dfc00117 	ldw	ra,4(sp)
10008da0:	dc000017 	ldw	r16,0(sp)
10008da4:	dec00204 	addi	sp,sp,8
10008da8:	f800283a 	ret

10008dac <__copybits>:
10008dac:	297fffc4 	addi	r5,r5,-1
10008db0:	280fd17a 	srai	r7,r5,5
10008db4:	30c00417 	ldw	r3,16(r6)
10008db8:	30800504 	addi	r2,r6,20
10008dbc:	39c00044 	addi	r7,r7,1
10008dc0:	18c7883a 	add	r3,r3,r3
10008dc4:	39cf883a 	add	r7,r7,r7
10008dc8:	18c7883a 	add	r3,r3,r3
10008dcc:	39cf883a 	add	r7,r7,r7
10008dd0:	10c7883a 	add	r3,r2,r3
10008dd4:	21cf883a 	add	r7,r4,r7
10008dd8:	10c00d2e 	bgeu	r2,r3,10008e10 <__copybits+0x64>
10008ddc:	200b883a 	mov	r5,r4
10008de0:	12000017 	ldw	r8,0(r2)
10008de4:	29400104 	addi	r5,r5,4
10008de8:	10800104 	addi	r2,r2,4
10008dec:	2a3fff15 	stw	r8,-4(r5)
10008df0:	10fffb36 	bltu	r2,r3,10008de0 <__alt_data_end+0xf8008de0>
10008df4:	1985c83a 	sub	r2,r3,r6
10008df8:	10bffac4 	addi	r2,r2,-21
10008dfc:	1004d0ba 	srli	r2,r2,2
10008e00:	10800044 	addi	r2,r2,1
10008e04:	1085883a 	add	r2,r2,r2
10008e08:	1085883a 	add	r2,r2,r2
10008e0c:	2089883a 	add	r4,r4,r2
10008e10:	21c0032e 	bgeu	r4,r7,10008e20 <__copybits+0x74>
10008e14:	20000015 	stw	zero,0(r4)
10008e18:	21000104 	addi	r4,r4,4
10008e1c:	21fffd36 	bltu	r4,r7,10008e14 <__alt_data_end+0xf8008e14>
10008e20:	f800283a 	ret

10008e24 <__any_on>:
10008e24:	20c00417 	ldw	r3,16(r4)
10008e28:	2805d17a 	srai	r2,r5,5
10008e2c:	21000504 	addi	r4,r4,20
10008e30:	18800d0e 	bge	r3,r2,10008e68 <__any_on+0x44>
10008e34:	18c7883a 	add	r3,r3,r3
10008e38:	18c7883a 	add	r3,r3,r3
10008e3c:	20c7883a 	add	r3,r4,r3
10008e40:	20c0192e 	bgeu	r4,r3,10008ea8 <__any_on+0x84>
10008e44:	18bfff17 	ldw	r2,-4(r3)
10008e48:	18ffff04 	addi	r3,r3,-4
10008e4c:	1000041e 	bne	r2,zero,10008e60 <__any_on+0x3c>
10008e50:	20c0142e 	bgeu	r4,r3,10008ea4 <__any_on+0x80>
10008e54:	18ffff04 	addi	r3,r3,-4
10008e58:	19400017 	ldw	r5,0(r3)
10008e5c:	283ffc26 	beq	r5,zero,10008e50 <__alt_data_end+0xf8008e50>
10008e60:	00800044 	movi	r2,1
10008e64:	f800283a 	ret
10008e68:	10c00a0e 	bge	r2,r3,10008e94 <__any_on+0x70>
10008e6c:	1085883a 	add	r2,r2,r2
10008e70:	1085883a 	add	r2,r2,r2
10008e74:	294007cc 	andi	r5,r5,31
10008e78:	2087883a 	add	r3,r4,r2
10008e7c:	283ff026 	beq	r5,zero,10008e40 <__alt_data_end+0xf8008e40>
10008e80:	19800017 	ldw	r6,0(r3)
10008e84:	3144d83a 	srl	r2,r6,r5
10008e88:	114a983a 	sll	r5,r2,r5
10008e8c:	29bff41e 	bne	r5,r6,10008e60 <__alt_data_end+0xf8008e60>
10008e90:	003feb06 	br	10008e40 <__alt_data_end+0xf8008e40>
10008e94:	1085883a 	add	r2,r2,r2
10008e98:	1085883a 	add	r2,r2,r2
10008e9c:	2087883a 	add	r3,r4,r2
10008ea0:	003fe706 	br	10008e40 <__alt_data_end+0xf8008e40>
10008ea4:	f800283a 	ret
10008ea8:	0005883a 	mov	r2,zero
10008eac:	f800283a 	ret

10008eb0 <_realloc_r>:
10008eb0:	defff604 	addi	sp,sp,-40
10008eb4:	dcc00315 	stw	r19,12(sp)
10008eb8:	dc400115 	stw	r17,4(sp)
10008ebc:	dfc00915 	stw	ra,36(sp)
10008ec0:	df000815 	stw	fp,32(sp)
10008ec4:	ddc00715 	stw	r23,28(sp)
10008ec8:	dd800615 	stw	r22,24(sp)
10008ecc:	dd400515 	stw	r21,20(sp)
10008ed0:	dd000415 	stw	r20,16(sp)
10008ed4:	dc800215 	stw	r18,8(sp)
10008ed8:	dc000015 	stw	r16,0(sp)
10008edc:	2827883a 	mov	r19,r5
10008ee0:	3023883a 	mov	r17,r6
10008ee4:	2800bf26 	beq	r5,zero,100091e4 <_realloc_r+0x334>
10008ee8:	2025883a 	mov	r18,r4
10008eec:	000f12c0 	call	1000f12c <__malloc_lock>
10008ef0:	98ffff17 	ldw	r3,-4(r19)
10008ef4:	01bfff04 	movi	r6,-4
10008ef8:	890002c4 	addi	r4,r17,11
10008efc:	01c00584 	movi	r7,22
10008f00:	9d7ffe04 	addi	r21,r19,-8
10008f04:	19a0703a 	and	r16,r3,r6
10008f08:	39003f2e 	bgeu	r7,r4,10009008 <_realloc_r+0x158>
10008f0c:	053ffe04 	movi	r20,-8
10008f10:	2528703a 	and	r20,r4,r20
10008f14:	a00f883a 	mov	r7,r20
10008f18:	a0008216 	blt	r20,zero,10009124 <_realloc_r+0x274>
10008f1c:	a4408136 	bltu	r20,r17,10009124 <_realloc_r+0x274>
10008f20:	81c03c0e 	bge	r16,r7,10009014 <_realloc_r+0x164>
10008f24:	07040074 	movhi	fp,4097
10008f28:	e708b304 	addi	fp,fp,8908
10008f2c:	e1000217 	ldw	r4,8(fp)
10008f30:	ac05883a 	add	r2,r21,r16
10008f34:	2080bf26 	beq	r4,r2,10009234 <_realloc_r+0x384>
10008f38:	11000117 	ldw	r4,4(r2)
10008f3c:	023fff84 	movi	r8,-2
10008f40:	2210703a 	and	r8,r4,r8
10008f44:	1211883a 	add	r8,r2,r8
10008f48:	41400117 	ldw	r5,4(r8)
10008f4c:	2940004c 	andi	r5,r5,1
10008f50:	28004a1e 	bne	r5,zero,1000907c <_realloc_r+0x1cc>
10008f54:	017fff04 	movi	r5,-4
10008f58:	2148703a 	and	r4,r4,r5
10008f5c:	2409883a 	add	r4,r4,r16
10008f60:	21c0ad0e 	bge	r4,r7,10009218 <_realloc_r+0x368>
10008f64:	18c0004c 	andi	r3,r3,1
10008f68:	18007f1e 	bne	r3,zero,10009168 <_realloc_r+0x2b8>
10008f6c:	9dfffe17 	ldw	r23,-8(r19)
10008f70:	adefc83a 	sub	r23,r21,r23
10008f74:	bd800117 	ldw	r22,4(r23)
10008f78:	b14a703a 	and	r5,r22,r5
10008f7c:	216d883a 	add	r22,r4,r5
10008f80:	b1c04516 	blt	r22,r7,10009098 <_realloc_r+0x1e8>
10008f84:	10c00317 	ldw	r3,12(r2)
10008f88:	10800217 	ldw	r2,8(r2)
10008f8c:	81bfff04 	addi	r6,r16,-4
10008f90:	bc400204 	addi	r17,r23,8
10008f94:	10c00315 	stw	r3,12(r2)
10008f98:	18800215 	stw	r2,8(r3)
10008f9c:	b9400217 	ldw	r5,8(r23)
10008fa0:	b8c00317 	ldw	r3,12(r23)
10008fa4:	00800904 	movi	r2,36
10008fa8:	28c00315 	stw	r3,12(r5)
10008fac:	19400215 	stw	r5,8(r3)
10008fb0:	1180ef36 	bltu	r2,r6,10009370 <_realloc_r+0x4c0>
10008fb4:	008004c4 	movi	r2,19
10008fb8:	1180da2e 	bgeu	r2,r6,10009324 <_realloc_r+0x474>
10008fbc:	98800017 	ldw	r2,0(r19)
10008fc0:	b8800215 	stw	r2,8(r23)
10008fc4:	98800117 	ldw	r2,4(r19)
10008fc8:	b8800315 	stw	r2,12(r23)
10008fcc:	008006c4 	movi	r2,27
10008fd0:	1180fc2e 	bgeu	r2,r6,100093c4 <_realloc_r+0x514>
10008fd4:	98800217 	ldw	r2,8(r19)
10008fd8:	b8800415 	stw	r2,16(r23)
10008fdc:	98800317 	ldw	r2,12(r19)
10008fe0:	b8800515 	stw	r2,20(r23)
10008fe4:	00800904 	movi	r2,36
10008fe8:	3080421e 	bne	r6,r2,100090f4 <_realloc_r+0x244>
10008fec:	98800417 	ldw	r2,16(r19)
10008ff0:	9cc00604 	addi	r19,r19,24
10008ff4:	b8c00804 	addi	r3,r23,32
10008ff8:	b8800615 	stw	r2,24(r23)
10008ffc:	98bfff17 	ldw	r2,-4(r19)
10009000:	b8800715 	stw	r2,28(r23)
10009004:	00003d06 	br	100090fc <_realloc_r+0x24c>
10009008:	01c00404 	movi	r7,16
1000900c:	3829883a 	mov	r20,r7
10009010:	003fc206 	br	10008f1c <__alt_data_end+0xf8008f1c>
10009014:	9823883a 	mov	r17,r19
10009018:	850fc83a 	sub	r7,r16,r20
1000901c:	008003c4 	movi	r2,15
10009020:	18c0004c 	andi	r3,r3,1
10009024:	11c04336 	bltu	r2,r7,10009134 <_realloc_r+0x284>
10009028:	1c06b03a 	or	r3,r3,r16
1000902c:	a8c00115 	stw	r3,4(r21)
10009030:	ac21883a 	add	r16,r21,r16
10009034:	80c00117 	ldw	r3,4(r16)
10009038:	18c00054 	ori	r3,r3,1
1000903c:	80c00115 	stw	r3,4(r16)
10009040:	9009883a 	mov	r4,r18
10009044:	000f14c0 	call	1000f14c <__malloc_unlock>
10009048:	8805883a 	mov	r2,r17
1000904c:	dfc00917 	ldw	ra,36(sp)
10009050:	df000817 	ldw	fp,32(sp)
10009054:	ddc00717 	ldw	r23,28(sp)
10009058:	dd800617 	ldw	r22,24(sp)
1000905c:	dd400517 	ldw	r21,20(sp)
10009060:	dd000417 	ldw	r20,16(sp)
10009064:	dcc00317 	ldw	r19,12(sp)
10009068:	dc800217 	ldw	r18,8(sp)
1000906c:	dc400117 	ldw	r17,4(sp)
10009070:	dc000017 	ldw	r16,0(sp)
10009074:	dec00a04 	addi	sp,sp,40
10009078:	f800283a 	ret
1000907c:	18c0004c 	andi	r3,r3,1
10009080:	1800391e 	bne	r3,zero,10009168 <_realloc_r+0x2b8>
10009084:	9dfffe17 	ldw	r23,-8(r19)
10009088:	00bfff04 	movi	r2,-4
1000908c:	adefc83a 	sub	r23,r21,r23
10009090:	b9400117 	ldw	r5,4(r23)
10009094:	288a703a 	and	r5,r5,r2
10009098:	2c2d883a 	add	r22,r5,r16
1000909c:	b1c03216 	blt	r22,r7,10009168 <_realloc_r+0x2b8>
100090a0:	b8800317 	ldw	r2,12(r23)
100090a4:	b8c00217 	ldw	r3,8(r23)
100090a8:	81bfff04 	addi	r6,r16,-4
100090ac:	01000904 	movi	r4,36
100090b0:	18800315 	stw	r2,12(r3)
100090b4:	10c00215 	stw	r3,8(r2)
100090b8:	bc400204 	addi	r17,r23,8
100090bc:	2180ac36 	bltu	r4,r6,10009370 <_realloc_r+0x4c0>
100090c0:	008004c4 	movi	r2,19
100090c4:	1180972e 	bgeu	r2,r6,10009324 <_realloc_r+0x474>
100090c8:	98800017 	ldw	r2,0(r19)
100090cc:	b8800215 	stw	r2,8(r23)
100090d0:	98800117 	ldw	r2,4(r19)
100090d4:	b8800315 	stw	r2,12(r23)
100090d8:	008006c4 	movi	r2,27
100090dc:	1180b92e 	bgeu	r2,r6,100093c4 <_realloc_r+0x514>
100090e0:	98800217 	ldw	r2,8(r19)
100090e4:	b8800415 	stw	r2,16(r23)
100090e8:	98800317 	ldw	r2,12(r19)
100090ec:	b8800515 	stw	r2,20(r23)
100090f0:	313fbe26 	beq	r6,r4,10008fec <__alt_data_end+0xf8008fec>
100090f4:	b8c00604 	addi	r3,r23,24
100090f8:	9cc00404 	addi	r19,r19,16
100090fc:	98800017 	ldw	r2,0(r19)
10009100:	b021883a 	mov	r16,r22
10009104:	b82b883a 	mov	r21,r23
10009108:	18800015 	stw	r2,0(r3)
1000910c:	98800117 	ldw	r2,4(r19)
10009110:	18800115 	stw	r2,4(r3)
10009114:	98800217 	ldw	r2,8(r19)
10009118:	18800215 	stw	r2,8(r3)
1000911c:	b8c00117 	ldw	r3,4(r23)
10009120:	003fbd06 	br	10009018 <__alt_data_end+0xf8009018>
10009124:	00800304 	movi	r2,12
10009128:	90800015 	stw	r2,0(r18)
1000912c:	0005883a 	mov	r2,zero
10009130:	003fc606 	br	1000904c <__alt_data_end+0xf800904c>
10009134:	1d06b03a 	or	r3,r3,r20
10009138:	ad0b883a 	add	r5,r21,r20
1000913c:	a8c00115 	stw	r3,4(r21)
10009140:	38800054 	ori	r2,r7,1
10009144:	28800115 	stw	r2,4(r5)
10009148:	29cf883a 	add	r7,r5,r7
1000914c:	38800117 	ldw	r2,4(r7)
10009150:	9009883a 	mov	r4,r18
10009154:	29400204 	addi	r5,r5,8
10009158:	10800054 	ori	r2,r2,1
1000915c:	38800115 	stw	r2,4(r7)
10009160:	00066840 	call	10006684 <_free_r>
10009164:	003fb606 	br	10009040 <__alt_data_end+0xf8009040>
10009168:	880b883a 	mov	r5,r17
1000916c:	9009883a 	mov	r4,r18
10009170:	00072200 	call	10007220 <_malloc_r>
10009174:	1023883a 	mov	r17,r2
10009178:	1000aa26 	beq	r2,zero,10009424 <_realloc_r+0x574>
1000917c:	98ffff17 	ldw	r3,-4(r19)
10009180:	113ffe04 	addi	r4,r2,-8
10009184:	00bfff84 	movi	r2,-2
10009188:	1884703a 	and	r2,r3,r2
1000918c:	a885883a 	add	r2,r21,r2
10009190:	20808626 	beq	r4,r2,100093ac <_realloc_r+0x4fc>
10009194:	81bfff04 	addi	r6,r16,-4
10009198:	00800904 	movi	r2,36
1000919c:	11807036 	bltu	r2,r6,10009360 <_realloc_r+0x4b0>
100091a0:	00c004c4 	movi	r3,19
100091a4:	19805636 	bltu	r3,r6,10009300 <_realloc_r+0x450>
100091a8:	8805883a 	mov	r2,r17
100091ac:	9807883a 	mov	r3,r19
100091b0:	19000017 	ldw	r4,0(r3)
100091b4:	11000015 	stw	r4,0(r2)
100091b8:	19000117 	ldw	r4,4(r3)
100091bc:	11000115 	stw	r4,4(r2)
100091c0:	18c00217 	ldw	r3,8(r3)
100091c4:	10c00215 	stw	r3,8(r2)
100091c8:	980b883a 	mov	r5,r19
100091cc:	9009883a 	mov	r4,r18
100091d0:	00066840 	call	10006684 <_free_r>
100091d4:	9009883a 	mov	r4,r18
100091d8:	000f14c0 	call	1000f14c <__malloc_unlock>
100091dc:	8805883a 	mov	r2,r17
100091e0:	003f9a06 	br	1000904c <__alt_data_end+0xf800904c>
100091e4:	300b883a 	mov	r5,r6
100091e8:	dfc00917 	ldw	ra,36(sp)
100091ec:	df000817 	ldw	fp,32(sp)
100091f0:	ddc00717 	ldw	r23,28(sp)
100091f4:	dd800617 	ldw	r22,24(sp)
100091f8:	dd400517 	ldw	r21,20(sp)
100091fc:	dd000417 	ldw	r20,16(sp)
10009200:	dcc00317 	ldw	r19,12(sp)
10009204:	dc800217 	ldw	r18,8(sp)
10009208:	dc400117 	ldw	r17,4(sp)
1000920c:	dc000017 	ldw	r16,0(sp)
10009210:	dec00a04 	addi	sp,sp,40
10009214:	00072201 	jmpi	10007220 <_malloc_r>
10009218:	11400317 	ldw	r5,12(r2)
1000921c:	10800217 	ldw	r2,8(r2)
10009220:	9823883a 	mov	r17,r19
10009224:	2021883a 	mov	r16,r4
10009228:	11400315 	stw	r5,12(r2)
1000922c:	28800215 	stw	r2,8(r5)
10009230:	003f7906 	br	10009018 <__alt_data_end+0xf8009018>
10009234:	21000117 	ldw	r4,4(r4)
10009238:	00bfff04 	movi	r2,-4
1000923c:	a1800404 	addi	r6,r20,16
10009240:	2088703a 	and	r4,r4,r2
10009244:	2409883a 	add	r4,r4,r16
10009248:	2180380e 	bge	r4,r6,1000932c <_realloc_r+0x47c>
1000924c:	18c0004c 	andi	r3,r3,1
10009250:	183fc51e 	bne	r3,zero,10009168 <__alt_data_end+0xf8009168>
10009254:	9dfffe17 	ldw	r23,-8(r19)
10009258:	adefc83a 	sub	r23,r21,r23
1000925c:	b9400117 	ldw	r5,4(r23)
10009260:	288a703a 	and	r5,r5,r2
10009264:	216d883a 	add	r22,r4,r5
10009268:	b1bf8b16 	blt	r22,r6,10009098 <__alt_data_end+0xf8009098>
1000926c:	b8800317 	ldw	r2,12(r23)
10009270:	b8c00217 	ldw	r3,8(r23)
10009274:	81bfff04 	addi	r6,r16,-4
10009278:	01000904 	movi	r4,36
1000927c:	18800315 	stw	r2,12(r3)
10009280:	10c00215 	stw	r3,8(r2)
10009284:	bc400204 	addi	r17,r23,8
10009288:	21805a36 	bltu	r4,r6,100093f4 <_realloc_r+0x544>
1000928c:	008004c4 	movi	r2,19
10009290:	1180562e 	bgeu	r2,r6,100093ec <_realloc_r+0x53c>
10009294:	98800017 	ldw	r2,0(r19)
10009298:	b8800215 	stw	r2,8(r23)
1000929c:	98800117 	ldw	r2,4(r19)
100092a0:	b8800315 	stw	r2,12(r23)
100092a4:	008006c4 	movi	r2,27
100092a8:	11805636 	bltu	r2,r6,10009404 <_realloc_r+0x554>
100092ac:	b8800404 	addi	r2,r23,16
100092b0:	9cc00204 	addi	r19,r19,8
100092b4:	98c00017 	ldw	r3,0(r19)
100092b8:	10c00015 	stw	r3,0(r2)
100092bc:	98c00117 	ldw	r3,4(r19)
100092c0:	10c00115 	stw	r3,4(r2)
100092c4:	98c00217 	ldw	r3,8(r19)
100092c8:	10c00215 	stw	r3,8(r2)
100092cc:	bd07883a 	add	r3,r23,r20
100092d0:	b505c83a 	sub	r2,r22,r20
100092d4:	e0c00215 	stw	r3,8(fp)
100092d8:	10800054 	ori	r2,r2,1
100092dc:	18800115 	stw	r2,4(r3)
100092e0:	b8800117 	ldw	r2,4(r23)
100092e4:	9009883a 	mov	r4,r18
100092e8:	1080004c 	andi	r2,r2,1
100092ec:	a0a8b03a 	or	r20,r20,r2
100092f0:	bd000115 	stw	r20,4(r23)
100092f4:	000f14c0 	call	1000f14c <__malloc_unlock>
100092f8:	8805883a 	mov	r2,r17
100092fc:	003f5306 	br	1000904c <__alt_data_end+0xf800904c>
10009300:	98c00017 	ldw	r3,0(r19)
10009304:	88c00015 	stw	r3,0(r17)
10009308:	98c00117 	ldw	r3,4(r19)
1000930c:	88c00115 	stw	r3,4(r17)
10009310:	00c006c4 	movi	r3,27
10009314:	19801d36 	bltu	r3,r6,1000938c <_realloc_r+0x4dc>
10009318:	88800204 	addi	r2,r17,8
1000931c:	98c00204 	addi	r3,r19,8
10009320:	003fa306 	br	100091b0 <__alt_data_end+0xf80091b0>
10009324:	8807883a 	mov	r3,r17
10009328:	003f7406 	br	100090fc <__alt_data_end+0xf80090fc>
1000932c:	ad2b883a 	add	r21,r21,r20
10009330:	2505c83a 	sub	r2,r4,r20
10009334:	e5400215 	stw	r21,8(fp)
10009338:	10800054 	ori	r2,r2,1
1000933c:	a8800115 	stw	r2,4(r21)
10009340:	98bfff17 	ldw	r2,-4(r19)
10009344:	9009883a 	mov	r4,r18
10009348:	1080004c 	andi	r2,r2,1
1000934c:	a0a8b03a 	or	r20,r20,r2
10009350:	9d3fff15 	stw	r20,-4(r19)
10009354:	000f14c0 	call	1000f14c <__malloc_unlock>
10009358:	9805883a 	mov	r2,r19
1000935c:	003f3b06 	br	1000904c <__alt_data_end+0xf800904c>
10009360:	8809883a 	mov	r4,r17
10009364:	980b883a 	mov	r5,r19
10009368:	0007be80 	call	10007be8 <memmove>
1000936c:	003f9606 	br	100091c8 <__alt_data_end+0xf80091c8>
10009370:	8809883a 	mov	r4,r17
10009374:	980b883a 	mov	r5,r19
10009378:	0007be80 	call	10007be8 <memmove>
1000937c:	b8c00117 	ldw	r3,4(r23)
10009380:	b021883a 	mov	r16,r22
10009384:	b82b883a 	mov	r21,r23
10009388:	003f2306 	br	10009018 <__alt_data_end+0xf8009018>
1000938c:	98c00217 	ldw	r3,8(r19)
10009390:	88c00215 	stw	r3,8(r17)
10009394:	98c00317 	ldw	r3,12(r19)
10009398:	88c00315 	stw	r3,12(r17)
1000939c:	30800c26 	beq	r6,r2,100093d0 <_realloc_r+0x520>
100093a0:	88800404 	addi	r2,r17,16
100093a4:	98c00404 	addi	r3,r19,16
100093a8:	003f8106 	br	100091b0 <__alt_data_end+0xf80091b0>
100093ac:	893fff17 	ldw	r4,-4(r17)
100093b0:	00bfff04 	movi	r2,-4
100093b4:	9823883a 	mov	r17,r19
100093b8:	2084703a 	and	r2,r4,r2
100093bc:	80a1883a 	add	r16,r16,r2
100093c0:	003f1506 	br	10009018 <__alt_data_end+0xf8009018>
100093c4:	b8c00404 	addi	r3,r23,16
100093c8:	9cc00204 	addi	r19,r19,8
100093cc:	003f4b06 	br	100090fc <__alt_data_end+0xf80090fc>
100093d0:	99000417 	ldw	r4,16(r19)
100093d4:	88800604 	addi	r2,r17,24
100093d8:	98c00604 	addi	r3,r19,24
100093dc:	89000415 	stw	r4,16(r17)
100093e0:	99000517 	ldw	r4,20(r19)
100093e4:	89000515 	stw	r4,20(r17)
100093e8:	003f7106 	br	100091b0 <__alt_data_end+0xf80091b0>
100093ec:	8805883a 	mov	r2,r17
100093f0:	003fb006 	br	100092b4 <__alt_data_end+0xf80092b4>
100093f4:	8809883a 	mov	r4,r17
100093f8:	980b883a 	mov	r5,r19
100093fc:	0007be80 	call	10007be8 <memmove>
10009400:	003fb206 	br	100092cc <__alt_data_end+0xf80092cc>
10009404:	98800217 	ldw	r2,8(r19)
10009408:	b8800415 	stw	r2,16(r23)
1000940c:	98800317 	ldw	r2,12(r19)
10009410:	b8800515 	stw	r2,20(r23)
10009414:	31000726 	beq	r6,r4,10009434 <_realloc_r+0x584>
10009418:	b8800604 	addi	r2,r23,24
1000941c:	9cc00404 	addi	r19,r19,16
10009420:	003fa406 	br	100092b4 <__alt_data_end+0xf80092b4>
10009424:	9009883a 	mov	r4,r18
10009428:	000f14c0 	call	1000f14c <__malloc_unlock>
1000942c:	0005883a 	mov	r2,zero
10009430:	003f0606 	br	1000904c <__alt_data_end+0xf800904c>
10009434:	98c00417 	ldw	r3,16(r19)
10009438:	9cc00604 	addi	r19,r19,24
1000943c:	b8800804 	addi	r2,r23,32
10009440:	b8c00615 	stw	r3,24(r23)
10009444:	98ffff17 	ldw	r3,-4(r19)
10009448:	b8c00715 	stw	r3,28(r23)
1000944c:	003f9906 	br	100092b4 <__alt_data_end+0xf80092b4>

10009450 <__fpclassifyd>:
10009450:	00a00034 	movhi	r2,32768
10009454:	10bfffc4 	addi	r2,r2,-1
10009458:	2884703a 	and	r2,r5,r2
1000945c:	10000726 	beq	r2,zero,1000947c <__fpclassifyd+0x2c>
10009460:	00fffc34 	movhi	r3,65520
10009464:	019ff834 	movhi	r6,32736
10009468:	28c7883a 	add	r3,r5,r3
1000946c:	31bfffc4 	addi	r6,r6,-1
10009470:	30c00536 	bltu	r6,r3,10009488 <__fpclassifyd+0x38>
10009474:	00800104 	movi	r2,4
10009478:	f800283a 	ret
1000947c:	2000021e 	bne	r4,zero,10009488 <__fpclassifyd+0x38>
10009480:	00800084 	movi	r2,2
10009484:	f800283a 	ret
10009488:	00dffc34 	movhi	r3,32752
1000948c:	019ff834 	movhi	r6,32736
10009490:	28cb883a 	add	r5,r5,r3
10009494:	31bfffc4 	addi	r6,r6,-1
10009498:	317ff62e 	bgeu	r6,r5,10009474 <__alt_data_end+0xf8009474>
1000949c:	01400434 	movhi	r5,16
100094a0:	297fffc4 	addi	r5,r5,-1
100094a4:	28800236 	bltu	r5,r2,100094b0 <__fpclassifyd+0x60>
100094a8:	008000c4 	movi	r2,3
100094ac:	f800283a 	ret
100094b0:	10c00226 	beq	r2,r3,100094bc <__fpclassifyd+0x6c>
100094b4:	0005883a 	mov	r2,zero
100094b8:	f800283a 	ret
100094bc:	2005003a 	cmpeq	r2,r4,zero
100094c0:	f800283a 	ret

100094c4 <_sbrk_r>:
100094c4:	defffd04 	addi	sp,sp,-12
100094c8:	dc000015 	stw	r16,0(sp)
100094cc:	04040074 	movhi	r16,4097
100094d0:	dc400115 	stw	r17,4(sp)
100094d4:	84150b04 	addi	r16,r16,21548
100094d8:	2023883a 	mov	r17,r4
100094dc:	2809883a 	mov	r4,r5
100094e0:	dfc00215 	stw	ra,8(sp)
100094e4:	80000015 	stw	zero,0(r16)
100094e8:	000f3400 	call	1000f340 <sbrk>
100094ec:	00ffffc4 	movi	r3,-1
100094f0:	10c00526 	beq	r2,r3,10009508 <_sbrk_r+0x44>
100094f4:	dfc00217 	ldw	ra,8(sp)
100094f8:	dc400117 	ldw	r17,4(sp)
100094fc:	dc000017 	ldw	r16,0(sp)
10009500:	dec00304 	addi	sp,sp,12
10009504:	f800283a 	ret
10009508:	80c00017 	ldw	r3,0(r16)
1000950c:	183ff926 	beq	r3,zero,100094f4 <__alt_data_end+0xf80094f4>
10009510:	88c00015 	stw	r3,0(r17)
10009514:	003ff706 	br	100094f4 <__alt_data_end+0xf80094f4>

10009518 <__sread>:
10009518:	defffe04 	addi	sp,sp,-8
1000951c:	dc000015 	stw	r16,0(sp)
10009520:	2821883a 	mov	r16,r5
10009524:	2940038f 	ldh	r5,14(r5)
10009528:	dfc00115 	stw	ra,4(sp)
1000952c:	000b1d40 	call	1000b1d4 <_read_r>
10009530:	10000716 	blt	r2,zero,10009550 <__sread+0x38>
10009534:	80c01417 	ldw	r3,80(r16)
10009538:	1887883a 	add	r3,r3,r2
1000953c:	80c01415 	stw	r3,80(r16)
10009540:	dfc00117 	ldw	ra,4(sp)
10009544:	dc000017 	ldw	r16,0(sp)
10009548:	dec00204 	addi	sp,sp,8
1000954c:	f800283a 	ret
10009550:	80c0030b 	ldhu	r3,12(r16)
10009554:	18fbffcc 	andi	r3,r3,61439
10009558:	80c0030d 	sth	r3,12(r16)
1000955c:	dfc00117 	ldw	ra,4(sp)
10009560:	dc000017 	ldw	r16,0(sp)
10009564:	dec00204 	addi	sp,sp,8
10009568:	f800283a 	ret

1000956c <__seofread>:
1000956c:	0005883a 	mov	r2,zero
10009570:	f800283a 	ret

10009574 <__swrite>:
10009574:	2880030b 	ldhu	r2,12(r5)
10009578:	defffb04 	addi	sp,sp,-20
1000957c:	dcc00315 	stw	r19,12(sp)
10009580:	dc800215 	stw	r18,8(sp)
10009584:	dc400115 	stw	r17,4(sp)
10009588:	dc000015 	stw	r16,0(sp)
1000958c:	dfc00415 	stw	ra,16(sp)
10009590:	10c0400c 	andi	r3,r2,256
10009594:	2821883a 	mov	r16,r5
10009598:	2027883a 	mov	r19,r4
1000959c:	3025883a 	mov	r18,r6
100095a0:	3823883a 	mov	r17,r7
100095a4:	18000526 	beq	r3,zero,100095bc <__swrite+0x48>
100095a8:	2940038f 	ldh	r5,14(r5)
100095ac:	000d883a 	mov	r6,zero
100095b0:	01c00084 	movi	r7,2
100095b4:	000b1780 	call	1000b178 <_lseek_r>
100095b8:	8080030b 	ldhu	r2,12(r16)
100095bc:	8140038f 	ldh	r5,14(r16)
100095c0:	10bbffcc 	andi	r2,r2,61439
100095c4:	9809883a 	mov	r4,r19
100095c8:	900d883a 	mov	r6,r18
100095cc:	880f883a 	mov	r7,r17
100095d0:	8080030d 	sth	r2,12(r16)
100095d4:	dfc00417 	ldw	ra,16(sp)
100095d8:	dcc00317 	ldw	r19,12(sp)
100095dc:	dc800217 	ldw	r18,8(sp)
100095e0:	dc400117 	ldw	r17,4(sp)
100095e4:	dc000017 	ldw	r16,0(sp)
100095e8:	dec00504 	addi	sp,sp,20
100095ec:	000ac541 	jmpi	1000ac54 <_write_r>

100095f0 <__sseek>:
100095f0:	defffe04 	addi	sp,sp,-8
100095f4:	dc000015 	stw	r16,0(sp)
100095f8:	2821883a 	mov	r16,r5
100095fc:	2940038f 	ldh	r5,14(r5)
10009600:	dfc00115 	stw	ra,4(sp)
10009604:	000b1780 	call	1000b178 <_lseek_r>
10009608:	00ffffc4 	movi	r3,-1
1000960c:	10c00826 	beq	r2,r3,10009630 <__sseek+0x40>
10009610:	80c0030b 	ldhu	r3,12(r16)
10009614:	80801415 	stw	r2,80(r16)
10009618:	18c40014 	ori	r3,r3,4096
1000961c:	80c0030d 	sth	r3,12(r16)
10009620:	dfc00117 	ldw	ra,4(sp)
10009624:	dc000017 	ldw	r16,0(sp)
10009628:	dec00204 	addi	sp,sp,8
1000962c:	f800283a 	ret
10009630:	80c0030b 	ldhu	r3,12(r16)
10009634:	18fbffcc 	andi	r3,r3,61439
10009638:	80c0030d 	sth	r3,12(r16)
1000963c:	dfc00117 	ldw	ra,4(sp)
10009640:	dc000017 	ldw	r16,0(sp)
10009644:	dec00204 	addi	sp,sp,8
10009648:	f800283a 	ret

1000964c <__sclose>:
1000964c:	2940038f 	ldh	r5,14(r5)
10009650:	000acb01 	jmpi	1000acb0 <_close_r>

10009654 <strcmp>:
10009654:	2144b03a 	or	r2,r4,r5
10009658:	108000cc 	andi	r2,r2,3
1000965c:	1000171e 	bne	r2,zero,100096bc <strcmp+0x68>
10009660:	20800017 	ldw	r2,0(r4)
10009664:	28c00017 	ldw	r3,0(r5)
10009668:	10c0141e 	bne	r2,r3,100096bc <strcmp+0x68>
1000966c:	027fbff4 	movhi	r9,65279
10009670:	4a7fbfc4 	addi	r9,r9,-257
10009674:	0086303a 	nor	r3,zero,r2
10009678:	02202074 	movhi	r8,32897
1000967c:	1245883a 	add	r2,r2,r9
10009680:	42202004 	addi	r8,r8,-32640
10009684:	10c4703a 	and	r2,r2,r3
10009688:	1204703a 	and	r2,r2,r8
1000968c:	10000226 	beq	r2,zero,10009698 <strcmp+0x44>
10009690:	00001706 	br	100096f0 <strcmp+0x9c>
10009694:	1000161e 	bne	r2,zero,100096f0 <strcmp+0x9c>
10009698:	21000104 	addi	r4,r4,4
1000969c:	20c00017 	ldw	r3,0(r4)
100096a0:	29400104 	addi	r5,r5,4
100096a4:	29800017 	ldw	r6,0(r5)
100096a8:	1a4f883a 	add	r7,r3,r9
100096ac:	00c4303a 	nor	r2,zero,r3
100096b0:	3884703a 	and	r2,r7,r2
100096b4:	1204703a 	and	r2,r2,r8
100096b8:	19bff626 	beq	r3,r6,10009694 <__alt_data_end+0xf8009694>
100096bc:	20800007 	ldb	r2,0(r4)
100096c0:	1000051e 	bne	r2,zero,100096d8 <strcmp+0x84>
100096c4:	00000606 	br	100096e0 <strcmp+0x8c>
100096c8:	21000044 	addi	r4,r4,1
100096cc:	20800007 	ldb	r2,0(r4)
100096d0:	29400044 	addi	r5,r5,1
100096d4:	10000226 	beq	r2,zero,100096e0 <strcmp+0x8c>
100096d8:	28c00007 	ldb	r3,0(r5)
100096dc:	10fffa26 	beq	r2,r3,100096c8 <__alt_data_end+0xf80096c8>
100096e0:	20800003 	ldbu	r2,0(r4)
100096e4:	28c00003 	ldbu	r3,0(r5)
100096e8:	10c5c83a 	sub	r2,r2,r3
100096ec:	f800283a 	ret
100096f0:	0005883a 	mov	r2,zero
100096f4:	f800283a 	ret

100096f8 <__sprint_r.part.0>:
100096f8:	28801917 	ldw	r2,100(r5)
100096fc:	defff604 	addi	sp,sp,-40
10009700:	dd400515 	stw	r21,20(sp)
10009704:	dcc00315 	stw	r19,12(sp)
10009708:	dfc00915 	stw	ra,36(sp)
1000970c:	df000815 	stw	fp,32(sp)
10009710:	ddc00715 	stw	r23,28(sp)
10009714:	dd800615 	stw	r22,24(sp)
10009718:	dd000415 	stw	r20,16(sp)
1000971c:	dc800215 	stw	r18,8(sp)
10009720:	dc400115 	stw	r17,4(sp)
10009724:	dc000015 	stw	r16,0(sp)
10009728:	1088000c 	andi	r2,r2,8192
1000972c:	2827883a 	mov	r19,r5
10009730:	302b883a 	mov	r21,r6
10009734:	10002d26 	beq	r2,zero,100097ec <__sprint_r.part.0+0xf4>
10009738:	30800217 	ldw	r2,8(r6)
1000973c:	35800017 	ldw	r22,0(r6)
10009740:	10002826 	beq	r2,zero,100097e4 <__sprint_r.part.0+0xec>
10009744:	2029883a 	mov	r20,r4
10009748:	b5c00104 	addi	r23,r22,4
1000974c:	04bfffc4 	movi	r18,-1
10009750:	bc400017 	ldw	r17,0(r23)
10009754:	b4000017 	ldw	r16,0(r22)
10009758:	0039883a 	mov	fp,zero
1000975c:	8822d0ba 	srli	r17,r17,2
10009760:	04400316 	blt	zero,r17,10009770 <__sprint_r.part.0+0x78>
10009764:	00001706 	br	100097c4 <__sprint_r.part.0+0xcc>
10009768:	84000104 	addi	r16,r16,4
1000976c:	8f001526 	beq	r17,fp,100097c4 <__sprint_r.part.0+0xcc>
10009770:	81400017 	ldw	r5,0(r16)
10009774:	a009883a 	mov	r4,r20
10009778:	980d883a 	mov	r6,r19
1000977c:	000aef00 	call	1000aef0 <_fputwc_r>
10009780:	e7000044 	addi	fp,fp,1
10009784:	14bff81e 	bne	r2,r18,10009768 <__alt_data_end+0xf8009768>
10009788:	9005883a 	mov	r2,r18
1000978c:	a8000215 	stw	zero,8(r21)
10009790:	a8000115 	stw	zero,4(r21)
10009794:	dfc00917 	ldw	ra,36(sp)
10009798:	df000817 	ldw	fp,32(sp)
1000979c:	ddc00717 	ldw	r23,28(sp)
100097a0:	dd800617 	ldw	r22,24(sp)
100097a4:	dd400517 	ldw	r21,20(sp)
100097a8:	dd000417 	ldw	r20,16(sp)
100097ac:	dcc00317 	ldw	r19,12(sp)
100097b0:	dc800217 	ldw	r18,8(sp)
100097b4:	dc400117 	ldw	r17,4(sp)
100097b8:	dc000017 	ldw	r16,0(sp)
100097bc:	dec00a04 	addi	sp,sp,40
100097c0:	f800283a 	ret
100097c4:	a8c00217 	ldw	r3,8(r21)
100097c8:	8c63883a 	add	r17,r17,r17
100097cc:	8c63883a 	add	r17,r17,r17
100097d0:	1c45c83a 	sub	r2,r3,r17
100097d4:	a8800215 	stw	r2,8(r21)
100097d8:	b5800204 	addi	r22,r22,8
100097dc:	bdc00204 	addi	r23,r23,8
100097e0:	103fdb1e 	bne	r2,zero,10009750 <__alt_data_end+0xf8009750>
100097e4:	0005883a 	mov	r2,zero
100097e8:	003fe806 	br	1000978c <__alt_data_end+0xf800978c>
100097ec:	00069740 	call	10006974 <__sfvwrite_r>
100097f0:	003fe606 	br	1000978c <__alt_data_end+0xf800978c>

100097f4 <__sprint_r>:
100097f4:	30c00217 	ldw	r3,8(r6)
100097f8:	18000126 	beq	r3,zero,10009800 <__sprint_r+0xc>
100097fc:	00096f81 	jmpi	100096f8 <__sprint_r.part.0>
10009800:	30000115 	stw	zero,4(r6)
10009804:	0005883a 	mov	r2,zero
10009808:	f800283a 	ret

1000980c <___vfiprintf_internal_r>:
1000980c:	defeca04 	addi	sp,sp,-1240
10009810:	dcc12f15 	stw	r19,1212(sp)
10009814:	dfc13515 	stw	ra,1236(sp)
10009818:	df013415 	stw	fp,1232(sp)
1000981c:	ddc13315 	stw	r23,1228(sp)
10009820:	dd813215 	stw	r22,1224(sp)
10009824:	dd413115 	stw	r21,1220(sp)
10009828:	dd013015 	stw	r20,1216(sp)
1000982c:	dc812e15 	stw	r18,1208(sp)
10009830:	dc412d15 	stw	r17,1204(sp)
10009834:	dc012c15 	stw	r16,1200(sp)
10009838:	d9012115 	stw	r4,1156(sp)
1000983c:	d9412015 	stw	r5,1152(sp)
10009840:	d9c12315 	stw	r7,1164(sp)
10009844:	3027883a 	mov	r19,r6
10009848:	20000226 	beq	r4,zero,10009854 <___vfiprintf_internal_r+0x48>
1000984c:	20800e17 	ldw	r2,56(r4)
10009850:	1000f726 	beq	r2,zero,10009c30 <___vfiprintf_internal_r+0x424>
10009854:	d8812017 	ldw	r2,1152(sp)
10009858:	10c0030b 	ldhu	r3,12(r2)
1000985c:	1908000c 	andi	r4,r3,8192
10009860:	1805883a 	mov	r2,r3
10009864:	2000081e 	bne	r4,zero,10009888 <___vfiprintf_internal_r+0x7c>
10009868:	d9412017 	ldw	r5,1152(sp)
1000986c:	18880014 	ori	r2,r3,8192
10009870:	00f7ffc4 	movi	r3,-8193
10009874:	29001917 	ldw	r4,100(r5)
10009878:	2880030d 	sth	r2,12(r5)
1000987c:	20c8703a 	and	r4,r4,r3
10009880:	29001915 	stw	r4,100(r5)
10009884:	1007883a 	mov	r3,r2
10009888:	1100020c 	andi	r4,r2,8
1000988c:	2000a726 	beq	r4,zero,10009b2c <___vfiprintf_internal_r+0x320>
10009890:	d9412017 	ldw	r5,1152(sp)
10009894:	29000417 	ldw	r4,16(r5)
10009898:	2000a426 	beq	r4,zero,10009b2c <___vfiprintf_internal_r+0x320>
1000989c:	1080068c 	andi	r2,r2,26
100098a0:	01000284 	movi	r4,10
100098a4:	1100ab26 	beq	r2,r4,10009b54 <___vfiprintf_internal_r+0x348>
100098a8:	d9010a04 	addi	r4,sp,1064
100098ac:	d94109c4 	addi	r5,sp,1063
100098b0:	07040074 	movhi	fp,4097
100098b4:	04440074 	movhi	r17,4097
100098b8:	2145c83a 	sub	r2,r4,r5
100098bc:	e7073b04 	addi	fp,fp,7404
100098c0:	8c473704 	addi	r17,r17,7388
100098c4:	d9011e15 	stw	r4,1144(sp)
100098c8:	d9411f15 	stw	r5,1148(sp)
100098cc:	dec11a15 	stw	sp,1128(sp)
100098d0:	d8011c15 	stw	zero,1136(sp)
100098d4:	d8011b15 	stw	zero,1132(sp)
100098d8:	d8012715 	stw	zero,1180(sp)
100098dc:	d8012515 	stw	zero,1172(sp)
100098e0:	d811883a 	mov	r8,sp
100098e4:	d8812815 	stw	r2,1184(sp)
100098e8:	982f883a 	mov	r23,r19
100098ec:	b8800007 	ldb	r2,0(r23)
100098f0:	1003b026 	beq	r2,zero,1000a7b4 <___vfiprintf_internal_r+0xfa8>
100098f4:	01000944 	movi	r4,37
100098f8:	1103ae26 	beq	r2,r4,1000a7b4 <___vfiprintf_internal_r+0xfa8>
100098fc:	b805883a 	mov	r2,r23
10009900:	00000106 	br	10009908 <___vfiprintf_internal_r+0xfc>
10009904:	19000326 	beq	r3,r4,10009914 <___vfiprintf_internal_r+0x108>
10009908:	10800044 	addi	r2,r2,1
1000990c:	10c00007 	ldb	r3,0(r2)
10009910:	183ffc1e 	bne	r3,zero,10009904 <__alt_data_end+0xf8009904>
10009914:	15e1c83a 	sub	r16,r2,r23
10009918:	1029883a 	mov	r20,r2
1000991c:	80001026 	beq	r16,zero,10009960 <___vfiprintf_internal_r+0x154>
10009920:	d8c11c17 	ldw	r3,1136(sp)
10009924:	d8811b17 	ldw	r2,1132(sp)
10009928:	45c00015 	stw	r23,0(r8)
1000992c:	80c7883a 	add	r3,r16,r3
10009930:	10800044 	addi	r2,r2,1
10009934:	44000115 	stw	r16,4(r8)
10009938:	d8c11c15 	stw	r3,1136(sp)
1000993c:	d8811b15 	stw	r2,1132(sp)
10009940:	010001c4 	movi	r4,7
10009944:	2080740e 	bge	r4,r2,10009b18 <___vfiprintf_internal_r+0x30c>
10009948:	1803a71e 	bne	r3,zero,1000a7e8 <___vfiprintf_internal_r+0xfdc>
1000994c:	d8c12517 	ldw	r3,1172(sp)
10009950:	d8011b15 	stw	zero,1132(sp)
10009954:	d811883a 	mov	r8,sp
10009958:	1c07883a 	add	r3,r3,r16
1000995c:	d8c12515 	stw	r3,1172(sp)
10009960:	a0800007 	ldb	r2,0(r20)
10009964:	1002bf26 	beq	r2,zero,1000a464 <___vfiprintf_internal_r+0xc58>
10009968:	a5c00044 	addi	r23,r20,1
1000996c:	a1800047 	ldb	r6,1(r20)
10009970:	d8011d85 	stb	zero,1142(sp)
10009974:	d8012205 	stb	zero,1160(sp)
10009978:	043fffc4 	movi	r16,-1
1000997c:	d8012415 	stw	zero,1168(sp)
10009980:	0025883a 	mov	r18,zero
10009984:	05001604 	movi	r20,88
10009988:	05400244 	movi	r21,9
1000998c:	4027883a 	mov	r19,r8
10009990:	bdc00044 	addi	r23,r23,1
10009994:	30bff804 	addi	r2,r6,-32
10009998:	a0825636 	bltu	r20,r2,1000a2f4 <___vfiprintf_internal_r+0xae8>
1000999c:	100490ba 	slli	r2,r2,2
100099a0:	01040074 	movhi	r4,4097
100099a4:	21266d04 	addi	r4,r4,-26188
100099a8:	1105883a 	add	r2,r2,r4
100099ac:	10800017 	ldw	r2,0(r2)
100099b0:	1000683a 	jmp	r2
100099b4:	1000a284 	addi	zero,r2,650
100099b8:	1000a2f4 	orhi	zero,r2,651
100099bc:	1000a2f4 	orhi	zero,r2,651
100099c0:	1000a2e8 	cmpgeui	zero,r2,651
100099c4:	1000a2f4 	orhi	zero,r2,651
100099c8:	1000a2f4 	orhi	zero,r2,651
100099cc:	1000a2f4 	orhi	zero,r2,651
100099d0:	1000a2f4 	orhi	zero,r2,651
100099d4:	1000a2f4 	orhi	zero,r2,651
100099d8:	1000a2f4 	orhi	zero,r2,651
100099dc:	1000a074 	orhi	zero,r2,641
100099e0:	1000a29c 	xori	zero,r2,650
100099e4:	1000a2f4 	orhi	zero,r2,651
100099e8:	10009c48 	cmpgei	zero,r2,625
100099ec:	1000a098 	cmpnei	zero,r2,642
100099f0:	1000a2f4 	orhi	zero,r2,651
100099f4:	10009c54 	ori	zero,r2,625
100099f8:	10009c60 	cmpeqi	zero,r2,625
100099fc:	10009c60 	cmpeqi	zero,r2,625
10009a00:	10009c60 	cmpeqi	zero,r2,625
10009a04:	10009c60 	cmpeqi	zero,r2,625
10009a08:	10009c60 	cmpeqi	zero,r2,625
10009a0c:	10009c60 	cmpeqi	zero,r2,625
10009a10:	10009c60 	cmpeqi	zero,r2,625
10009a14:	10009c60 	cmpeqi	zero,r2,625
10009a18:	10009c60 	cmpeqi	zero,r2,625
10009a1c:	1000a2f4 	orhi	zero,r2,651
10009a20:	1000a2f4 	orhi	zero,r2,651
10009a24:	1000a2f4 	orhi	zero,r2,651
10009a28:	1000a2f4 	orhi	zero,r2,651
10009a2c:	1000a2f4 	orhi	zero,r2,651
10009a30:	1000a2f4 	orhi	zero,r2,651
10009a34:	1000a2f4 	orhi	zero,r2,651
10009a38:	1000a2f4 	orhi	zero,r2,651
10009a3c:	1000a2f4 	orhi	zero,r2,651
10009a40:	1000a2f4 	orhi	zero,r2,651
10009a44:	10009ca0 	cmpeqi	zero,r2,626
10009a48:	1000a2f4 	orhi	zero,r2,651
10009a4c:	1000a2f4 	orhi	zero,r2,651
10009a50:	1000a2f4 	orhi	zero,r2,651
10009a54:	1000a2f4 	orhi	zero,r2,651
10009a58:	1000a2f4 	orhi	zero,r2,651
10009a5c:	1000a2f4 	orhi	zero,r2,651
10009a60:	1000a2f4 	orhi	zero,r2,651
10009a64:	1000a2f4 	orhi	zero,r2,651
10009a68:	1000a2f4 	orhi	zero,r2,651
10009a6c:	1000a2f4 	orhi	zero,r2,651
10009a70:	10009f90 	cmplti	zero,r2,638
10009a74:	1000a2f4 	orhi	zero,r2,651
10009a78:	1000a2f4 	orhi	zero,r2,651
10009a7c:	1000a2f4 	orhi	zero,r2,651
10009a80:	1000a2f4 	orhi	zero,r2,651
10009a84:	1000a2f4 	orhi	zero,r2,651
10009a88:	10009fd0 	cmplti	zero,r2,639
10009a8c:	1000a2f4 	orhi	zero,r2,651
10009a90:	1000a2f4 	orhi	zero,r2,651
10009a94:	1000a014 	ori	zero,r2,640
10009a98:	1000a2f4 	orhi	zero,r2,651
10009a9c:	1000a2f4 	orhi	zero,r2,651
10009aa0:	1000a2f4 	orhi	zero,r2,651
10009aa4:	1000a2f4 	orhi	zero,r2,651
10009aa8:	1000a2f4 	orhi	zero,r2,651
10009aac:	1000a2f4 	orhi	zero,r2,651
10009ab0:	1000a2f4 	orhi	zero,r2,651
10009ab4:	1000a2f4 	orhi	zero,r2,651
10009ab8:	1000a2f4 	orhi	zero,r2,651
10009abc:	1000a2f4 	orhi	zero,r2,651
10009ac0:	10009f5c 	xori	zero,r2,637
10009ac4:	1000a2ac 	andhi	zero,r2,650
10009ac8:	1000a2f4 	orhi	zero,r2,651
10009acc:	1000a2f4 	orhi	zero,r2,651
10009ad0:	1000a2f4 	orhi	zero,r2,651
10009ad4:	1000a0e8 	cmpgeui	zero,r2,643
10009ad8:	1000a2ac 	andhi	zero,r2,650
10009adc:	1000a2f4 	orhi	zero,r2,651
10009ae0:	1000a2f4 	orhi	zero,r2,651
10009ae4:	1000a000 	call	11000a00 <_gp+0xfe5124>
10009ae8:	1000a2f4 	orhi	zero,r2,651
10009aec:	1000a24c 	andi	zero,r2,649
10009af0:	1000a1d4 	ori	zero,r2,647
10009af4:	1000a208 	cmpgei	zero,r2,648
10009af8:	1000a0f4 	orhi	zero,r2,643
10009afc:	1000a2f4 	orhi	zero,r2,651
10009b00:	1000a100 	call	11000a10 <_gp+0xfe5134>
10009b04:	1000a2f4 	orhi	zero,r2,651
10009b08:	1000a15c 	xori	zero,r2,645
10009b0c:	1000a2f4 	orhi	zero,r2,651
10009b10:	1000a2f4 	orhi	zero,r2,651
10009b14:	1000a190 	cmplti	zero,r2,646
10009b18:	42000204 	addi	r8,r8,8
10009b1c:	d8c12517 	ldw	r3,1172(sp)
10009b20:	1c07883a 	add	r3,r3,r16
10009b24:	d8c12515 	stw	r3,1172(sp)
10009b28:	003f8d06 	br	10009960 <__alt_data_end+0xf8009960>
10009b2c:	d9012117 	ldw	r4,1156(sp)
10009b30:	d9412017 	ldw	r5,1152(sp)
10009b34:	00044d40 	call	100044d4 <__swsetup_r>
10009b38:	1000301e 	bne	r2,zero,10009bfc <___vfiprintf_internal_r+0x3f0>
10009b3c:	d8812017 	ldw	r2,1152(sp)
10009b40:	01000284 	movi	r4,10
10009b44:	10c0030b 	ldhu	r3,12(r2)
10009b48:	1805883a 	mov	r2,r3
10009b4c:	1080068c 	andi	r2,r2,26
10009b50:	113f551e 	bne	r2,r4,100098a8 <__alt_data_end+0xf80098a8>
10009b54:	d9012017 	ldw	r4,1152(sp)
10009b58:	2080038b 	ldhu	r2,14(r4)
10009b5c:	113fffcc 	andi	r4,r2,65535
10009b60:	2120001c 	xori	r4,r4,32768
10009b64:	21200004 	addi	r4,r4,-32768
10009b68:	203f4f16 	blt	r4,zero,100098a8 <__alt_data_end+0xf80098a8>
10009b6c:	d9412017 	ldw	r5,1152(sp)
10009b70:	d9012117 	ldw	r4,1156(sp)
10009b74:	d9c12317 	ldw	r7,1164(sp)
10009b78:	2b001917 	ldw	r12,100(r5)
10009b7c:	2ac00717 	ldw	r11,28(r5)
10009b80:	2a800917 	ldw	r10,36(r5)
10009b84:	02010004 	movi	r8,1024
10009b88:	18ffff4c 	andi	r3,r3,65533
10009b8c:	da0b883a 	add	r5,sp,r8
10009b90:	980d883a 	mov	r6,r19
10009b94:	d8c1030d 	sth	r3,1036(sp)
10009b98:	db011915 	stw	r12,1124(sp)
10009b9c:	d881038d 	sth	r2,1038(sp)
10009ba0:	dac10715 	stw	r11,1052(sp)
10009ba4:	da810915 	stw	r10,1060(sp)
10009ba8:	dec10015 	stw	sp,1024(sp)
10009bac:	dec10415 	stw	sp,1040(sp)
10009bb0:	da010215 	stw	r8,1032(sp)
10009bb4:	da010515 	stw	r8,1044(sp)
10009bb8:	d8010615 	stw	zero,1048(sp)
10009bbc:	000980c0 	call	1000980c <___vfiprintf_internal_r>
10009bc0:	1021883a 	mov	r16,r2
10009bc4:	10000416 	blt	r2,zero,10009bd8 <___vfiprintf_internal_r+0x3cc>
10009bc8:	d9012117 	ldw	r4,1156(sp)
10009bcc:	d9410004 	addi	r5,sp,1024
10009bd0:	0005f540 	call	10005f54 <_fflush_r>
10009bd4:	10040f1e 	bne	r2,zero,1000ac14 <___vfiprintf_internal_r+0x1408>
10009bd8:	d881030b 	ldhu	r2,1036(sp)
10009bdc:	1080100c 	andi	r2,r2,64
10009be0:	10000426 	beq	r2,zero,10009bf4 <___vfiprintf_internal_r+0x3e8>
10009be4:	d8c12017 	ldw	r3,1152(sp)
10009be8:	1880030b 	ldhu	r2,12(r3)
10009bec:	10801014 	ori	r2,r2,64
10009bf0:	1880030d 	sth	r2,12(r3)
10009bf4:	8005883a 	mov	r2,r16
10009bf8:	00000106 	br	10009c00 <___vfiprintf_internal_r+0x3f4>
10009bfc:	00bfffc4 	movi	r2,-1
10009c00:	dfc13517 	ldw	ra,1236(sp)
10009c04:	df013417 	ldw	fp,1232(sp)
10009c08:	ddc13317 	ldw	r23,1228(sp)
10009c0c:	dd813217 	ldw	r22,1224(sp)
10009c10:	dd413117 	ldw	r21,1220(sp)
10009c14:	dd013017 	ldw	r20,1216(sp)
10009c18:	dcc12f17 	ldw	r19,1212(sp)
10009c1c:	dc812e17 	ldw	r18,1208(sp)
10009c20:	dc412d17 	ldw	r17,1204(sp)
10009c24:	dc012c17 	ldw	r16,1200(sp)
10009c28:	dec13604 	addi	sp,sp,1240
10009c2c:	f800283a 	ret
10009c30:	00065100 	call	10006510 <__sinit>
10009c34:	003f0706 	br	10009854 <__alt_data_end+0xf8009854>
10009c38:	d8c12417 	ldw	r3,1168(sp)
10009c3c:	d8812315 	stw	r2,1164(sp)
10009c40:	00c7c83a 	sub	r3,zero,r3
10009c44:	d8c12415 	stw	r3,1168(sp)
10009c48:	94800114 	ori	r18,r18,4
10009c4c:	b9800007 	ldb	r6,0(r23)
10009c50:	003f4f06 	br	10009990 <__alt_data_end+0xf8009990>
10009c54:	94802014 	ori	r18,r18,128
10009c58:	b9800007 	ldb	r6,0(r23)
10009c5c:	003f4c06 	br	10009990 <__alt_data_end+0xf8009990>
10009c60:	dc012615 	stw	r16,1176(sp)
10009c64:	d8012415 	stw	zero,1168(sp)
10009c68:	35bff404 	addi	r22,r6,-48
10009c6c:	0009883a 	mov	r4,zero
10009c70:	b821883a 	mov	r16,r23
10009c74:	01400284 	movi	r5,10
10009c78:	000c3280 	call	1000c328 <__mulsi3>
10009c7c:	81800007 	ldb	r6,0(r16)
10009c80:	1589883a 	add	r4,r2,r22
10009c84:	bdc00044 	addi	r23,r23,1
10009c88:	35bff404 	addi	r22,r6,-48
10009c8c:	b821883a 	mov	r16,r23
10009c90:	adbff82e 	bgeu	r21,r22,10009c74 <__alt_data_end+0xf8009c74>
10009c94:	d9012415 	stw	r4,1168(sp)
10009c98:	dc012617 	ldw	r16,1176(sp)
10009c9c:	003f3d06 	br	10009994 <__alt_data_end+0xf8009994>
10009ca0:	d8c12203 	ldbu	r3,1160(sp)
10009ca4:	94800414 	ori	r18,r18,16
10009ca8:	9080080c 	andi	r2,r18,32
10009cac:	d8c11d85 	stb	r3,1142(sp)
10009cb0:	9811883a 	mov	r8,r19
10009cb4:	d8c12317 	ldw	r3,1164(sp)
10009cb8:	10018226 	beq	r2,zero,1000a2c4 <___vfiprintf_internal_r+0xab8>
10009cbc:	d9012317 	ldw	r4,1164(sp)
10009cc0:	18800117 	ldw	r2,4(r3)
10009cc4:	1cc00017 	ldw	r19,0(r3)
10009cc8:	21000204 	addi	r4,r4,8
10009ccc:	d9012315 	stw	r4,1164(sp)
10009cd0:	102b883a 	mov	r21,r2
10009cd4:	10030016 	blt	r2,zero,1000a8d8 <___vfiprintf_internal_r+0x10cc>
10009cd8:	dd811d83 	ldbu	r22,1142(sp)
10009cdc:	8029883a 	mov	r20,r16
10009ce0:	00800044 	movi	r2,1
10009ce4:	9d46b03a 	or	r3,r19,r21
10009ce8:	80000216 	blt	r16,zero,10009cf4 <___vfiprintf_internal_r+0x4e8>
10009cec:	013fdfc4 	movi	r4,-129
10009cf0:	9124703a 	and	r18,r18,r4
10009cf4:	1801b41e 	bne	r3,zero,1000a3c8 <___vfiprintf_internal_r+0xbbc>
10009cf8:	80028126 	beq	r16,zero,1000a700 <___vfiprintf_internal_r+0xef4>
10009cfc:	10803fcc 	andi	r2,r2,255
10009d00:	00c00044 	movi	r3,1
10009d04:	10c1d126 	beq	r2,r3,1000a44c <___vfiprintf_internal_r+0xc40>
10009d08:	00c00084 	movi	r3,2
10009d0c:	10c28626 	beq	r2,r3,1000a728 <___vfiprintf_internal_r+0xf1c>
10009d10:	d8c10a04 	addi	r3,sp,1064
10009d14:	9808d0fa 	srli	r4,r19,3
10009d18:	a80a977a 	slli	r5,r21,29
10009d1c:	a82ad0fa 	srli	r21,r21,3
10009d20:	9cc001cc 	andi	r19,r19,7
10009d24:	98800c04 	addi	r2,r19,48
10009d28:	18ffffc4 	addi	r3,r3,-1
10009d2c:	2926b03a 	or	r19,r5,r4
10009d30:	18800005 	stb	r2,0(r3)
10009d34:	9d48b03a 	or	r4,r19,r21
10009d38:	203ff61e 	bne	r4,zero,10009d14 <__alt_data_end+0xf8009d14>
10009d3c:	9100004c 	andi	r4,r18,1
10009d40:	d8c12215 	stw	r3,1160(sp)
10009d44:	2002b31e 	bne	r4,zero,1000a814 <___vfiprintf_internal_r+0x1008>
10009d48:	d9411e17 	ldw	r5,1144(sp)
10009d4c:	28e9c83a 	sub	r20,r5,r3
10009d50:	a02b883a 	mov	r21,r20
10009d54:	a400010e 	bge	r20,r16,10009d5c <___vfiprintf_internal_r+0x550>
10009d58:	802b883a 	mov	r21,r16
10009d5c:	b5803fcc 	andi	r22,r22,255
10009d60:	b580201c 	xori	r22,r22,128
10009d64:	b5bfe004 	addi	r22,r22,-128
10009d68:	b0000126 	beq	r22,zero,10009d70 <___vfiprintf_internal_r+0x564>
10009d6c:	ad400044 	addi	r21,r21,1
10009d70:	9280008c 	andi	r10,r18,2
10009d74:	50000126 	beq	r10,zero,10009d7c <___vfiprintf_internal_r+0x570>
10009d78:	ad400084 	addi	r21,r21,2
10009d7c:	9580210c 	andi	r22,r18,132
10009d80:	b001751e 	bne	r22,zero,1000a358 <___vfiprintf_internal_r+0xb4c>
10009d84:	d9012417 	ldw	r4,1168(sp)
10009d88:	2567c83a 	sub	r19,r4,r21
10009d8c:	04c1720e 	bge	zero,r19,1000a358 <___vfiprintf_internal_r+0xb4c>
10009d90:	01c00404 	movi	r7,16
10009d94:	d8c11c17 	ldw	r3,1136(sp)
10009d98:	3cc36b0e 	bge	r7,r19,1000ab48 <___vfiprintf_internal_r+0x133c>
10009d9c:	00840074 	movhi	r2,4097
10009da0:	10873b04 	addi	r2,r2,7404
10009da4:	dc012915 	stw	r16,1188(sp)
10009da8:	d9011b17 	ldw	r4,1132(sp)
10009dac:	9821883a 	mov	r16,r19
10009db0:	d8812615 	stw	r2,1176(sp)
10009db4:	030001c4 	movi	r12,7
10009db8:	5027883a 	mov	r19,r10
10009dbc:	00000506 	br	10009dd4 <___vfiprintf_internal_r+0x5c8>
10009dc0:	21400084 	addi	r5,r4,2
10009dc4:	42000204 	addi	r8,r8,8
10009dc8:	1009883a 	mov	r4,r2
10009dcc:	843ffc04 	addi	r16,r16,-16
10009dd0:	3c000d0e 	bge	r7,r16,10009e08 <___vfiprintf_internal_r+0x5fc>
10009dd4:	18c00404 	addi	r3,r3,16
10009dd8:	20800044 	addi	r2,r4,1
10009ddc:	47000015 	stw	fp,0(r8)
10009de0:	41c00115 	stw	r7,4(r8)
10009de4:	d8c11c15 	stw	r3,1136(sp)
10009de8:	d8811b15 	stw	r2,1132(sp)
10009dec:	60bff40e 	bge	r12,r2,10009dc0 <__alt_data_end+0xf8009dc0>
10009df0:	18014b1e 	bne	r3,zero,1000a320 <___vfiprintf_internal_r+0xb14>
10009df4:	843ffc04 	addi	r16,r16,-16
10009df8:	0009883a 	mov	r4,zero
10009dfc:	01400044 	movi	r5,1
10009e00:	d811883a 	mov	r8,sp
10009e04:	3c3ff316 	blt	r7,r16,10009dd4 <__alt_data_end+0xf8009dd4>
10009e08:	9815883a 	mov	r10,r19
10009e0c:	8027883a 	mov	r19,r16
10009e10:	dc012917 	ldw	r16,1188(sp)
10009e14:	d9012617 	ldw	r4,1176(sp)
10009e18:	98c7883a 	add	r3,r19,r3
10009e1c:	44c00115 	stw	r19,4(r8)
10009e20:	41000015 	stw	r4,0(r8)
10009e24:	d8c11c15 	stw	r3,1136(sp)
10009e28:	d9411b15 	stw	r5,1132(sp)
10009e2c:	008001c4 	movi	r2,7
10009e30:	11425116 	blt	r2,r5,1000a778 <___vfiprintf_internal_r+0xf6c>
10009e34:	d9011d87 	ldb	r4,1142(sp)
10009e38:	42000204 	addi	r8,r8,8
10009e3c:	28800044 	addi	r2,r5,1
10009e40:	20014a1e 	bne	r4,zero,1000a36c <___vfiprintf_internal_r+0xb60>
10009e44:	50000c26 	beq	r10,zero,10009e78 <___vfiprintf_internal_r+0x66c>
10009e48:	d9011d04 	addi	r4,sp,1140
10009e4c:	18c00084 	addi	r3,r3,2
10009e50:	41000015 	stw	r4,0(r8)
10009e54:	01000084 	movi	r4,2
10009e58:	41000115 	stw	r4,4(r8)
10009e5c:	d8c11c15 	stw	r3,1136(sp)
10009e60:	d8811b15 	stw	r2,1132(sp)
10009e64:	010001c4 	movi	r4,7
10009e68:	20822016 	blt	r4,r2,1000a6ec <___vfiprintf_internal_r+0xee0>
10009e6c:	100b883a 	mov	r5,r2
10009e70:	42000204 	addi	r8,r8,8
10009e74:	10800044 	addi	r2,r2,1
10009e78:	01002004 	movi	r4,128
10009e7c:	b101de26 	beq	r22,r4,1000a5f8 <___vfiprintf_internal_r+0xdec>
10009e80:	8521c83a 	sub	r16,r16,r20
10009e84:	0400230e 	bge	zero,r16,10009f14 <___vfiprintf_internal_r+0x708>
10009e88:	04c00404 	movi	r19,16
10009e8c:	9c030d0e 	bge	r19,r16,1000aac4 <___vfiprintf_internal_r+0x12b8>
10009e90:	00840074 	movhi	r2,4097
10009e94:	10873704 	addi	r2,r2,7388
10009e98:	d8812615 	stw	r2,1176(sp)
10009e9c:	058001c4 	movi	r22,7
10009ea0:	00000506 	br	10009eb8 <___vfiprintf_internal_r+0x6ac>
10009ea4:	28800084 	addi	r2,r5,2
10009ea8:	42000204 	addi	r8,r8,8
10009eac:	200b883a 	mov	r5,r4
10009eb0:	843ffc04 	addi	r16,r16,-16
10009eb4:	9c000d0e 	bge	r19,r16,10009eec <___vfiprintf_internal_r+0x6e0>
10009eb8:	18c00404 	addi	r3,r3,16
10009ebc:	29000044 	addi	r4,r5,1
10009ec0:	44400015 	stw	r17,0(r8)
10009ec4:	44c00115 	stw	r19,4(r8)
10009ec8:	d8c11c15 	stw	r3,1136(sp)
10009ecc:	d9011b15 	stw	r4,1132(sp)
10009ed0:	b13ff40e 	bge	r22,r4,10009ea4 <__alt_data_end+0xf8009ea4>
10009ed4:	1801321e 	bne	r3,zero,1000a3a0 <___vfiprintf_internal_r+0xb94>
10009ed8:	843ffc04 	addi	r16,r16,-16
10009edc:	000b883a 	mov	r5,zero
10009ee0:	00800044 	movi	r2,1
10009ee4:	d811883a 	mov	r8,sp
10009ee8:	9c3ff316 	blt	r19,r16,10009eb8 <__alt_data_end+0xf8009eb8>
10009eec:	d9012617 	ldw	r4,1176(sp)
10009ef0:	1c07883a 	add	r3,r3,r16
10009ef4:	44000115 	stw	r16,4(r8)
10009ef8:	41000015 	stw	r4,0(r8)
10009efc:	d8c11c15 	stw	r3,1136(sp)
10009f00:	d8811b15 	stw	r2,1132(sp)
10009f04:	010001c4 	movi	r4,7
10009f08:	20816216 	blt	r4,r2,1000a494 <___vfiprintf_internal_r+0xc88>
10009f0c:	42000204 	addi	r8,r8,8
10009f10:	10800044 	addi	r2,r2,1
10009f14:	d9012217 	ldw	r4,1160(sp)
10009f18:	1d07883a 	add	r3,r3,r20
10009f1c:	45000115 	stw	r20,4(r8)
10009f20:	41000015 	stw	r4,0(r8)
10009f24:	d8c11c15 	stw	r3,1136(sp)
10009f28:	d8811b15 	stw	r2,1132(sp)
10009f2c:	010001c4 	movi	r4,7
10009f30:	2081610e 	bge	r4,r2,1000a4b8 <___vfiprintf_internal_r+0xcac>
10009f34:	1802211e 	bne	r3,zero,1000a7bc <___vfiprintf_internal_r+0xfb0>
10009f38:	d8011b15 	stw	zero,1132(sp)
10009f3c:	9480010c 	andi	r18,r18,4
10009f40:	9002171e 	bne	r18,zero,1000a7a0 <___vfiprintf_internal_r+0xf94>
10009f44:	d9412417 	ldw	r5,1168(sp)
10009f48:	a9433716 	blt	r21,r5,1000ac28 <___vfiprintf_internal_r+0x141c>
10009f4c:	d8812517 	ldw	r2,1172(sp)
10009f50:	1545883a 	add	r2,r2,r21
10009f54:	d8812515 	stw	r2,1172(sp)
10009f58:	00019a06 	br	1000a5c4 <___vfiprintf_internal_r+0xdb8>
10009f5c:	d8c12317 	ldw	r3,1164(sp)
10009f60:	05400044 	movi	r21,1
10009f64:	9811883a 	mov	r8,r19
10009f68:	18800017 	ldw	r2,0(r3)
10009f6c:	18c00104 	addi	r3,r3,4
10009f70:	d8c12315 	stw	r3,1164(sp)
10009f74:	d8c10004 	addi	r3,sp,1024
10009f78:	d8011d85 	stb	zero,1142(sp)
10009f7c:	d8810005 	stb	r2,1024(sp)
10009f80:	a829883a 	mov	r20,r21
10009f84:	d8c12215 	stw	r3,1160(sp)
10009f88:	0021883a 	mov	r16,zero
10009f8c:	003f7806 	br	10009d70 <__alt_data_end+0xf8009d70>
10009f90:	94800414 	ori	r18,r18,16
10009f94:	9080080c 	andi	r2,r18,32
10009f98:	9811883a 	mov	r8,r19
10009f9c:	10009026 	beq	r2,zero,1000a1e0 <___vfiprintf_internal_r+0x9d4>
10009fa0:	d8812317 	ldw	r2,1164(sp)
10009fa4:	d8c12317 	ldw	r3,1164(sp)
10009fa8:	14c00017 	ldw	r19,0(r2)
10009fac:	15400117 	ldw	r21,4(r2)
10009fb0:	18c00204 	addi	r3,r3,8
10009fb4:	d8c12315 	stw	r3,1164(sp)
10009fb8:	0005883a 	mov	r2,zero
10009fbc:	9d46b03a 	or	r3,r19,r21
10009fc0:	d8011d85 	stb	zero,1142(sp)
10009fc4:	8029883a 	mov	r20,r16
10009fc8:	002d883a 	mov	r22,zero
10009fcc:	003f4606 	br	10009ce8 <__alt_data_end+0xf8009ce8>
10009fd0:	94800414 	ori	r18,r18,16
10009fd4:	9080080c 	andi	r2,r18,32
10009fd8:	9811883a 	mov	r8,r19
10009fdc:	10006226 	beq	r2,zero,1000a168 <___vfiprintf_internal_r+0x95c>
10009fe0:	d9012317 	ldw	r4,1164(sp)
10009fe4:	00800044 	movi	r2,1
10009fe8:	24c00017 	ldw	r19,0(r4)
10009fec:	25400117 	ldw	r21,4(r4)
10009ff0:	21000204 	addi	r4,r4,8
10009ff4:	d9012315 	stw	r4,1164(sp)
10009ff8:	9d46b03a 	or	r3,r19,r21
10009ffc:	003ff006 	br	10009fc0 <__alt_data_end+0xf8009fc0>
1000a000:	b9800007 	ldb	r6,0(r23)
1000a004:	00801b04 	movi	r2,108
1000a008:	3082b226 	beq	r6,r2,1000aad4 <___vfiprintf_internal_r+0x12c8>
1000a00c:	94800414 	ori	r18,r18,16
1000a010:	003e5f06 	br	10009990 <__alt_data_end+0xf8009990>
1000a014:	d8c12203 	ldbu	r3,1160(sp)
1000a018:	01040074 	movhi	r4,4097
1000a01c:	2106d104 	addi	r4,r4,6980
1000a020:	d8c11d85 	stb	r3,1142(sp)
1000a024:	d9012715 	stw	r4,1180(sp)
1000a028:	90c0080c 	andi	r3,r18,32
1000a02c:	9811883a 	mov	r8,r19
1000a030:	d8812317 	ldw	r2,1164(sp)
1000a034:	18005f26 	beq	r3,zero,1000a1b4 <___vfiprintf_internal_r+0x9a8>
1000a038:	d9012317 	ldw	r4,1164(sp)
1000a03c:	14c00017 	ldw	r19,0(r2)
1000a040:	15400117 	ldw	r21,4(r2)
1000a044:	21000204 	addi	r4,r4,8
1000a048:	d9012315 	stw	r4,1164(sp)
1000a04c:	9080004c 	andi	r2,r18,1
1000a050:	1001e226 	beq	r2,zero,1000a7dc <___vfiprintf_internal_r+0xfd0>
1000a054:	9d46b03a 	or	r3,r19,r21
1000a058:	18024e26 	beq	r3,zero,1000a994 <___vfiprintf_internal_r+0x1188>
1000a05c:	00800c04 	movi	r2,48
1000a060:	d8811d05 	stb	r2,1140(sp)
1000a064:	d9811d45 	stb	r6,1141(sp)
1000a068:	94800094 	ori	r18,r18,2
1000a06c:	00800084 	movi	r2,2
1000a070:	003fd306 	br	10009fc0 <__alt_data_end+0xf8009fc0>
1000a074:	d9012317 	ldw	r4,1164(sp)
1000a078:	d9412317 	ldw	r5,1164(sp)
1000a07c:	21000017 	ldw	r4,0(r4)
1000a080:	28800104 	addi	r2,r5,4
1000a084:	d9012415 	stw	r4,1168(sp)
1000a088:	203eeb16 	blt	r4,zero,10009c38 <__alt_data_end+0xf8009c38>
1000a08c:	d8812315 	stw	r2,1164(sp)
1000a090:	b9800007 	ldb	r6,0(r23)
1000a094:	003e3e06 	br	10009990 <__alt_data_end+0xf8009990>
1000a098:	b9800007 	ldb	r6,0(r23)
1000a09c:	01000a84 	movi	r4,42
1000a0a0:	b8800044 	addi	r2,r23,1
1000a0a4:	3102d226 	beq	r6,r4,1000abf0 <___vfiprintf_internal_r+0x13e4>
1000a0a8:	35bff404 	addi	r22,r6,-48
1000a0ac:	102f883a 	mov	r23,r2
1000a0b0:	0021883a 	mov	r16,zero
1000a0b4:	adbe3736 	bltu	r21,r22,10009994 <__alt_data_end+0xf8009994>
1000a0b8:	0009883a 	mov	r4,zero
1000a0bc:	01400284 	movi	r5,10
1000a0c0:	000c3280 	call	1000c328 <__mulsi3>
1000a0c4:	b9800007 	ldb	r6,0(r23)
1000a0c8:	b089883a 	add	r4,r22,r2
1000a0cc:	bdc00044 	addi	r23,r23,1
1000a0d0:	35bff404 	addi	r22,r6,-48
1000a0d4:	adbff92e 	bgeu	r21,r22,1000a0bc <__alt_data_end+0xf800a0bc>
1000a0d8:	2021883a 	mov	r16,r4
1000a0dc:	203e2d0e 	bge	r4,zero,10009994 <__alt_data_end+0xf8009994>
1000a0e0:	043fffc4 	movi	r16,-1
1000a0e4:	003e2b06 	br	10009994 <__alt_data_end+0xf8009994>
1000a0e8:	94801014 	ori	r18,r18,64
1000a0ec:	b9800007 	ldb	r6,0(r23)
1000a0f0:	003e2706 	br	10009990 <__alt_data_end+0xf8009990>
1000a0f4:	94800814 	ori	r18,r18,32
1000a0f8:	b9800007 	ldb	r6,0(r23)
1000a0fc:	003e2406 	br	10009990 <__alt_data_end+0xf8009990>
1000a100:	d9412317 	ldw	r5,1164(sp)
1000a104:	d8812317 	ldw	r2,1164(sp)
1000a108:	d8011d85 	stb	zero,1142(sp)
1000a10c:	29400017 	ldw	r5,0(r5)
1000a110:	9811883a 	mov	r8,r19
1000a114:	14c00104 	addi	r19,r2,4
1000a118:	d9412215 	stw	r5,1160(sp)
1000a11c:	28029026 	beq	r5,zero,1000ab60 <___vfiprintf_internal_r+0x1354>
1000a120:	d9012217 	ldw	r4,1160(sp)
1000a124:	80027616 	blt	r16,zero,1000ab00 <___vfiprintf_internal_r+0x12f4>
1000a128:	000b883a 	mov	r5,zero
1000a12c:	800d883a 	mov	r6,r16
1000a130:	da012a15 	stw	r8,1192(sp)
1000a134:	00079c80 	call	100079c8 <memchr>
1000a138:	da012a17 	ldw	r8,1192(sp)
1000a13c:	1002a026 	beq	r2,zero,1000abc0 <___vfiprintf_internal_r+0x13b4>
1000a140:	d8c12217 	ldw	r3,1160(sp)
1000a144:	10e9c83a 	sub	r20,r2,r3
1000a148:	85023816 	blt	r16,r20,1000aa2c <___vfiprintf_internal_r+0x1220>
1000a14c:	dd811d83 	ldbu	r22,1142(sp)
1000a150:	dcc12315 	stw	r19,1164(sp)
1000a154:	0021883a 	mov	r16,zero
1000a158:	003efd06 	br	10009d50 <__alt_data_end+0xf8009d50>
1000a15c:	9080080c 	andi	r2,r18,32
1000a160:	9811883a 	mov	r8,r19
1000a164:	103f9e1e 	bne	r2,zero,10009fe0 <__alt_data_end+0xf8009fe0>
1000a168:	9080040c 	andi	r2,r18,16
1000a16c:	10021726 	beq	r2,zero,1000a9cc <___vfiprintf_internal_r+0x11c0>
1000a170:	d9412317 	ldw	r5,1164(sp)
1000a174:	002b883a 	mov	r21,zero
1000a178:	00800044 	movi	r2,1
1000a17c:	2cc00017 	ldw	r19,0(r5)
1000a180:	29400104 	addi	r5,r5,4
1000a184:	d9412315 	stw	r5,1164(sp)
1000a188:	9807883a 	mov	r3,r19
1000a18c:	003f8c06 	br	10009fc0 <__alt_data_end+0xf8009fc0>
1000a190:	d8c12203 	ldbu	r3,1160(sp)
1000a194:	01040074 	movhi	r4,4097
1000a198:	2106d604 	addi	r4,r4,7000
1000a19c:	d8c11d85 	stb	r3,1142(sp)
1000a1a0:	d9012715 	stw	r4,1180(sp)
1000a1a4:	90c0080c 	andi	r3,r18,32
1000a1a8:	9811883a 	mov	r8,r19
1000a1ac:	d8812317 	ldw	r2,1164(sp)
1000a1b0:	183fa11e 	bne	r3,zero,1000a038 <__alt_data_end+0xf800a038>
1000a1b4:	90c0040c 	andi	r3,r18,16
1000a1b8:	1801e526 	beq	r3,zero,1000a950 <___vfiprintf_internal_r+0x1144>
1000a1bc:	d9412317 	ldw	r5,1164(sp)
1000a1c0:	14c00017 	ldw	r19,0(r2)
1000a1c4:	002b883a 	mov	r21,zero
1000a1c8:	29400104 	addi	r5,r5,4
1000a1cc:	d9412315 	stw	r5,1164(sp)
1000a1d0:	003f9e06 	br	1000a04c <__alt_data_end+0xf800a04c>
1000a1d4:	9080080c 	andi	r2,r18,32
1000a1d8:	9811883a 	mov	r8,r19
1000a1dc:	103f701e 	bne	r2,zero,10009fa0 <__alt_data_end+0xf8009fa0>
1000a1e0:	9080040c 	andi	r2,r18,16
1000a1e4:	1001ef26 	beq	r2,zero,1000a9a4 <___vfiprintf_internal_r+0x1198>
1000a1e8:	d9012317 	ldw	r4,1164(sp)
1000a1ec:	002b883a 	mov	r21,zero
1000a1f0:	0005883a 	mov	r2,zero
1000a1f4:	24c00017 	ldw	r19,0(r4)
1000a1f8:	21000104 	addi	r4,r4,4
1000a1fc:	d9012315 	stw	r4,1164(sp)
1000a200:	9807883a 	mov	r3,r19
1000a204:	003f6e06 	br	10009fc0 <__alt_data_end+0xf8009fc0>
1000a208:	d8c12317 	ldw	r3,1164(sp)
1000a20c:	9811883a 	mov	r8,r19
1000a210:	00800c04 	movi	r2,48
1000a214:	1cc00017 	ldw	r19,0(r3)
1000a218:	01040074 	movhi	r4,4097
1000a21c:	18c00104 	addi	r3,r3,4
1000a220:	d8811d05 	stb	r2,1140(sp)
1000a224:	2106d604 	addi	r4,r4,7000
1000a228:	00801e04 	movi	r2,120
1000a22c:	d8811d45 	stb	r2,1141(sp)
1000a230:	d8c12315 	stw	r3,1164(sp)
1000a234:	002b883a 	mov	r21,zero
1000a238:	94800094 	ori	r18,r18,2
1000a23c:	d9012715 	stw	r4,1180(sp)
1000a240:	00800084 	movi	r2,2
1000a244:	9807883a 	mov	r3,r19
1000a248:	003f5d06 	br	10009fc0 <__alt_data_end+0xf8009fc0>
1000a24c:	d8c12203 	ldbu	r3,1160(sp)
1000a250:	9080080c 	andi	r2,r18,32
1000a254:	9811883a 	mov	r8,r19
1000a258:	d8c11d85 	stb	r3,1142(sp)
1000a25c:	1001b126 	beq	r2,zero,1000a924 <___vfiprintf_internal_r+0x1118>
1000a260:	d9012317 	ldw	r4,1164(sp)
1000a264:	d9412517 	ldw	r5,1172(sp)
1000a268:	20800017 	ldw	r2,0(r4)
1000a26c:	2807d7fa 	srai	r3,r5,31
1000a270:	21000104 	addi	r4,r4,4
1000a274:	d9012315 	stw	r4,1164(sp)
1000a278:	11400015 	stw	r5,0(r2)
1000a27c:	10c00115 	stw	r3,4(r2)
1000a280:	003d9a06 	br	100098ec <__alt_data_end+0xf80098ec>
1000a284:	d8812207 	ldb	r2,1160(sp)
1000a288:	1001c41e 	bne	r2,zero,1000a99c <___vfiprintf_internal_r+0x1190>
1000a28c:	00c00804 	movi	r3,32
1000a290:	d8c12205 	stb	r3,1160(sp)
1000a294:	b9800007 	ldb	r6,0(r23)
1000a298:	003dbd06 	br	10009990 <__alt_data_end+0xf8009990>
1000a29c:	00c00ac4 	movi	r3,43
1000a2a0:	d8c12205 	stb	r3,1160(sp)
1000a2a4:	b9800007 	ldb	r6,0(r23)
1000a2a8:	003db906 	br	10009990 <__alt_data_end+0xf8009990>
1000a2ac:	d8c12203 	ldbu	r3,1160(sp)
1000a2b0:	9080080c 	andi	r2,r18,32
1000a2b4:	9811883a 	mov	r8,r19
1000a2b8:	d8c11d85 	stb	r3,1142(sp)
1000a2bc:	d8c12317 	ldw	r3,1164(sp)
1000a2c0:	103e7e1e 	bne	r2,zero,10009cbc <__alt_data_end+0xf8009cbc>
1000a2c4:	9080040c 	andi	r2,r18,16
1000a2c8:	1001a926 	beq	r2,zero,1000a970 <___vfiprintf_internal_r+0x1164>
1000a2cc:	1cc00017 	ldw	r19,0(r3)
1000a2d0:	d9412317 	ldw	r5,1164(sp)
1000a2d4:	982bd7fa 	srai	r21,r19,31
1000a2d8:	29400104 	addi	r5,r5,4
1000a2dc:	d9412315 	stw	r5,1164(sp)
1000a2e0:	a805883a 	mov	r2,r21
1000a2e4:	003e7b06 	br	10009cd4 <__alt_data_end+0xf8009cd4>
1000a2e8:	94800054 	ori	r18,r18,1
1000a2ec:	b9800007 	ldb	r6,0(r23)
1000a2f0:	003da706 	br	10009990 <__alt_data_end+0xf8009990>
1000a2f4:	d8c12203 	ldbu	r3,1160(sp)
1000a2f8:	9811883a 	mov	r8,r19
1000a2fc:	d8c11d85 	stb	r3,1142(sp)
1000a300:	30005826 	beq	r6,zero,1000a464 <___vfiprintf_internal_r+0xc58>
1000a304:	05400044 	movi	r21,1
1000a308:	d8c10004 	addi	r3,sp,1024
1000a30c:	d9810005 	stb	r6,1024(sp)
1000a310:	d8011d85 	stb	zero,1142(sp)
1000a314:	a829883a 	mov	r20,r21
1000a318:	d8c12215 	stw	r3,1160(sp)
1000a31c:	003f1a06 	br	10009f88 <__alt_data_end+0xf8009f88>
1000a320:	d9012117 	ldw	r4,1156(sp)
1000a324:	d9412017 	ldw	r5,1152(sp)
1000a328:	d9811a04 	addi	r6,sp,1128
1000a32c:	d9c12a15 	stw	r7,1192(sp)
1000a330:	db012b15 	stw	r12,1196(sp)
1000a334:	00096f80 	call	100096f8 <__sprint_r.part.0>
1000a338:	d9c12a17 	ldw	r7,1192(sp)
1000a33c:	db012b17 	ldw	r12,1196(sp)
1000a340:	10004e1e 	bne	r2,zero,1000a47c <___vfiprintf_internal_r+0xc70>
1000a344:	d9011b17 	ldw	r4,1132(sp)
1000a348:	d8c11c17 	ldw	r3,1136(sp)
1000a34c:	d811883a 	mov	r8,sp
1000a350:	21400044 	addi	r5,r4,1
1000a354:	003e9d06 	br	10009dcc <__alt_data_end+0xf8009dcc>
1000a358:	d9411b17 	ldw	r5,1132(sp)
1000a35c:	d8c11c17 	ldw	r3,1136(sp)
1000a360:	28800044 	addi	r2,r5,1
1000a364:	d9011d87 	ldb	r4,1142(sp)
1000a368:	203eb626 	beq	r4,zero,10009e44 <__alt_data_end+0xf8009e44>
1000a36c:	01000044 	movi	r4,1
1000a370:	d9411d84 	addi	r5,sp,1142
1000a374:	1907883a 	add	r3,r3,r4
1000a378:	41400015 	stw	r5,0(r8)
1000a37c:	41000115 	stw	r4,4(r8)
1000a380:	d8c11c15 	stw	r3,1136(sp)
1000a384:	d8811b15 	stw	r2,1132(sp)
1000a388:	014001c4 	movi	r5,7
1000a38c:	2880ce16 	blt	r5,r2,1000a6c8 <___vfiprintf_internal_r+0xebc>
1000a390:	100b883a 	mov	r5,r2
1000a394:	42000204 	addi	r8,r8,8
1000a398:	10800044 	addi	r2,r2,1
1000a39c:	003ea906 	br	10009e44 <__alt_data_end+0xf8009e44>
1000a3a0:	d9012117 	ldw	r4,1156(sp)
1000a3a4:	d9412017 	ldw	r5,1152(sp)
1000a3a8:	d9811a04 	addi	r6,sp,1128
1000a3ac:	00096f80 	call	100096f8 <__sprint_r.part.0>
1000a3b0:	1000321e 	bne	r2,zero,1000a47c <___vfiprintf_internal_r+0xc70>
1000a3b4:	d9411b17 	ldw	r5,1132(sp)
1000a3b8:	d8c11c17 	ldw	r3,1136(sp)
1000a3bc:	d811883a 	mov	r8,sp
1000a3c0:	28800044 	addi	r2,r5,1
1000a3c4:	003eba06 	br	10009eb0 <__alt_data_end+0xf8009eb0>
1000a3c8:	10803fcc 	andi	r2,r2,255
1000a3cc:	00c00044 	movi	r3,1
1000a3d0:	10fe4d1e 	bne	r2,r3,10009d08 <__alt_data_end+0xf8009d08>
1000a3d4:	a800021e 	bne	r21,zero,1000a3e0 <___vfiprintf_internal_r+0xbd4>
1000a3d8:	00800244 	movi	r2,9
1000a3dc:	14c01b2e 	bgeu	r2,r19,1000a44c <___vfiprintf_internal_r+0xc40>
1000a3e0:	dc012215 	stw	r16,1160(sp)
1000a3e4:	dd010a04 	addi	r20,sp,1064
1000a3e8:	a821883a 	mov	r16,r21
1000a3ec:	402b883a 	mov	r21,r8
1000a3f0:	9809883a 	mov	r4,r19
1000a3f4:	800b883a 	mov	r5,r16
1000a3f8:	01800284 	movi	r6,10
1000a3fc:	000f883a 	mov	r7,zero
1000a400:	000bbe00 	call	1000bbe0 <__umoddi3>
1000a404:	10800c04 	addi	r2,r2,48
1000a408:	a53fffc4 	addi	r20,r20,-1
1000a40c:	9809883a 	mov	r4,r19
1000a410:	800b883a 	mov	r5,r16
1000a414:	01800284 	movi	r6,10
1000a418:	000f883a 	mov	r7,zero
1000a41c:	a0800005 	stb	r2,0(r20)
1000a420:	000b5a00 	call	1000b5a0 <__udivdi3>
1000a424:	1027883a 	mov	r19,r2
1000a428:	10c4b03a 	or	r2,r2,r3
1000a42c:	1821883a 	mov	r16,r3
1000a430:	103fef1e 	bne	r2,zero,1000a3f0 <__alt_data_end+0xf800a3f0>
1000a434:	d9011e17 	ldw	r4,1144(sp)
1000a438:	dc012217 	ldw	r16,1160(sp)
1000a43c:	a811883a 	mov	r8,r21
1000a440:	dd012215 	stw	r20,1160(sp)
1000a444:	2529c83a 	sub	r20,r4,r20
1000a448:	003e4106 	br	10009d50 <__alt_data_end+0xf8009d50>
1000a44c:	9cc00c04 	addi	r19,r19,48
1000a450:	d8c109c4 	addi	r3,sp,1063
1000a454:	dcc109c5 	stb	r19,1063(sp)
1000a458:	dd012817 	ldw	r20,1184(sp)
1000a45c:	d8c12215 	stw	r3,1160(sp)
1000a460:	003e3b06 	br	10009d50 <__alt_data_end+0xf8009d50>
1000a464:	d8811c17 	ldw	r2,1136(sp)
1000a468:	10000426 	beq	r2,zero,1000a47c <___vfiprintf_internal_r+0xc70>
1000a46c:	d9012117 	ldw	r4,1156(sp)
1000a470:	d9412017 	ldw	r5,1152(sp)
1000a474:	d9811a04 	addi	r6,sp,1128
1000a478:	00096f80 	call	100096f8 <__sprint_r.part.0>
1000a47c:	d9412017 	ldw	r5,1152(sp)
1000a480:	2880030b 	ldhu	r2,12(r5)
1000a484:	1080100c 	andi	r2,r2,64
1000a488:	103ddc1e 	bne	r2,zero,10009bfc <__alt_data_end+0xf8009bfc>
1000a48c:	d8812517 	ldw	r2,1172(sp)
1000a490:	003ddb06 	br	10009c00 <__alt_data_end+0xf8009c00>
1000a494:	1801061e 	bne	r3,zero,1000a8b0 <___vfiprintf_internal_r+0x10a4>
1000a498:	d8c12217 	ldw	r3,1160(sp)
1000a49c:	00800044 	movi	r2,1
1000a4a0:	dd000115 	stw	r20,4(sp)
1000a4a4:	d8c00015 	stw	r3,0(sp)
1000a4a8:	dd011c15 	stw	r20,1136(sp)
1000a4ac:	d8811b15 	stw	r2,1132(sp)
1000a4b0:	a007883a 	mov	r3,r20
1000a4b4:	d811883a 	mov	r8,sp
1000a4b8:	42000204 	addi	r8,r8,8
1000a4bc:	9480010c 	andi	r18,r18,4
1000a4c0:	90003426 	beq	r18,zero,1000a594 <___vfiprintf_internal_r+0xd88>
1000a4c4:	d9412417 	ldw	r5,1168(sp)
1000a4c8:	2d65c83a 	sub	r18,r5,r21
1000a4cc:	0480310e 	bge	zero,r18,1000a594 <___vfiprintf_internal_r+0xd88>
1000a4d0:	04000404 	movi	r16,16
1000a4d4:	8481ad0e 	bge	r16,r18,1000ab8c <___vfiprintf_internal_r+0x1380>
1000a4d8:	01440074 	movhi	r5,4097
1000a4dc:	29473b04 	addi	r5,r5,7404
1000a4e0:	d9011b17 	ldw	r4,1132(sp)
1000a4e4:	d9412615 	stw	r5,1176(sp)
1000a4e8:	04c001c4 	movi	r19,7
1000a4ec:	dd012117 	ldw	r20,1156(sp)
1000a4f0:	dd812017 	ldw	r22,1152(sp)
1000a4f4:	00000506 	br	1000a50c <___vfiprintf_internal_r+0xd00>
1000a4f8:	21400084 	addi	r5,r4,2
1000a4fc:	42000204 	addi	r8,r8,8
1000a500:	1009883a 	mov	r4,r2
1000a504:	94bffc04 	addi	r18,r18,-16
1000a508:	84800d0e 	bge	r16,r18,1000a540 <___vfiprintf_internal_r+0xd34>
1000a50c:	18c00404 	addi	r3,r3,16
1000a510:	20800044 	addi	r2,r4,1
1000a514:	47000015 	stw	fp,0(r8)
1000a518:	44000115 	stw	r16,4(r8)
1000a51c:	d8c11c15 	stw	r3,1136(sp)
1000a520:	d8811b15 	stw	r2,1132(sp)
1000a524:	98bff40e 	bge	r19,r2,1000a4f8 <__alt_data_end+0xf800a4f8>
1000a528:	1800291e 	bne	r3,zero,1000a5d0 <___vfiprintf_internal_r+0xdc4>
1000a52c:	94bffc04 	addi	r18,r18,-16
1000a530:	0009883a 	mov	r4,zero
1000a534:	01400044 	movi	r5,1
1000a538:	d811883a 	mov	r8,sp
1000a53c:	84bff316 	blt	r16,r18,1000a50c <__alt_data_end+0xf800a50c>
1000a540:	d8812617 	ldw	r2,1176(sp)
1000a544:	1c87883a 	add	r3,r3,r18
1000a548:	44800115 	stw	r18,4(r8)
1000a54c:	40800015 	stw	r2,0(r8)
1000a550:	d8c11c15 	stw	r3,1136(sp)
1000a554:	d9411b15 	stw	r5,1132(sp)
1000a558:	008001c4 	movi	r2,7
1000a55c:	11400d0e 	bge	r2,r5,1000a594 <___vfiprintf_internal_r+0xd88>
1000a560:	1800061e 	bne	r3,zero,1000a57c <___vfiprintf_internal_r+0xd70>
1000a564:	d8c12417 	ldw	r3,1168(sp)
1000a568:	a8c12e16 	blt	r21,r3,1000aa24 <___vfiprintf_internal_r+0x1218>
1000a56c:	d9012517 	ldw	r4,1172(sp)
1000a570:	2549883a 	add	r4,r4,r21
1000a574:	d9012515 	stw	r4,1172(sp)
1000a578:	00001206 	br	1000a5c4 <___vfiprintf_internal_r+0xdb8>
1000a57c:	d9012117 	ldw	r4,1156(sp)
1000a580:	d9412017 	ldw	r5,1152(sp)
1000a584:	d9811a04 	addi	r6,sp,1128
1000a588:	00096f80 	call	100096f8 <__sprint_r.part.0>
1000a58c:	103fbb1e 	bne	r2,zero,1000a47c <__alt_data_end+0xf800a47c>
1000a590:	d8c11c17 	ldw	r3,1136(sp)
1000a594:	d8812417 	ldw	r2,1168(sp)
1000a598:	a880010e 	bge	r21,r2,1000a5a0 <___vfiprintf_internal_r+0xd94>
1000a59c:	102b883a 	mov	r21,r2
1000a5a0:	d9012517 	ldw	r4,1172(sp)
1000a5a4:	2549883a 	add	r4,r4,r21
1000a5a8:	d9012515 	stw	r4,1172(sp)
1000a5ac:	18000526 	beq	r3,zero,1000a5c4 <___vfiprintf_internal_r+0xdb8>
1000a5b0:	d9012117 	ldw	r4,1156(sp)
1000a5b4:	d9412017 	ldw	r5,1152(sp)
1000a5b8:	d9811a04 	addi	r6,sp,1128
1000a5bc:	00096f80 	call	100096f8 <__sprint_r.part.0>
1000a5c0:	103fae1e 	bne	r2,zero,1000a47c <__alt_data_end+0xf800a47c>
1000a5c4:	d8011b15 	stw	zero,1132(sp)
1000a5c8:	d811883a 	mov	r8,sp
1000a5cc:	003cc706 	br	100098ec <__alt_data_end+0xf80098ec>
1000a5d0:	a009883a 	mov	r4,r20
1000a5d4:	b00b883a 	mov	r5,r22
1000a5d8:	d9811a04 	addi	r6,sp,1128
1000a5dc:	00096f80 	call	100096f8 <__sprint_r.part.0>
1000a5e0:	103fa61e 	bne	r2,zero,1000a47c <__alt_data_end+0xf800a47c>
1000a5e4:	d9011b17 	ldw	r4,1132(sp)
1000a5e8:	d8c11c17 	ldw	r3,1136(sp)
1000a5ec:	d811883a 	mov	r8,sp
1000a5f0:	21400044 	addi	r5,r4,1
1000a5f4:	003fc306 	br	1000a504 <__alt_data_end+0xf800a504>
1000a5f8:	d9012417 	ldw	r4,1168(sp)
1000a5fc:	256dc83a 	sub	r22,r4,r21
1000a600:	05be1f0e 	bge	zero,r22,10009e80 <__alt_data_end+0xf8009e80>
1000a604:	04c00404 	movi	r19,16
1000a608:	9d81720e 	bge	r19,r22,1000abd4 <___vfiprintf_internal_r+0x13c8>
1000a60c:	00840074 	movhi	r2,4097
1000a610:	10873704 	addi	r2,r2,7388
1000a614:	d8812615 	stw	r2,1176(sp)
1000a618:	028001c4 	movi	r10,7
1000a61c:	00000506 	br	1000a634 <___vfiprintf_internal_r+0xe28>
1000a620:	29000084 	addi	r4,r5,2
1000a624:	42000204 	addi	r8,r8,8
1000a628:	100b883a 	mov	r5,r2
1000a62c:	b5bffc04 	addi	r22,r22,-16
1000a630:	9d800d0e 	bge	r19,r22,1000a668 <___vfiprintf_internal_r+0xe5c>
1000a634:	18c00404 	addi	r3,r3,16
1000a638:	28800044 	addi	r2,r5,1
1000a63c:	44400015 	stw	r17,0(r8)
1000a640:	44c00115 	stw	r19,4(r8)
1000a644:	d8c11c15 	stw	r3,1136(sp)
1000a648:	d8811b15 	stw	r2,1132(sp)
1000a64c:	50bff40e 	bge	r10,r2,1000a620 <__alt_data_end+0xf800a620>
1000a650:	1800111e 	bne	r3,zero,1000a698 <___vfiprintf_internal_r+0xe8c>
1000a654:	b5bffc04 	addi	r22,r22,-16
1000a658:	000b883a 	mov	r5,zero
1000a65c:	01000044 	movi	r4,1
1000a660:	d811883a 	mov	r8,sp
1000a664:	9dbff316 	blt	r19,r22,1000a634 <__alt_data_end+0xf800a634>
1000a668:	d9412617 	ldw	r5,1176(sp)
1000a66c:	1d87883a 	add	r3,r3,r22
1000a670:	45800115 	stw	r22,4(r8)
1000a674:	41400015 	stw	r5,0(r8)
1000a678:	d8c11c15 	stw	r3,1136(sp)
1000a67c:	d9011b15 	stw	r4,1132(sp)
1000a680:	008001c4 	movi	r2,7
1000a684:	11008516 	blt	r2,r4,1000a89c <___vfiprintf_internal_r+0x1090>
1000a688:	42000204 	addi	r8,r8,8
1000a68c:	20800044 	addi	r2,r4,1
1000a690:	200b883a 	mov	r5,r4
1000a694:	003dfa06 	br	10009e80 <__alt_data_end+0xf8009e80>
1000a698:	d9012117 	ldw	r4,1156(sp)
1000a69c:	d9412017 	ldw	r5,1152(sp)
1000a6a0:	d9811a04 	addi	r6,sp,1128
1000a6a4:	da812a15 	stw	r10,1192(sp)
1000a6a8:	00096f80 	call	100096f8 <__sprint_r.part.0>
1000a6ac:	da812a17 	ldw	r10,1192(sp)
1000a6b0:	103f721e 	bne	r2,zero,1000a47c <__alt_data_end+0xf800a47c>
1000a6b4:	d9411b17 	ldw	r5,1132(sp)
1000a6b8:	d8c11c17 	ldw	r3,1136(sp)
1000a6bc:	d811883a 	mov	r8,sp
1000a6c0:	29000044 	addi	r4,r5,1
1000a6c4:	003fd906 	br	1000a62c <__alt_data_end+0xf800a62c>
1000a6c8:	1800681e 	bne	r3,zero,1000a86c <___vfiprintf_internal_r+0x1060>
1000a6cc:	50004d26 	beq	r10,zero,1000a804 <___vfiprintf_internal_r+0xff8>
1000a6d0:	d8811d04 	addi	r2,sp,1140
1000a6d4:	00c00084 	movi	r3,2
1000a6d8:	d8800015 	stw	r2,0(sp)
1000a6dc:	d8c00115 	stw	r3,4(sp)
1000a6e0:	2005883a 	mov	r2,r4
1000a6e4:	d811883a 	mov	r8,sp
1000a6e8:	003de006 	br	10009e6c <__alt_data_end+0xf8009e6c>
1000a6ec:	1800551e 	bne	r3,zero,1000a844 <___vfiprintf_internal_r+0x1038>
1000a6f0:	000b883a 	mov	r5,zero
1000a6f4:	00800044 	movi	r2,1
1000a6f8:	d811883a 	mov	r8,sp
1000a6fc:	003dde06 	br	10009e78 <__alt_data_end+0xf8009e78>
1000a700:	10803fcc 	andi	r2,r2,255
1000a704:	1000191e 	bne	r2,zero,1000a76c <___vfiprintf_internal_r+0xf60>
1000a708:	9080004c 	andi	r2,r18,1
1000a70c:	10001726 	beq	r2,zero,1000a76c <___vfiprintf_internal_r+0xf60>
1000a710:	00800c04 	movi	r2,48
1000a714:	d8c109c4 	addi	r3,sp,1063
1000a718:	d88109c5 	stb	r2,1063(sp)
1000a71c:	dd012817 	ldw	r20,1184(sp)
1000a720:	d8c12215 	stw	r3,1160(sp)
1000a724:	003d8a06 	br	10009d50 <__alt_data_end+0xf8009d50>
1000a728:	d9012717 	ldw	r4,1180(sp)
1000a72c:	dd010a04 	addi	r20,sp,1064
1000a730:	988003cc 	andi	r2,r19,15
1000a734:	a806973a 	slli	r3,r21,28
1000a738:	2085883a 	add	r2,r4,r2
1000a73c:	9826d13a 	srli	r19,r19,4
1000a740:	10800003 	ldbu	r2,0(r2)
1000a744:	a82ad13a 	srli	r21,r21,4
1000a748:	a53fffc4 	addi	r20,r20,-1
1000a74c:	1ce6b03a 	or	r19,r3,r19
1000a750:	a0800005 	stb	r2,0(r20)
1000a754:	9d44b03a 	or	r2,r19,r21
1000a758:	103ff51e 	bne	r2,zero,1000a730 <__alt_data_end+0xf800a730>
1000a75c:	d9411e17 	ldw	r5,1144(sp)
1000a760:	dd012215 	stw	r20,1160(sp)
1000a764:	2d29c83a 	sub	r20,r5,r20
1000a768:	003d7906 	br	10009d50 <__alt_data_end+0xf8009d50>
1000a76c:	d8c10a04 	addi	r3,sp,1064
1000a770:	d8c12215 	stw	r3,1160(sp)
1000a774:	003d7606 	br	10009d50 <__alt_data_end+0xf8009d50>
1000a778:	18009e1e 	bne	r3,zero,1000a9f4 <___vfiprintf_internal_r+0x11e8>
1000a77c:	d8811d87 	ldb	r2,1142(sp)
1000a780:	10005f26 	beq	r2,zero,1000a900 <___vfiprintf_internal_r+0x10f4>
1000a784:	00c00044 	movi	r3,1
1000a788:	d9011d84 	addi	r4,sp,1142
1000a78c:	1805883a 	mov	r2,r3
1000a790:	d9000015 	stw	r4,0(sp)
1000a794:	d8c00115 	stw	r3,4(sp)
1000a798:	d811883a 	mov	r8,sp
1000a79c:	003efc06 	br	1000a390 <__alt_data_end+0xf800a390>
1000a7a0:	d9412417 	ldw	r5,1168(sp)
1000a7a4:	d811883a 	mov	r8,sp
1000a7a8:	2d65c83a 	sub	r18,r5,r21
1000a7ac:	04bf4816 	blt	zero,r18,1000a4d0 <__alt_data_end+0xf800a4d0>
1000a7b0:	003f6c06 	br	1000a564 <__alt_data_end+0xf800a564>
1000a7b4:	b829883a 	mov	r20,r23
1000a7b8:	003c6906 	br	10009960 <__alt_data_end+0xf8009960>
1000a7bc:	d9012117 	ldw	r4,1156(sp)
1000a7c0:	d9412017 	ldw	r5,1152(sp)
1000a7c4:	d9811a04 	addi	r6,sp,1128
1000a7c8:	00096f80 	call	100096f8 <__sprint_r.part.0>
1000a7cc:	103f2b1e 	bne	r2,zero,1000a47c <__alt_data_end+0xf800a47c>
1000a7d0:	d8c11c17 	ldw	r3,1136(sp)
1000a7d4:	d811883a 	mov	r8,sp
1000a7d8:	003f3806 	br	1000a4bc <__alt_data_end+0xf800a4bc>
1000a7dc:	00800084 	movi	r2,2
1000a7e0:	9d46b03a 	or	r3,r19,r21
1000a7e4:	003df606 	br	10009fc0 <__alt_data_end+0xf8009fc0>
1000a7e8:	d9012117 	ldw	r4,1156(sp)
1000a7ec:	d9412017 	ldw	r5,1152(sp)
1000a7f0:	d9811a04 	addi	r6,sp,1128
1000a7f4:	00096f80 	call	100096f8 <__sprint_r.part.0>
1000a7f8:	103f201e 	bne	r2,zero,1000a47c <__alt_data_end+0xf800a47c>
1000a7fc:	d811883a 	mov	r8,sp
1000a800:	003cc606 	br	10009b1c <__alt_data_end+0xf8009b1c>
1000a804:	000b883a 	mov	r5,zero
1000a808:	2005883a 	mov	r2,r4
1000a80c:	d811883a 	mov	r8,sp
1000a810:	003d9906 	br	10009e78 <__alt_data_end+0xf8009e78>
1000a814:	10803fcc 	andi	r2,r2,255
1000a818:	1080201c 	xori	r2,r2,128
1000a81c:	10bfe004 	addi	r2,r2,-128
1000a820:	01000c04 	movi	r4,48
1000a824:	1100b226 	beq	r2,r4,1000aaf0 <___vfiprintf_internal_r+0x12e4>
1000a828:	d9412217 	ldw	r5,1160(sp)
1000a82c:	d8811e17 	ldw	r2,1144(sp)
1000a830:	193fffc5 	stb	r4,-1(r3)
1000a834:	297fffc4 	addi	r5,r5,-1
1000a838:	d9412215 	stw	r5,1160(sp)
1000a83c:	1169c83a 	sub	r20,r2,r5
1000a840:	003d4306 	br	10009d50 <__alt_data_end+0xf8009d50>
1000a844:	d9012117 	ldw	r4,1156(sp)
1000a848:	d9412017 	ldw	r5,1152(sp)
1000a84c:	d9811a04 	addi	r6,sp,1128
1000a850:	00096f80 	call	100096f8 <__sprint_r.part.0>
1000a854:	103f091e 	bne	r2,zero,1000a47c <__alt_data_end+0xf800a47c>
1000a858:	d9411b17 	ldw	r5,1132(sp)
1000a85c:	d8c11c17 	ldw	r3,1136(sp)
1000a860:	d811883a 	mov	r8,sp
1000a864:	28800044 	addi	r2,r5,1
1000a868:	003d8306 	br	10009e78 <__alt_data_end+0xf8009e78>
1000a86c:	d9012117 	ldw	r4,1156(sp)
1000a870:	d9412017 	ldw	r5,1152(sp)
1000a874:	d9811a04 	addi	r6,sp,1128
1000a878:	da812a15 	stw	r10,1192(sp)
1000a87c:	00096f80 	call	100096f8 <__sprint_r.part.0>
1000a880:	da812a17 	ldw	r10,1192(sp)
1000a884:	103efd1e 	bne	r2,zero,1000a47c <__alt_data_end+0xf800a47c>
1000a888:	d9411b17 	ldw	r5,1132(sp)
1000a88c:	d8c11c17 	ldw	r3,1136(sp)
1000a890:	d811883a 	mov	r8,sp
1000a894:	28800044 	addi	r2,r5,1
1000a898:	003d6a06 	br	10009e44 <__alt_data_end+0xf8009e44>
1000a89c:	1800a01e 	bne	r3,zero,1000ab20 <___vfiprintf_internal_r+0x1314>
1000a8a0:	000b883a 	mov	r5,zero
1000a8a4:	00800044 	movi	r2,1
1000a8a8:	d811883a 	mov	r8,sp
1000a8ac:	003d7406 	br	10009e80 <__alt_data_end+0xf8009e80>
1000a8b0:	d9012117 	ldw	r4,1156(sp)
1000a8b4:	d9412017 	ldw	r5,1152(sp)
1000a8b8:	d9811a04 	addi	r6,sp,1128
1000a8bc:	00096f80 	call	100096f8 <__sprint_r.part.0>
1000a8c0:	103eee1e 	bne	r2,zero,1000a47c <__alt_data_end+0xf800a47c>
1000a8c4:	d8811b17 	ldw	r2,1132(sp)
1000a8c8:	d8c11c17 	ldw	r3,1136(sp)
1000a8cc:	d811883a 	mov	r8,sp
1000a8d0:	10800044 	addi	r2,r2,1
1000a8d4:	003d8f06 	br	10009f14 <__alt_data_end+0xf8009f14>
1000a8d8:	04e7c83a 	sub	r19,zero,r19
1000a8dc:	9804c03a 	cmpne	r2,r19,zero
1000a8e0:	056bc83a 	sub	r21,zero,r21
1000a8e4:	a8abc83a 	sub	r21,r21,r2
1000a8e8:	05800b44 	movi	r22,45
1000a8ec:	dd811d85 	stb	r22,1142(sp)
1000a8f0:	8029883a 	mov	r20,r16
1000a8f4:	00800044 	movi	r2,1
1000a8f8:	9d46b03a 	or	r3,r19,r21
1000a8fc:	003cfa06 	br	10009ce8 <__alt_data_end+0xf8009ce8>
1000a900:	000b883a 	mov	r5,zero
1000a904:	00800044 	movi	r2,1
1000a908:	d811883a 	mov	r8,sp
1000a90c:	503d5a26 	beq	r10,zero,10009e78 <__alt_data_end+0xf8009e78>
1000a910:	00c00084 	movi	r3,2
1000a914:	d9011d04 	addi	r4,sp,1140
1000a918:	d9000015 	stw	r4,0(sp)
1000a91c:	d8c00115 	stw	r3,4(sp)
1000a920:	003d5206 	br	10009e6c <__alt_data_end+0xf8009e6c>
1000a924:	9080040c 	andi	r2,r18,16
1000a928:	1000421e 	bne	r2,zero,1000aa34 <___vfiprintf_internal_r+0x1228>
1000a92c:	9480100c 	andi	r18,r18,64
1000a930:	90009c26 	beq	r18,zero,1000aba4 <___vfiprintf_internal_r+0x1398>
1000a934:	d9412317 	ldw	r5,1164(sp)
1000a938:	d8c12517 	ldw	r3,1172(sp)
1000a93c:	28800017 	ldw	r2,0(r5)
1000a940:	29400104 	addi	r5,r5,4
1000a944:	d9412315 	stw	r5,1164(sp)
1000a948:	10c0000d 	sth	r3,0(r2)
1000a94c:	003be706 	br	100098ec <__alt_data_end+0xf80098ec>
1000a950:	90c0100c 	andi	r3,r18,64
1000a954:	18003e26 	beq	r3,zero,1000aa50 <___vfiprintf_internal_r+0x1244>
1000a958:	d8c12317 	ldw	r3,1164(sp)
1000a95c:	14c0000b 	ldhu	r19,0(r2)
1000a960:	002b883a 	mov	r21,zero
1000a964:	18c00104 	addi	r3,r3,4
1000a968:	d8c12315 	stw	r3,1164(sp)
1000a96c:	003db706 	br	1000a04c <__alt_data_end+0xf800a04c>
1000a970:	9080100c 	andi	r2,r18,64
1000a974:	10004c26 	beq	r2,zero,1000aaa8 <___vfiprintf_internal_r+0x129c>
1000a978:	1cc0000f 	ldh	r19,0(r3)
1000a97c:	d8812317 	ldw	r2,1164(sp)
1000a980:	982bd7fa 	srai	r21,r19,31
1000a984:	10800104 	addi	r2,r2,4
1000a988:	d8812315 	stw	r2,1164(sp)
1000a98c:	a805883a 	mov	r2,r21
1000a990:	003cd006 	br	10009cd4 <__alt_data_end+0xf8009cd4>
1000a994:	00800084 	movi	r2,2
1000a998:	003d8906 	br	10009fc0 <__alt_data_end+0xf8009fc0>
1000a99c:	b9800007 	ldb	r6,0(r23)
1000a9a0:	003bfb06 	br	10009990 <__alt_data_end+0xf8009990>
1000a9a4:	9080100c 	andi	r2,r18,64
1000a9a8:	10003726 	beq	r2,zero,1000aa88 <___vfiprintf_internal_r+0x127c>
1000a9ac:	d9412317 	ldw	r5,1164(sp)
1000a9b0:	002b883a 	mov	r21,zero
1000a9b4:	0005883a 	mov	r2,zero
1000a9b8:	2cc0000b 	ldhu	r19,0(r5)
1000a9bc:	29400104 	addi	r5,r5,4
1000a9c0:	d9412315 	stw	r5,1164(sp)
1000a9c4:	9807883a 	mov	r3,r19
1000a9c8:	003d7d06 	br	10009fc0 <__alt_data_end+0xf8009fc0>
1000a9cc:	9080100c 	andi	r2,r18,64
1000a9d0:	10002526 	beq	r2,zero,1000aa68 <___vfiprintf_internal_r+0x125c>
1000a9d4:	d8812317 	ldw	r2,1164(sp)
1000a9d8:	002b883a 	mov	r21,zero
1000a9dc:	14c0000b 	ldhu	r19,0(r2)
1000a9e0:	10800104 	addi	r2,r2,4
1000a9e4:	d8812315 	stw	r2,1164(sp)
1000a9e8:	9807883a 	mov	r3,r19
1000a9ec:	00800044 	movi	r2,1
1000a9f0:	003d7306 	br	10009fc0 <__alt_data_end+0xf8009fc0>
1000a9f4:	d9012117 	ldw	r4,1156(sp)
1000a9f8:	d9412017 	ldw	r5,1152(sp)
1000a9fc:	d9811a04 	addi	r6,sp,1128
1000aa00:	da812a15 	stw	r10,1192(sp)
1000aa04:	00096f80 	call	100096f8 <__sprint_r.part.0>
1000aa08:	da812a17 	ldw	r10,1192(sp)
1000aa0c:	103e9b1e 	bne	r2,zero,1000a47c <__alt_data_end+0xf800a47c>
1000aa10:	d9411b17 	ldw	r5,1132(sp)
1000aa14:	d8c11c17 	ldw	r3,1136(sp)
1000aa18:	d811883a 	mov	r8,sp
1000aa1c:	28800044 	addi	r2,r5,1
1000aa20:	003e5006 	br	1000a364 <__alt_data_end+0xf800a364>
1000aa24:	182b883a 	mov	r21,r3
1000aa28:	003ed006 	br	1000a56c <__alt_data_end+0xf800a56c>
1000aa2c:	8029883a 	mov	r20,r16
1000aa30:	003dc606 	br	1000a14c <__alt_data_end+0xf800a14c>
1000aa34:	d8c12317 	ldw	r3,1164(sp)
1000aa38:	d9012517 	ldw	r4,1172(sp)
1000aa3c:	18800017 	ldw	r2,0(r3)
1000aa40:	18c00104 	addi	r3,r3,4
1000aa44:	d8c12315 	stw	r3,1164(sp)
1000aa48:	11000015 	stw	r4,0(r2)
1000aa4c:	003ba706 	br	100098ec <__alt_data_end+0xf80098ec>
1000aa50:	d9012317 	ldw	r4,1164(sp)
1000aa54:	14c00017 	ldw	r19,0(r2)
1000aa58:	002b883a 	mov	r21,zero
1000aa5c:	21000104 	addi	r4,r4,4
1000aa60:	d9012315 	stw	r4,1164(sp)
1000aa64:	003d7906 	br	1000a04c <__alt_data_end+0xf800a04c>
1000aa68:	d8c12317 	ldw	r3,1164(sp)
1000aa6c:	002b883a 	mov	r21,zero
1000aa70:	00800044 	movi	r2,1
1000aa74:	1cc00017 	ldw	r19,0(r3)
1000aa78:	18c00104 	addi	r3,r3,4
1000aa7c:	d8c12315 	stw	r3,1164(sp)
1000aa80:	9807883a 	mov	r3,r19
1000aa84:	003d4e06 	br	10009fc0 <__alt_data_end+0xf8009fc0>
1000aa88:	d8812317 	ldw	r2,1164(sp)
1000aa8c:	002b883a 	mov	r21,zero
1000aa90:	14c00017 	ldw	r19,0(r2)
1000aa94:	10800104 	addi	r2,r2,4
1000aa98:	d8812315 	stw	r2,1164(sp)
1000aa9c:	9807883a 	mov	r3,r19
1000aaa0:	0005883a 	mov	r2,zero
1000aaa4:	003d4606 	br	10009fc0 <__alt_data_end+0xf8009fc0>
1000aaa8:	1cc00017 	ldw	r19,0(r3)
1000aaac:	d8c12317 	ldw	r3,1164(sp)
1000aab0:	982bd7fa 	srai	r21,r19,31
1000aab4:	18c00104 	addi	r3,r3,4
1000aab8:	d8c12315 	stw	r3,1164(sp)
1000aabc:	a805883a 	mov	r2,r21
1000aac0:	003c8406 	br	10009cd4 <__alt_data_end+0xf8009cd4>
1000aac4:	01040074 	movhi	r4,4097
1000aac8:	21073704 	addi	r4,r4,7388
1000aacc:	d9012615 	stw	r4,1176(sp)
1000aad0:	003d0606 	br	10009eec <__alt_data_end+0xf8009eec>
1000aad4:	b9800043 	ldbu	r6,1(r23)
1000aad8:	94800814 	ori	r18,r18,32
1000aadc:	bdc00044 	addi	r23,r23,1
1000aae0:	31803fcc 	andi	r6,r6,255
1000aae4:	3180201c 	xori	r6,r6,128
1000aae8:	31bfe004 	addi	r6,r6,-128
1000aaec:	003ba806 	br	10009990 <__alt_data_end+0xf8009990>
1000aaf0:	d8811e17 	ldw	r2,1144(sp)
1000aaf4:	d8c12217 	ldw	r3,1160(sp)
1000aaf8:	10e9c83a 	sub	r20,r2,r3
1000aafc:	003c9406 	br	10009d50 <__alt_data_end+0xf8009d50>
1000ab00:	da012a15 	stw	r8,1192(sp)
1000ab04:	000231c0 	call	1000231c <strlen>
1000ab08:	1029883a 	mov	r20,r2
1000ab0c:	dd811d83 	ldbu	r22,1142(sp)
1000ab10:	dcc12315 	stw	r19,1164(sp)
1000ab14:	0021883a 	mov	r16,zero
1000ab18:	da012a17 	ldw	r8,1192(sp)
1000ab1c:	003c8c06 	br	10009d50 <__alt_data_end+0xf8009d50>
1000ab20:	d9012117 	ldw	r4,1156(sp)
1000ab24:	d9412017 	ldw	r5,1152(sp)
1000ab28:	d9811a04 	addi	r6,sp,1128
1000ab2c:	00096f80 	call	100096f8 <__sprint_r.part.0>
1000ab30:	103e521e 	bne	r2,zero,1000a47c <__alt_data_end+0xf800a47c>
1000ab34:	d9411b17 	ldw	r5,1132(sp)
1000ab38:	d8c11c17 	ldw	r3,1136(sp)
1000ab3c:	d811883a 	mov	r8,sp
1000ab40:	28800044 	addi	r2,r5,1
1000ab44:	003cce06 	br	10009e80 <__alt_data_end+0xf8009e80>
1000ab48:	01440074 	movhi	r5,4097
1000ab4c:	29473b04 	addi	r5,r5,7404
1000ab50:	d9412615 	stw	r5,1176(sp)
1000ab54:	d9411b17 	ldw	r5,1132(sp)
1000ab58:	29400044 	addi	r5,r5,1
1000ab5c:	003cad06 	br	10009e14 <__alt_data_end+0xf8009e14>
1000ab60:	00800184 	movi	r2,6
1000ab64:	1400012e 	bgeu	r2,r16,1000ab6c <___vfiprintf_internal_r+0x1360>
1000ab68:	1021883a 	mov	r16,r2
1000ab6c:	8029883a 	mov	r20,r16
1000ab70:	802b883a 	mov	r21,r16
1000ab74:	80001c16 	blt	r16,zero,1000abe8 <___vfiprintf_internal_r+0x13dc>
1000ab78:	00c40074 	movhi	r3,4097
1000ab7c:	18c6db04 	addi	r3,r3,7020
1000ab80:	dcc12315 	stw	r19,1164(sp)
1000ab84:	d8c12215 	stw	r3,1160(sp)
1000ab88:	003cff06 	br	10009f88 <__alt_data_end+0xf8009f88>
1000ab8c:	d9411b17 	ldw	r5,1132(sp)
1000ab90:	00840074 	movhi	r2,4097
1000ab94:	10873b04 	addi	r2,r2,7404
1000ab98:	d8812615 	stw	r2,1176(sp)
1000ab9c:	29400044 	addi	r5,r5,1
1000aba0:	003e6706 	br	1000a540 <__alt_data_end+0xf800a540>
1000aba4:	d9012317 	ldw	r4,1164(sp)
1000aba8:	d9412517 	ldw	r5,1172(sp)
1000abac:	20800017 	ldw	r2,0(r4)
1000abb0:	21000104 	addi	r4,r4,4
1000abb4:	d9012315 	stw	r4,1164(sp)
1000abb8:	11400015 	stw	r5,0(r2)
1000abbc:	003b4b06 	br	100098ec <__alt_data_end+0xf80098ec>
1000abc0:	8029883a 	mov	r20,r16
1000abc4:	dd811d83 	ldbu	r22,1142(sp)
1000abc8:	dcc12315 	stw	r19,1164(sp)
1000abcc:	0021883a 	mov	r16,zero
1000abd0:	003c5f06 	br	10009d50 <__alt_data_end+0xf8009d50>
1000abd4:	01040074 	movhi	r4,4097
1000abd8:	21073704 	addi	r4,r4,7388
1000abdc:	d9012615 	stw	r4,1176(sp)
1000abe0:	1009883a 	mov	r4,r2
1000abe4:	003ea006 	br	1000a668 <__alt_data_end+0xf800a668>
1000abe8:	002b883a 	mov	r21,zero
1000abec:	003fe206 	br	1000ab78 <__alt_data_end+0xf800ab78>
1000abf0:	d9412317 	ldw	r5,1164(sp)
1000abf4:	b807883a 	mov	r3,r23
1000abf8:	102f883a 	mov	r23,r2
1000abfc:	2c000017 	ldw	r16,0(r5)
1000ac00:	29000104 	addi	r4,r5,4
1000ac04:	d9012315 	stw	r4,1164(sp)
1000ac08:	80000416 	blt	r16,zero,1000ac1c <___vfiprintf_internal_r+0x1410>
1000ac0c:	19800047 	ldb	r6,1(r3)
1000ac10:	003b5f06 	br	10009990 <__alt_data_end+0xf8009990>
1000ac14:	043fffc4 	movi	r16,-1
1000ac18:	003bef06 	br	10009bd8 <__alt_data_end+0xf8009bd8>
1000ac1c:	043fffc4 	movi	r16,-1
1000ac20:	19800047 	ldb	r6,1(r3)
1000ac24:	003b5a06 	br	10009990 <__alt_data_end+0xf8009990>
1000ac28:	282b883a 	mov	r21,r5
1000ac2c:	003cc706 	br	10009f4c <__alt_data_end+0xf8009f4c>

1000ac30 <__vfiprintf_internal>:
1000ac30:	2007883a 	mov	r3,r4
1000ac34:	01040074 	movhi	r4,4097
1000ac38:	210e3904 	addi	r4,r4,14564
1000ac3c:	21000017 	ldw	r4,0(r4)
1000ac40:	2805883a 	mov	r2,r5
1000ac44:	300f883a 	mov	r7,r6
1000ac48:	180b883a 	mov	r5,r3
1000ac4c:	100d883a 	mov	r6,r2
1000ac50:	000980c1 	jmpi	1000980c <___vfiprintf_internal_r>

1000ac54 <_write_r>:
1000ac54:	defffd04 	addi	sp,sp,-12
1000ac58:	dc000015 	stw	r16,0(sp)
1000ac5c:	04040074 	movhi	r16,4097
1000ac60:	dc400115 	stw	r17,4(sp)
1000ac64:	84150b04 	addi	r16,r16,21548
1000ac68:	2023883a 	mov	r17,r4
1000ac6c:	2809883a 	mov	r4,r5
1000ac70:	300b883a 	mov	r5,r6
1000ac74:	380d883a 	mov	r6,r7
1000ac78:	dfc00215 	stw	ra,8(sp)
1000ac7c:	80000015 	stw	zero,0(r16)
1000ac80:	000f4700 	call	1000f470 <write>
1000ac84:	00ffffc4 	movi	r3,-1
1000ac88:	10c00526 	beq	r2,r3,1000aca0 <_write_r+0x4c>
1000ac8c:	dfc00217 	ldw	ra,8(sp)
1000ac90:	dc400117 	ldw	r17,4(sp)
1000ac94:	dc000017 	ldw	r16,0(sp)
1000ac98:	dec00304 	addi	sp,sp,12
1000ac9c:	f800283a 	ret
1000aca0:	80c00017 	ldw	r3,0(r16)
1000aca4:	183ff926 	beq	r3,zero,1000ac8c <__alt_data_end+0xf800ac8c>
1000aca8:	88c00015 	stw	r3,0(r17)
1000acac:	003ff706 	br	1000ac8c <__alt_data_end+0xf800ac8c>

1000acb0 <_close_r>:
1000acb0:	defffd04 	addi	sp,sp,-12
1000acb4:	dc000015 	stw	r16,0(sp)
1000acb8:	04040074 	movhi	r16,4097
1000acbc:	dc400115 	stw	r17,4(sp)
1000acc0:	84150b04 	addi	r16,r16,21548
1000acc4:	2023883a 	mov	r17,r4
1000acc8:	2809883a 	mov	r4,r5
1000accc:	dfc00215 	stw	ra,8(sp)
1000acd0:	80000015 	stw	zero,0(r16)
1000acd4:	000eb9c0 	call	1000eb9c <close>
1000acd8:	00ffffc4 	movi	r3,-1
1000acdc:	10c00526 	beq	r2,r3,1000acf4 <_close_r+0x44>
1000ace0:	dfc00217 	ldw	ra,8(sp)
1000ace4:	dc400117 	ldw	r17,4(sp)
1000ace8:	dc000017 	ldw	r16,0(sp)
1000acec:	dec00304 	addi	sp,sp,12
1000acf0:	f800283a 	ret
1000acf4:	80c00017 	ldw	r3,0(r16)
1000acf8:	183ff926 	beq	r3,zero,1000ace0 <__alt_data_end+0xf800ace0>
1000acfc:	88c00015 	stw	r3,0(r17)
1000ad00:	003ff706 	br	1000ace0 <__alt_data_end+0xf800ace0>

1000ad04 <_calloc_r>:
1000ad04:	defffe04 	addi	sp,sp,-8
1000ad08:	dc000015 	stw	r16,0(sp)
1000ad0c:	2021883a 	mov	r16,r4
1000ad10:	2809883a 	mov	r4,r5
1000ad14:	300b883a 	mov	r5,r6
1000ad18:	dfc00115 	stw	ra,4(sp)
1000ad1c:	000c3280 	call	1000c328 <__mulsi3>
1000ad20:	8009883a 	mov	r4,r16
1000ad24:	100b883a 	mov	r5,r2
1000ad28:	00072200 	call	10007220 <_malloc_r>
1000ad2c:	1021883a 	mov	r16,r2
1000ad30:	10002826 	beq	r2,zero,1000add4 <_calloc_r+0xd0>
1000ad34:	11bfff17 	ldw	r6,-4(r2)
1000ad38:	00bfff04 	movi	r2,-4
1000ad3c:	00c00904 	movi	r3,36
1000ad40:	308c703a 	and	r6,r6,r2
1000ad44:	308d883a 	add	r6,r6,r2
1000ad48:	19801436 	bltu	r3,r6,1000ad9c <_calloc_r+0x98>
1000ad4c:	008004c4 	movi	r2,19
1000ad50:	11800936 	bltu	r2,r6,1000ad78 <_calloc_r+0x74>
1000ad54:	8005883a 	mov	r2,r16
1000ad58:	10000015 	stw	zero,0(r2)
1000ad5c:	10000115 	stw	zero,4(r2)
1000ad60:	10000215 	stw	zero,8(r2)
1000ad64:	8005883a 	mov	r2,r16
1000ad68:	dfc00117 	ldw	ra,4(sp)
1000ad6c:	dc000017 	ldw	r16,0(sp)
1000ad70:	dec00204 	addi	sp,sp,8
1000ad74:	f800283a 	ret
1000ad78:	80000015 	stw	zero,0(r16)
1000ad7c:	80000115 	stw	zero,4(r16)
1000ad80:	008006c4 	movi	r2,27
1000ad84:	11800d2e 	bgeu	r2,r6,1000adbc <_calloc_r+0xb8>
1000ad88:	80000215 	stw	zero,8(r16)
1000ad8c:	80000315 	stw	zero,12(r16)
1000ad90:	30c00c26 	beq	r6,r3,1000adc4 <_calloc_r+0xc0>
1000ad94:	80800404 	addi	r2,r16,16
1000ad98:	003fef06 	br	1000ad58 <__alt_data_end+0xf800ad58>
1000ad9c:	8009883a 	mov	r4,r16
1000ada0:	000b883a 	mov	r5,zero
1000ada4:	0007d440 	call	10007d44 <memset>
1000ada8:	8005883a 	mov	r2,r16
1000adac:	dfc00117 	ldw	ra,4(sp)
1000adb0:	dc000017 	ldw	r16,0(sp)
1000adb4:	dec00204 	addi	sp,sp,8
1000adb8:	f800283a 	ret
1000adbc:	80800204 	addi	r2,r16,8
1000adc0:	003fe506 	br	1000ad58 <__alt_data_end+0xf800ad58>
1000adc4:	80000415 	stw	zero,16(r16)
1000adc8:	80800604 	addi	r2,r16,24
1000adcc:	80000515 	stw	zero,20(r16)
1000add0:	003fe106 	br	1000ad58 <__alt_data_end+0xf800ad58>
1000add4:	0005883a 	mov	r2,zero
1000add8:	003fe306 	br	1000ad68 <__alt_data_end+0xf800ad68>

1000addc <_fclose_r>:
1000addc:	28003226 	beq	r5,zero,1000aea8 <_fclose_r+0xcc>
1000ade0:	defffc04 	addi	sp,sp,-16
1000ade4:	dc400115 	stw	r17,4(sp)
1000ade8:	2023883a 	mov	r17,r4
1000adec:	dc000015 	stw	r16,0(sp)
1000adf0:	dfc00315 	stw	ra,12(sp)
1000adf4:	dc800215 	stw	r18,8(sp)
1000adf8:	2821883a 	mov	r16,r5
1000adfc:	00065200 	call	10006520 <__sfp_lock_acquire>
1000ae00:	88000226 	beq	r17,zero,1000ae0c <_fclose_r+0x30>
1000ae04:	88800e17 	ldw	r2,56(r17)
1000ae08:	10002926 	beq	r2,zero,1000aeb0 <_fclose_r+0xd4>
1000ae0c:	8080030f 	ldh	r2,12(r16)
1000ae10:	10002226 	beq	r2,zero,1000ae9c <_fclose_r+0xc0>
1000ae14:	8809883a 	mov	r4,r17
1000ae18:	800b883a 	mov	r5,r16
1000ae1c:	0005f540 	call	10005f54 <_fflush_r>
1000ae20:	1025883a 	mov	r18,r2
1000ae24:	80800b17 	ldw	r2,44(r16)
1000ae28:	10000426 	beq	r2,zero,1000ae3c <_fclose_r+0x60>
1000ae2c:	81400717 	ldw	r5,28(r16)
1000ae30:	8809883a 	mov	r4,r17
1000ae34:	103ee83a 	callr	r2
1000ae38:	10002616 	blt	r2,zero,1000aed4 <_fclose_r+0xf8>
1000ae3c:	8080030b 	ldhu	r2,12(r16)
1000ae40:	1080200c 	andi	r2,r2,128
1000ae44:	10001f1e 	bne	r2,zero,1000aec4 <_fclose_r+0xe8>
1000ae48:	81400c17 	ldw	r5,48(r16)
1000ae4c:	28000526 	beq	r5,zero,1000ae64 <_fclose_r+0x88>
1000ae50:	80801004 	addi	r2,r16,64
1000ae54:	28800226 	beq	r5,r2,1000ae60 <_fclose_r+0x84>
1000ae58:	8809883a 	mov	r4,r17
1000ae5c:	00066840 	call	10006684 <_free_r>
1000ae60:	80000c15 	stw	zero,48(r16)
1000ae64:	81401117 	ldw	r5,68(r16)
1000ae68:	28000326 	beq	r5,zero,1000ae78 <_fclose_r+0x9c>
1000ae6c:	8809883a 	mov	r4,r17
1000ae70:	00066840 	call	10006684 <_free_r>
1000ae74:	80001115 	stw	zero,68(r16)
1000ae78:	8000030d 	sth	zero,12(r16)
1000ae7c:	00065240 	call	10006524 <__sfp_lock_release>
1000ae80:	9005883a 	mov	r2,r18
1000ae84:	dfc00317 	ldw	ra,12(sp)
1000ae88:	dc800217 	ldw	r18,8(sp)
1000ae8c:	dc400117 	ldw	r17,4(sp)
1000ae90:	dc000017 	ldw	r16,0(sp)
1000ae94:	dec00404 	addi	sp,sp,16
1000ae98:	f800283a 	ret
1000ae9c:	00065240 	call	10006524 <__sfp_lock_release>
1000aea0:	0005883a 	mov	r2,zero
1000aea4:	003ff706 	br	1000ae84 <__alt_data_end+0xf800ae84>
1000aea8:	0005883a 	mov	r2,zero
1000aeac:	f800283a 	ret
1000aeb0:	8809883a 	mov	r4,r17
1000aeb4:	00065100 	call	10006510 <__sinit>
1000aeb8:	8080030f 	ldh	r2,12(r16)
1000aebc:	103fd51e 	bne	r2,zero,1000ae14 <__alt_data_end+0xf800ae14>
1000aec0:	003ff606 	br	1000ae9c <__alt_data_end+0xf800ae9c>
1000aec4:	81400417 	ldw	r5,16(r16)
1000aec8:	8809883a 	mov	r4,r17
1000aecc:	00066840 	call	10006684 <_free_r>
1000aed0:	003fdd06 	br	1000ae48 <__alt_data_end+0xf800ae48>
1000aed4:	04bfffc4 	movi	r18,-1
1000aed8:	003fd806 	br	1000ae3c <__alt_data_end+0xf800ae3c>

1000aedc <fclose>:
1000aedc:	00840074 	movhi	r2,4097
1000aee0:	108e3904 	addi	r2,r2,14564
1000aee4:	200b883a 	mov	r5,r4
1000aee8:	11000017 	ldw	r4,0(r2)
1000aeec:	000addc1 	jmpi	1000addc <_fclose_r>

1000aef0 <_fputwc_r>:
1000aef0:	3080030b 	ldhu	r2,12(r6)
1000aef4:	defff804 	addi	sp,sp,-32
1000aef8:	dcc00415 	stw	r19,16(sp)
1000aefc:	dc800315 	stw	r18,12(sp)
1000af00:	dc000115 	stw	r16,4(sp)
1000af04:	dfc00715 	stw	ra,28(sp)
1000af08:	dd400615 	stw	r21,24(sp)
1000af0c:	dd000515 	stw	r20,20(sp)
1000af10:	dc400215 	stw	r17,8(sp)
1000af14:	10c8000c 	andi	r3,r2,8192
1000af18:	3021883a 	mov	r16,r6
1000af1c:	2027883a 	mov	r19,r4
1000af20:	2825883a 	mov	r18,r5
1000af24:	1800051e 	bne	r3,zero,1000af3c <_fputwc_r+0x4c>
1000af28:	30c01917 	ldw	r3,100(r6)
1000af2c:	10880014 	ori	r2,r2,8192
1000af30:	3080030d 	sth	r2,12(r6)
1000af34:	18880014 	ori	r2,r3,8192
1000af38:	30801915 	stw	r2,100(r6)
1000af3c:	00070100 	call	10007010 <__locale_mb_cur_max>
1000af40:	00c00044 	movi	r3,1
1000af44:	10c03e26 	beq	r2,r3,1000b040 <_fputwc_r+0x150>
1000af48:	9809883a 	mov	r4,r19
1000af4c:	d80b883a 	mov	r5,sp
1000af50:	900d883a 	mov	r6,r18
1000af54:	81c01704 	addi	r7,r16,92
1000af58:	000b3a00 	call	1000b3a0 <_wcrtomb_r>
1000af5c:	1029883a 	mov	r20,r2
1000af60:	00bfffc4 	movi	r2,-1
1000af64:	a0802026 	beq	r20,r2,1000afe8 <_fputwc_r+0xf8>
1000af68:	d9400003 	ldbu	r5,0(sp)
1000af6c:	a0001c26 	beq	r20,zero,1000afe0 <_fputwc_r+0xf0>
1000af70:	0023883a 	mov	r17,zero
1000af74:	05400284 	movi	r21,10
1000af78:	00000906 	br	1000afa0 <_fputwc_r+0xb0>
1000af7c:	80800017 	ldw	r2,0(r16)
1000af80:	11400005 	stb	r5,0(r2)
1000af84:	80c00017 	ldw	r3,0(r16)
1000af88:	18c00044 	addi	r3,r3,1
1000af8c:	80c00015 	stw	r3,0(r16)
1000af90:	8c400044 	addi	r17,r17,1
1000af94:	dc45883a 	add	r2,sp,r17
1000af98:	8d00112e 	bgeu	r17,r20,1000afe0 <_fputwc_r+0xf0>
1000af9c:	11400003 	ldbu	r5,0(r2)
1000afa0:	80c00217 	ldw	r3,8(r16)
1000afa4:	18ffffc4 	addi	r3,r3,-1
1000afa8:	80c00215 	stw	r3,8(r16)
1000afac:	183ff30e 	bge	r3,zero,1000af7c <__alt_data_end+0xf800af7c>
1000afb0:	80800617 	ldw	r2,24(r16)
1000afb4:	18801916 	blt	r3,r2,1000b01c <_fputwc_r+0x12c>
1000afb8:	80800017 	ldw	r2,0(r16)
1000afbc:	11400005 	stb	r5,0(r2)
1000afc0:	80800017 	ldw	r2,0(r16)
1000afc4:	10c00003 	ldbu	r3,0(r2)
1000afc8:	10800044 	addi	r2,r2,1
1000afcc:	1d402326 	beq	r3,r21,1000b05c <_fputwc_r+0x16c>
1000afd0:	80800015 	stw	r2,0(r16)
1000afd4:	8c400044 	addi	r17,r17,1
1000afd8:	dc45883a 	add	r2,sp,r17
1000afdc:	8d3fef36 	bltu	r17,r20,1000af9c <__alt_data_end+0xf800af9c>
1000afe0:	9005883a 	mov	r2,r18
1000afe4:	00000406 	br	1000aff8 <_fputwc_r+0x108>
1000afe8:	80c0030b 	ldhu	r3,12(r16)
1000afec:	a005883a 	mov	r2,r20
1000aff0:	18c01014 	ori	r3,r3,64
1000aff4:	80c0030d 	sth	r3,12(r16)
1000aff8:	dfc00717 	ldw	ra,28(sp)
1000affc:	dd400617 	ldw	r21,24(sp)
1000b000:	dd000517 	ldw	r20,20(sp)
1000b004:	dcc00417 	ldw	r19,16(sp)
1000b008:	dc800317 	ldw	r18,12(sp)
1000b00c:	dc400217 	ldw	r17,8(sp)
1000b010:	dc000117 	ldw	r16,4(sp)
1000b014:	dec00804 	addi	sp,sp,32
1000b018:	f800283a 	ret
1000b01c:	9809883a 	mov	r4,r19
1000b020:	29403fcc 	andi	r5,r5,255
1000b024:	800d883a 	mov	r6,r16
1000b028:	000b2300 	call	1000b230 <__swbuf_r>
1000b02c:	10bfffe0 	cmpeqi	r2,r2,-1
1000b030:	10803fcc 	andi	r2,r2,255
1000b034:	103fd626 	beq	r2,zero,1000af90 <__alt_data_end+0xf800af90>
1000b038:	00bfffc4 	movi	r2,-1
1000b03c:	003fee06 	br	1000aff8 <__alt_data_end+0xf800aff8>
1000b040:	90ffffc4 	addi	r3,r18,-1
1000b044:	01003f84 	movi	r4,254
1000b048:	20ffbf36 	bltu	r4,r3,1000af48 <__alt_data_end+0xf800af48>
1000b04c:	900b883a 	mov	r5,r18
1000b050:	dc800005 	stb	r18,0(sp)
1000b054:	1029883a 	mov	r20,r2
1000b058:	003fc506 	br	1000af70 <__alt_data_end+0xf800af70>
1000b05c:	9809883a 	mov	r4,r19
1000b060:	a80b883a 	mov	r5,r21
1000b064:	800d883a 	mov	r6,r16
1000b068:	000b2300 	call	1000b230 <__swbuf_r>
1000b06c:	10bfffe0 	cmpeqi	r2,r2,-1
1000b070:	003fef06 	br	1000b030 <__alt_data_end+0xf800b030>

1000b074 <fputwc>:
1000b074:	defffc04 	addi	sp,sp,-16
1000b078:	dc000115 	stw	r16,4(sp)
1000b07c:	04040074 	movhi	r16,4097
1000b080:	840e3904 	addi	r16,r16,14564
1000b084:	dc400215 	stw	r17,8(sp)
1000b088:	2023883a 	mov	r17,r4
1000b08c:	81000017 	ldw	r4,0(r16)
1000b090:	dfc00315 	stw	ra,12(sp)
1000b094:	280d883a 	mov	r6,r5
1000b098:	20000626 	beq	r4,zero,1000b0b4 <fputwc+0x40>
1000b09c:	20800e17 	ldw	r2,56(r4)
1000b0a0:	1000041e 	bne	r2,zero,1000b0b4 <fputwc+0x40>
1000b0a4:	d9400015 	stw	r5,0(sp)
1000b0a8:	00065100 	call	10006510 <__sinit>
1000b0ac:	81000017 	ldw	r4,0(r16)
1000b0b0:	d9800017 	ldw	r6,0(sp)
1000b0b4:	880b883a 	mov	r5,r17
1000b0b8:	dfc00317 	ldw	ra,12(sp)
1000b0bc:	dc400217 	ldw	r17,8(sp)
1000b0c0:	dc000117 	ldw	r16,4(sp)
1000b0c4:	dec00404 	addi	sp,sp,16
1000b0c8:	000aef01 	jmpi	1000aef0 <_fputwc_r>

1000b0cc <_fstat_r>:
1000b0cc:	defffd04 	addi	sp,sp,-12
1000b0d0:	dc000015 	stw	r16,0(sp)
1000b0d4:	04040074 	movhi	r16,4097
1000b0d8:	dc400115 	stw	r17,4(sp)
1000b0dc:	84150b04 	addi	r16,r16,21548
1000b0e0:	2023883a 	mov	r17,r4
1000b0e4:	2809883a 	mov	r4,r5
1000b0e8:	300b883a 	mov	r5,r6
1000b0ec:	dfc00215 	stw	ra,8(sp)
1000b0f0:	80000015 	stw	zero,0(r16)
1000b0f4:	000ecf00 	call	1000ecf0 <fstat>
1000b0f8:	00ffffc4 	movi	r3,-1
1000b0fc:	10c00526 	beq	r2,r3,1000b114 <_fstat_r+0x48>
1000b100:	dfc00217 	ldw	ra,8(sp)
1000b104:	dc400117 	ldw	r17,4(sp)
1000b108:	dc000017 	ldw	r16,0(sp)
1000b10c:	dec00304 	addi	sp,sp,12
1000b110:	f800283a 	ret
1000b114:	80c00017 	ldw	r3,0(r16)
1000b118:	183ff926 	beq	r3,zero,1000b100 <__alt_data_end+0xf800b100>
1000b11c:	88c00015 	stw	r3,0(r17)
1000b120:	003ff706 	br	1000b100 <__alt_data_end+0xf800b100>

1000b124 <_isatty_r>:
1000b124:	defffd04 	addi	sp,sp,-12
1000b128:	dc000015 	stw	r16,0(sp)
1000b12c:	04040074 	movhi	r16,4097
1000b130:	dc400115 	stw	r17,4(sp)
1000b134:	84150b04 	addi	r16,r16,21548
1000b138:	2023883a 	mov	r17,r4
1000b13c:	2809883a 	mov	r4,r5
1000b140:	dfc00215 	stw	ra,8(sp)
1000b144:	80000015 	stw	zero,0(r16)
1000b148:	000edf80 	call	1000edf8 <isatty>
1000b14c:	00ffffc4 	movi	r3,-1
1000b150:	10c00526 	beq	r2,r3,1000b168 <_isatty_r+0x44>
1000b154:	dfc00217 	ldw	ra,8(sp)
1000b158:	dc400117 	ldw	r17,4(sp)
1000b15c:	dc000017 	ldw	r16,0(sp)
1000b160:	dec00304 	addi	sp,sp,12
1000b164:	f800283a 	ret
1000b168:	80c00017 	ldw	r3,0(r16)
1000b16c:	183ff926 	beq	r3,zero,1000b154 <__alt_data_end+0xf800b154>
1000b170:	88c00015 	stw	r3,0(r17)
1000b174:	003ff706 	br	1000b154 <__alt_data_end+0xf800b154>

1000b178 <_lseek_r>:
1000b178:	defffd04 	addi	sp,sp,-12
1000b17c:	dc000015 	stw	r16,0(sp)
1000b180:	04040074 	movhi	r16,4097
1000b184:	dc400115 	stw	r17,4(sp)
1000b188:	84150b04 	addi	r16,r16,21548
1000b18c:	2023883a 	mov	r17,r4
1000b190:	2809883a 	mov	r4,r5
1000b194:	300b883a 	mov	r5,r6
1000b198:	380d883a 	mov	r6,r7
1000b19c:	dfc00215 	stw	ra,8(sp)
1000b1a0:	80000015 	stw	zero,0(r16)
1000b1a4:	000efd80 	call	1000efd8 <lseek>
1000b1a8:	00ffffc4 	movi	r3,-1
1000b1ac:	10c00526 	beq	r2,r3,1000b1c4 <_lseek_r+0x4c>
1000b1b0:	dfc00217 	ldw	ra,8(sp)
1000b1b4:	dc400117 	ldw	r17,4(sp)
1000b1b8:	dc000017 	ldw	r16,0(sp)
1000b1bc:	dec00304 	addi	sp,sp,12
1000b1c0:	f800283a 	ret
1000b1c4:	80c00017 	ldw	r3,0(r16)
1000b1c8:	183ff926 	beq	r3,zero,1000b1b0 <__alt_data_end+0xf800b1b0>
1000b1cc:	88c00015 	stw	r3,0(r17)
1000b1d0:	003ff706 	br	1000b1b0 <__alt_data_end+0xf800b1b0>

1000b1d4 <_read_r>:
1000b1d4:	defffd04 	addi	sp,sp,-12
1000b1d8:	dc000015 	stw	r16,0(sp)
1000b1dc:	04040074 	movhi	r16,4097
1000b1e0:	dc400115 	stw	r17,4(sp)
1000b1e4:	84150b04 	addi	r16,r16,21548
1000b1e8:	2023883a 	mov	r17,r4
1000b1ec:	2809883a 	mov	r4,r5
1000b1f0:	300b883a 	mov	r5,r6
1000b1f4:	380d883a 	mov	r6,r7
1000b1f8:	dfc00215 	stw	ra,8(sp)
1000b1fc:	80000015 	stw	zero,0(r16)
1000b200:	000f1bc0 	call	1000f1bc <read>
1000b204:	00ffffc4 	movi	r3,-1
1000b208:	10c00526 	beq	r2,r3,1000b220 <_read_r+0x4c>
1000b20c:	dfc00217 	ldw	ra,8(sp)
1000b210:	dc400117 	ldw	r17,4(sp)
1000b214:	dc000017 	ldw	r16,0(sp)
1000b218:	dec00304 	addi	sp,sp,12
1000b21c:	f800283a 	ret
1000b220:	80c00017 	ldw	r3,0(r16)
1000b224:	183ff926 	beq	r3,zero,1000b20c <__alt_data_end+0xf800b20c>
1000b228:	88c00015 	stw	r3,0(r17)
1000b22c:	003ff706 	br	1000b20c <__alt_data_end+0xf800b20c>

1000b230 <__swbuf_r>:
1000b230:	defffc04 	addi	sp,sp,-16
1000b234:	dc800215 	stw	r18,8(sp)
1000b238:	dc400115 	stw	r17,4(sp)
1000b23c:	dc000015 	stw	r16,0(sp)
1000b240:	dfc00315 	stw	ra,12(sp)
1000b244:	2025883a 	mov	r18,r4
1000b248:	2823883a 	mov	r17,r5
1000b24c:	3021883a 	mov	r16,r6
1000b250:	20000226 	beq	r4,zero,1000b25c <__swbuf_r+0x2c>
1000b254:	20800e17 	ldw	r2,56(r4)
1000b258:	10004126 	beq	r2,zero,1000b360 <__swbuf_r+0x130>
1000b25c:	80c00617 	ldw	r3,24(r16)
1000b260:	8180030b 	ldhu	r6,12(r16)
1000b264:	80c00215 	stw	r3,8(r16)
1000b268:	30c0020c 	andi	r3,r6,8
1000b26c:	18003526 	beq	r3,zero,1000b344 <__swbuf_r+0x114>
1000b270:	80c00417 	ldw	r3,16(r16)
1000b274:	18003326 	beq	r3,zero,1000b344 <__swbuf_r+0x114>
1000b278:	3088000c 	andi	r2,r6,8192
1000b27c:	8c403fcc 	andi	r17,r17,255
1000b280:	10001726 	beq	r2,zero,1000b2e0 <__swbuf_r+0xb0>
1000b284:	80800017 	ldw	r2,0(r16)
1000b288:	81000517 	ldw	r4,20(r16)
1000b28c:	10c7c83a 	sub	r3,r2,r3
1000b290:	19001d0e 	bge	r3,r4,1000b308 <__swbuf_r+0xd8>
1000b294:	18c00044 	addi	r3,r3,1
1000b298:	81400217 	ldw	r5,8(r16)
1000b29c:	11000044 	addi	r4,r2,1
1000b2a0:	81000015 	stw	r4,0(r16)
1000b2a4:	297fffc4 	addi	r5,r5,-1
1000b2a8:	81400215 	stw	r5,8(r16)
1000b2ac:	14400005 	stb	r17,0(r2)
1000b2b0:	80800517 	ldw	r2,20(r16)
1000b2b4:	10c01d26 	beq	r2,r3,1000b32c <__swbuf_r+0xfc>
1000b2b8:	8080030b 	ldhu	r2,12(r16)
1000b2bc:	1080004c 	andi	r2,r2,1
1000b2c0:	1000181e 	bne	r2,zero,1000b324 <__swbuf_r+0xf4>
1000b2c4:	8805883a 	mov	r2,r17
1000b2c8:	dfc00317 	ldw	ra,12(sp)
1000b2cc:	dc800217 	ldw	r18,8(sp)
1000b2d0:	dc400117 	ldw	r17,4(sp)
1000b2d4:	dc000017 	ldw	r16,0(sp)
1000b2d8:	dec00404 	addi	sp,sp,16
1000b2dc:	f800283a 	ret
1000b2e0:	81001917 	ldw	r4,100(r16)
1000b2e4:	00b7ffc4 	movi	r2,-8193
1000b2e8:	31880014 	ori	r6,r6,8192
1000b2ec:	2084703a 	and	r2,r4,r2
1000b2f0:	80801915 	stw	r2,100(r16)
1000b2f4:	80800017 	ldw	r2,0(r16)
1000b2f8:	81000517 	ldw	r4,20(r16)
1000b2fc:	8180030d 	sth	r6,12(r16)
1000b300:	10c7c83a 	sub	r3,r2,r3
1000b304:	193fe316 	blt	r3,r4,1000b294 <__alt_data_end+0xf800b294>
1000b308:	9009883a 	mov	r4,r18
1000b30c:	800b883a 	mov	r5,r16
1000b310:	0005f540 	call	10005f54 <_fflush_r>
1000b314:	1000091e 	bne	r2,zero,1000b33c <__swbuf_r+0x10c>
1000b318:	80800017 	ldw	r2,0(r16)
1000b31c:	00c00044 	movi	r3,1
1000b320:	003fdd06 	br	1000b298 <__alt_data_end+0xf800b298>
1000b324:	00800284 	movi	r2,10
1000b328:	88bfe61e 	bne	r17,r2,1000b2c4 <__alt_data_end+0xf800b2c4>
1000b32c:	9009883a 	mov	r4,r18
1000b330:	800b883a 	mov	r5,r16
1000b334:	0005f540 	call	10005f54 <_fflush_r>
1000b338:	103fe226 	beq	r2,zero,1000b2c4 <__alt_data_end+0xf800b2c4>
1000b33c:	00bfffc4 	movi	r2,-1
1000b340:	003fe106 	br	1000b2c8 <__alt_data_end+0xf800b2c8>
1000b344:	9009883a 	mov	r4,r18
1000b348:	800b883a 	mov	r5,r16
1000b34c:	00044d40 	call	100044d4 <__swsetup_r>
1000b350:	1000051e 	bne	r2,zero,1000b368 <__swbuf_r+0x138>
1000b354:	8180030b 	ldhu	r6,12(r16)
1000b358:	80c00417 	ldw	r3,16(r16)
1000b35c:	003fc606 	br	1000b278 <__alt_data_end+0xf800b278>
1000b360:	00065100 	call	10006510 <__sinit>
1000b364:	003fbd06 	br	1000b25c <__alt_data_end+0xf800b25c>
1000b368:	80c0030b 	ldhu	r3,12(r16)
1000b36c:	00bfffc4 	movi	r2,-1
1000b370:	18c01014 	ori	r3,r3,64
1000b374:	80c0030d 	sth	r3,12(r16)
1000b378:	00c00244 	movi	r3,9
1000b37c:	90c00015 	stw	r3,0(r18)
1000b380:	003fd106 	br	1000b2c8 <__alt_data_end+0xf800b2c8>

1000b384 <__swbuf>:
1000b384:	00c40074 	movhi	r3,4097
1000b388:	18ce3904 	addi	r3,r3,14564
1000b38c:	2005883a 	mov	r2,r4
1000b390:	19000017 	ldw	r4,0(r3)
1000b394:	280d883a 	mov	r6,r5
1000b398:	100b883a 	mov	r5,r2
1000b39c:	000b2301 	jmpi	1000b230 <__swbuf_r>

1000b3a0 <_wcrtomb_r>:
1000b3a0:	defff604 	addi	sp,sp,-40
1000b3a4:	00840074 	movhi	r2,4097
1000b3a8:	dc800815 	stw	r18,32(sp)
1000b3ac:	dc400715 	stw	r17,28(sp)
1000b3b0:	dc000615 	stw	r16,24(sp)
1000b3b4:	108e3d04 	addi	r2,r2,14580
1000b3b8:	dfc00915 	stw	ra,36(sp)
1000b3bc:	2021883a 	mov	r16,r4
1000b3c0:	3823883a 	mov	r17,r7
1000b3c4:	14800017 	ldw	r18,0(r2)
1000b3c8:	28001426 	beq	r5,zero,1000b41c <_wcrtomb_r+0x7c>
1000b3cc:	d9400415 	stw	r5,16(sp)
1000b3d0:	d9800515 	stw	r6,20(sp)
1000b3d4:	00070040 	call	10007004 <__locale_charset>
1000b3d8:	d9400417 	ldw	r5,16(sp)
1000b3dc:	d9800517 	ldw	r6,20(sp)
1000b3e0:	8009883a 	mov	r4,r16
1000b3e4:	dc400015 	stw	r17,0(sp)
1000b3e8:	100f883a 	mov	r7,r2
1000b3ec:	903ee83a 	callr	r18
1000b3f0:	00ffffc4 	movi	r3,-1
1000b3f4:	10c0031e 	bne	r2,r3,1000b404 <_wcrtomb_r+0x64>
1000b3f8:	88000015 	stw	zero,0(r17)
1000b3fc:	00c02284 	movi	r3,138
1000b400:	80c00015 	stw	r3,0(r16)
1000b404:	dfc00917 	ldw	ra,36(sp)
1000b408:	dc800817 	ldw	r18,32(sp)
1000b40c:	dc400717 	ldw	r17,28(sp)
1000b410:	dc000617 	ldw	r16,24(sp)
1000b414:	dec00a04 	addi	sp,sp,40
1000b418:	f800283a 	ret
1000b41c:	00070040 	call	10007004 <__locale_charset>
1000b420:	8009883a 	mov	r4,r16
1000b424:	dc400015 	stw	r17,0(sp)
1000b428:	d9400104 	addi	r5,sp,4
1000b42c:	000d883a 	mov	r6,zero
1000b430:	100f883a 	mov	r7,r2
1000b434:	903ee83a 	callr	r18
1000b438:	003fed06 	br	1000b3f0 <__alt_data_end+0xf800b3f0>

1000b43c <wcrtomb>:
1000b43c:	defff504 	addi	sp,sp,-44
1000b440:	dc400515 	stw	r17,20(sp)
1000b444:	dc000415 	stw	r16,16(sp)
1000b448:	dfc00a15 	stw	ra,40(sp)
1000b44c:	dd400915 	stw	r21,36(sp)
1000b450:	dd000815 	stw	r20,32(sp)
1000b454:	dcc00715 	stw	r19,28(sp)
1000b458:	dc800615 	stw	r18,24(sp)
1000b45c:	2021883a 	mov	r16,r4
1000b460:	3023883a 	mov	r17,r6
1000b464:	20001d26 	beq	r4,zero,1000b4dc <wcrtomb+0xa0>
1000b468:	04840074 	movhi	r18,4097
1000b46c:	948e3904 	addi	r18,r18,14564
1000b470:	00840074 	movhi	r2,4097
1000b474:	95400017 	ldw	r21,0(r18)
1000b478:	108e3d04 	addi	r2,r2,14580
1000b47c:	15000017 	ldw	r20,0(r2)
1000b480:	2827883a 	mov	r19,r5
1000b484:	00070040 	call	10007004 <__locale_charset>
1000b488:	a809883a 	mov	r4,r21
1000b48c:	dc400015 	stw	r17,0(sp)
1000b490:	800b883a 	mov	r5,r16
1000b494:	980d883a 	mov	r6,r19
1000b498:	100f883a 	mov	r7,r2
1000b49c:	a03ee83a 	callr	r20
1000b4a0:	00ffffc4 	movi	r3,-1
1000b4a4:	10c0041e 	bne	r2,r3,1000b4b8 <wcrtomb+0x7c>
1000b4a8:	90c00017 	ldw	r3,0(r18)
1000b4ac:	01002284 	movi	r4,138
1000b4b0:	88000015 	stw	zero,0(r17)
1000b4b4:	19000015 	stw	r4,0(r3)
1000b4b8:	dfc00a17 	ldw	ra,40(sp)
1000b4bc:	dd400917 	ldw	r21,36(sp)
1000b4c0:	dd000817 	ldw	r20,32(sp)
1000b4c4:	dcc00717 	ldw	r19,28(sp)
1000b4c8:	dc800617 	ldw	r18,24(sp)
1000b4cc:	dc400517 	ldw	r17,20(sp)
1000b4d0:	dc000417 	ldw	r16,16(sp)
1000b4d4:	dec00b04 	addi	sp,sp,44
1000b4d8:	f800283a 	ret
1000b4dc:	04840074 	movhi	r18,4097
1000b4e0:	948e3904 	addi	r18,r18,14564
1000b4e4:	00840074 	movhi	r2,4097
1000b4e8:	94c00017 	ldw	r19,0(r18)
1000b4ec:	108e3d04 	addi	r2,r2,14580
1000b4f0:	14000017 	ldw	r16,0(r2)
1000b4f4:	00070040 	call	10007004 <__locale_charset>
1000b4f8:	9809883a 	mov	r4,r19
1000b4fc:	dc400015 	stw	r17,0(sp)
1000b500:	d9400104 	addi	r5,sp,4
1000b504:	000d883a 	mov	r6,zero
1000b508:	100f883a 	mov	r7,r2
1000b50c:	803ee83a 	callr	r16
1000b510:	003fe306 	br	1000b4a0 <__alt_data_end+0xf800b4a0>

1000b514 <__ascii_wctomb>:
1000b514:	28000526 	beq	r5,zero,1000b52c <__ascii_wctomb+0x18>
1000b518:	00803fc4 	movi	r2,255
1000b51c:	11800536 	bltu	r2,r6,1000b534 <__ascii_wctomb+0x20>
1000b520:	29800005 	stb	r6,0(r5)
1000b524:	00800044 	movi	r2,1
1000b528:	f800283a 	ret
1000b52c:	0005883a 	mov	r2,zero
1000b530:	f800283a 	ret
1000b534:	00802284 	movi	r2,138
1000b538:	20800015 	stw	r2,0(r4)
1000b53c:	00bfffc4 	movi	r2,-1
1000b540:	f800283a 	ret

1000b544 <_wctomb_r>:
1000b544:	00840074 	movhi	r2,4097
1000b548:	defff904 	addi	sp,sp,-28
1000b54c:	108e3d04 	addi	r2,r2,14580
1000b550:	dfc00615 	stw	ra,24(sp)
1000b554:	dc400515 	stw	r17,20(sp)
1000b558:	dc000415 	stw	r16,16(sp)
1000b55c:	3823883a 	mov	r17,r7
1000b560:	14000017 	ldw	r16,0(r2)
1000b564:	d9000115 	stw	r4,4(sp)
1000b568:	d9400215 	stw	r5,8(sp)
1000b56c:	d9800315 	stw	r6,12(sp)
1000b570:	00070040 	call	10007004 <__locale_charset>
1000b574:	d9000117 	ldw	r4,4(sp)
1000b578:	d9400217 	ldw	r5,8(sp)
1000b57c:	d9800317 	ldw	r6,12(sp)
1000b580:	dc400015 	stw	r17,0(sp)
1000b584:	100f883a 	mov	r7,r2
1000b588:	803ee83a 	callr	r16
1000b58c:	dfc00617 	ldw	ra,24(sp)
1000b590:	dc400517 	ldw	r17,20(sp)
1000b594:	dc000417 	ldw	r16,16(sp)
1000b598:	dec00704 	addi	sp,sp,28
1000b59c:	f800283a 	ret

1000b5a0 <__udivdi3>:
1000b5a0:	defff504 	addi	sp,sp,-44
1000b5a4:	dcc00415 	stw	r19,16(sp)
1000b5a8:	dc000115 	stw	r16,4(sp)
1000b5ac:	dfc00a15 	stw	ra,40(sp)
1000b5b0:	df000915 	stw	fp,36(sp)
1000b5b4:	ddc00815 	stw	r23,32(sp)
1000b5b8:	dd800715 	stw	r22,28(sp)
1000b5bc:	dd400615 	stw	r21,24(sp)
1000b5c0:	dd000515 	stw	r20,20(sp)
1000b5c4:	dc800315 	stw	r18,12(sp)
1000b5c8:	dc400215 	stw	r17,8(sp)
1000b5cc:	2027883a 	mov	r19,r4
1000b5d0:	2821883a 	mov	r16,r5
1000b5d4:	3800471e 	bne	r7,zero,1000b6f4 <__udivdi3+0x154>
1000b5d8:	3025883a 	mov	r18,r6
1000b5dc:	2023883a 	mov	r17,r4
1000b5e0:	2980592e 	bgeu	r5,r6,1000b748 <__udivdi3+0x1a8>
1000b5e4:	00bfffd4 	movui	r2,65535
1000b5e8:	2829883a 	mov	r20,r5
1000b5ec:	1180b236 	bltu	r2,r6,1000b8b8 <__udivdi3+0x318>
1000b5f0:	00803fc4 	movi	r2,255
1000b5f4:	1181622e 	bgeu	r2,r6,1000bb80 <__udivdi3+0x5e0>
1000b5f8:	00800204 	movi	r2,8
1000b5fc:	1007883a 	mov	r3,r2
1000b600:	3084d83a 	srl	r2,r6,r2
1000b604:	01040074 	movhi	r4,4097
1000b608:	21073f04 	addi	r4,r4,7420
1000b60c:	2085883a 	add	r2,r4,r2
1000b610:	11000003 	ldbu	r4,0(r2)
1000b614:	20c9883a 	add	r4,r4,r3
1000b618:	00c00804 	movi	r3,32
1000b61c:	1907c83a 	sub	r3,r3,r4
1000b620:	18000526 	beq	r3,zero,1000b638 <__udivdi3+0x98>
1000b624:	80e0983a 	sll	r16,r16,r3
1000b628:	9908d83a 	srl	r4,r19,r4
1000b62c:	30e4983a 	sll	r18,r6,r3
1000b630:	98e2983a 	sll	r17,r19,r3
1000b634:	8128b03a 	or	r20,r16,r4
1000b638:	902ad43a 	srli	r21,r18,16
1000b63c:	a009883a 	mov	r4,r20
1000b640:	95bfffcc 	andi	r22,r18,65535
1000b644:	a80b883a 	mov	r5,r21
1000b648:	000c3200 	call	1000c320 <__umodsi3>
1000b64c:	a009883a 	mov	r4,r20
1000b650:	a80b883a 	mov	r5,r21
1000b654:	102f883a 	mov	r23,r2
1000b658:	000c3180 	call	1000c318 <__udivsi3>
1000b65c:	1009883a 	mov	r4,r2
1000b660:	b00b883a 	mov	r5,r22
1000b664:	1021883a 	mov	r16,r2
1000b668:	000c3280 	call	1000c328 <__mulsi3>
1000b66c:	b82e943a 	slli	r23,r23,16
1000b670:	8808d43a 	srli	r4,r17,16
1000b674:	b906b03a 	or	r3,r23,r4
1000b678:	1880052e 	bgeu	r3,r2,1000b690 <__udivdi3+0xf0>
1000b67c:	1c87883a 	add	r3,r3,r18
1000b680:	813fffc4 	addi	r4,r16,-1
1000b684:	1c800136 	bltu	r3,r18,1000b68c <__udivdi3+0xec>
1000b688:	18815236 	bltu	r3,r2,1000bbd4 <__udivdi3+0x634>
1000b68c:	2021883a 	mov	r16,r4
1000b690:	18a7c83a 	sub	r19,r3,r2
1000b694:	9809883a 	mov	r4,r19
1000b698:	a80b883a 	mov	r5,r21
1000b69c:	000c3200 	call	1000c320 <__umodsi3>
1000b6a0:	1029883a 	mov	r20,r2
1000b6a4:	9809883a 	mov	r4,r19
1000b6a8:	a80b883a 	mov	r5,r21
1000b6ac:	a028943a 	slli	r20,r20,16
1000b6b0:	000c3180 	call	1000c318 <__udivsi3>
1000b6b4:	1009883a 	mov	r4,r2
1000b6b8:	b00b883a 	mov	r5,r22
1000b6bc:	8c7fffcc 	andi	r17,r17,65535
1000b6c0:	1027883a 	mov	r19,r2
1000b6c4:	a462b03a 	or	r17,r20,r17
1000b6c8:	000c3280 	call	1000c328 <__mulsi3>
1000b6cc:	8880052e 	bgeu	r17,r2,1000b6e4 <__udivdi3+0x144>
1000b6d0:	8ca3883a 	add	r17,r17,r18
1000b6d4:	98ffffc4 	addi	r3,r19,-1
1000b6d8:	8c811036 	bltu	r17,r18,1000bb1c <__udivdi3+0x57c>
1000b6dc:	88810f2e 	bgeu	r17,r2,1000bb1c <__udivdi3+0x57c>
1000b6e0:	9cffff84 	addi	r19,r19,-2
1000b6e4:	8020943a 	slli	r16,r16,16
1000b6e8:	0007883a 	mov	r3,zero
1000b6ec:	9c04b03a 	or	r2,r19,r16
1000b6f0:	00006006 	br	1000b874 <__udivdi3+0x2d4>
1000b6f4:	29c05d36 	bltu	r5,r7,1000b86c <__udivdi3+0x2cc>
1000b6f8:	00bfffd4 	movui	r2,65535
1000b6fc:	11c0692e 	bgeu	r2,r7,1000b8a4 <__udivdi3+0x304>
1000b700:	00804034 	movhi	r2,256
1000b704:	10bfffc4 	addi	r2,r2,-1
1000b708:	11c10e2e 	bgeu	r2,r7,1000bb44 <__udivdi3+0x5a4>
1000b70c:	01400604 	movi	r5,24
1000b710:	2811883a 	mov	r8,r5
1000b714:	394ad83a 	srl	r5,r7,r5
1000b718:	00840074 	movhi	r2,4097
1000b71c:	10873f04 	addi	r2,r2,7420
1000b720:	114b883a 	add	r5,r2,r5
1000b724:	29400003 	ldbu	r5,0(r5)
1000b728:	00c00804 	movi	r3,32
1000b72c:	2a0b883a 	add	r5,r5,r8
1000b730:	196fc83a 	sub	r23,r3,r5
1000b734:	b8006b1e 	bne	r23,zero,1000b8e4 <__udivdi3+0x344>
1000b738:	3c011436 	bltu	r7,r16,1000bb8c <__udivdi3+0x5ec>
1000b73c:	9985403a 	cmpgeu	r2,r19,r6
1000b740:	0007883a 	mov	r3,zero
1000b744:	00004b06 	br	1000b874 <__udivdi3+0x2d4>
1000b748:	3000041e 	bne	r6,zero,1000b75c <__udivdi3+0x1bc>
1000b74c:	01000044 	movi	r4,1
1000b750:	000b883a 	mov	r5,zero
1000b754:	000c3180 	call	1000c318 <__udivsi3>
1000b758:	1025883a 	mov	r18,r2
1000b75c:	00bfffd4 	movui	r2,65535
1000b760:	14805b2e 	bgeu	r2,r18,1000b8d0 <__udivdi3+0x330>
1000b764:	00804034 	movhi	r2,256
1000b768:	10bfffc4 	addi	r2,r2,-1
1000b76c:	1480fe2e 	bgeu	r2,r18,1000bb68 <__udivdi3+0x5c8>
1000b770:	00800604 	movi	r2,24
1000b774:	1007883a 	mov	r3,r2
1000b778:	9084d83a 	srl	r2,r18,r2
1000b77c:	01040074 	movhi	r4,4097
1000b780:	21073f04 	addi	r4,r4,7420
1000b784:	2085883a 	add	r2,r4,r2
1000b788:	11800003 	ldbu	r6,0(r2)
1000b78c:	01c00804 	movi	r7,32
1000b790:	30c7883a 	add	r3,r6,r3
1000b794:	38cfc83a 	sub	r7,r7,r3
1000b798:	3800a71e 	bne	r7,zero,1000ba38 <__udivdi3+0x498>
1000b79c:	9028d43a 	srli	r20,r18,16
1000b7a0:	84a1c83a 	sub	r16,r16,r18
1000b7a4:	957fffcc 	andi	r21,r18,65535
1000b7a8:	00c00044 	movi	r3,1
1000b7ac:	8009883a 	mov	r4,r16
1000b7b0:	a00b883a 	mov	r5,r20
1000b7b4:	d8c00015 	stw	r3,0(sp)
1000b7b8:	000c3200 	call	1000c320 <__umodsi3>
1000b7bc:	8009883a 	mov	r4,r16
1000b7c0:	a00b883a 	mov	r5,r20
1000b7c4:	102d883a 	mov	r22,r2
1000b7c8:	000c3180 	call	1000c318 <__udivsi3>
1000b7cc:	1009883a 	mov	r4,r2
1000b7d0:	a80b883a 	mov	r5,r21
1000b7d4:	1021883a 	mov	r16,r2
1000b7d8:	000c3280 	call	1000c328 <__mulsi3>
1000b7dc:	b02c943a 	slli	r22,r22,16
1000b7e0:	880ed43a 	srli	r7,r17,16
1000b7e4:	d8c00017 	ldw	r3,0(sp)
1000b7e8:	b1ccb03a 	or	r6,r22,r7
1000b7ec:	3080052e 	bgeu	r6,r2,1000b804 <__udivdi3+0x264>
1000b7f0:	348d883a 	add	r6,r6,r18
1000b7f4:	813fffc4 	addi	r4,r16,-1
1000b7f8:	34800136 	bltu	r6,r18,1000b800 <__udivdi3+0x260>
1000b7fc:	3080f236 	bltu	r6,r2,1000bbc8 <__udivdi3+0x628>
1000b800:	2021883a 	mov	r16,r4
1000b804:	30a7c83a 	sub	r19,r6,r2
1000b808:	9809883a 	mov	r4,r19
1000b80c:	a00b883a 	mov	r5,r20
1000b810:	d8c00015 	stw	r3,0(sp)
1000b814:	000c3200 	call	1000c320 <__umodsi3>
1000b818:	102d883a 	mov	r22,r2
1000b81c:	9809883a 	mov	r4,r19
1000b820:	a00b883a 	mov	r5,r20
1000b824:	b02c943a 	slli	r22,r22,16
1000b828:	000c3180 	call	1000c318 <__udivsi3>
1000b82c:	1009883a 	mov	r4,r2
1000b830:	a80b883a 	mov	r5,r21
1000b834:	8c7fffcc 	andi	r17,r17,65535
1000b838:	1027883a 	mov	r19,r2
1000b83c:	b462b03a 	or	r17,r22,r17
1000b840:	000c3280 	call	1000c328 <__mulsi3>
1000b844:	d8c00017 	ldw	r3,0(sp)
1000b848:	8880052e 	bgeu	r17,r2,1000b860 <__udivdi3+0x2c0>
1000b84c:	8ca3883a 	add	r17,r17,r18
1000b850:	993fffc4 	addi	r4,r19,-1
1000b854:	8c80af36 	bltu	r17,r18,1000bb14 <__udivdi3+0x574>
1000b858:	8880ae2e 	bgeu	r17,r2,1000bb14 <__udivdi3+0x574>
1000b85c:	9cffff84 	addi	r19,r19,-2
1000b860:	8020943a 	slli	r16,r16,16
1000b864:	9c04b03a 	or	r2,r19,r16
1000b868:	00000206 	br	1000b874 <__udivdi3+0x2d4>
1000b86c:	0007883a 	mov	r3,zero
1000b870:	0005883a 	mov	r2,zero
1000b874:	dfc00a17 	ldw	ra,40(sp)
1000b878:	df000917 	ldw	fp,36(sp)
1000b87c:	ddc00817 	ldw	r23,32(sp)
1000b880:	dd800717 	ldw	r22,28(sp)
1000b884:	dd400617 	ldw	r21,24(sp)
1000b888:	dd000517 	ldw	r20,20(sp)
1000b88c:	dcc00417 	ldw	r19,16(sp)
1000b890:	dc800317 	ldw	r18,12(sp)
1000b894:	dc400217 	ldw	r17,8(sp)
1000b898:	dc000117 	ldw	r16,4(sp)
1000b89c:	dec00b04 	addi	sp,sp,44
1000b8a0:	f800283a 	ret
1000b8a4:	00803fc4 	movi	r2,255
1000b8a8:	11c0a92e 	bgeu	r2,r7,1000bb50 <__udivdi3+0x5b0>
1000b8ac:	01400204 	movi	r5,8
1000b8b0:	2811883a 	mov	r8,r5
1000b8b4:	003f9706 	br	1000b714 <__alt_data_end+0xf800b714>
1000b8b8:	00804034 	movhi	r2,256
1000b8bc:	10bfffc4 	addi	r2,r2,-1
1000b8c0:	1180a62e 	bgeu	r2,r6,1000bb5c <__udivdi3+0x5bc>
1000b8c4:	00800604 	movi	r2,24
1000b8c8:	1007883a 	mov	r3,r2
1000b8cc:	003f4c06 	br	1000b600 <__alt_data_end+0xf800b600>
1000b8d0:	00803fc4 	movi	r2,255
1000b8d4:	1480a72e 	bgeu	r2,r18,1000bb74 <__udivdi3+0x5d4>
1000b8d8:	00800204 	movi	r2,8
1000b8dc:	1007883a 	mov	r3,r2
1000b8e0:	003fa506 	br	1000b778 <__alt_data_end+0xf800b778>
1000b8e4:	3178d83a 	srl	fp,r6,r5
1000b8e8:	3dce983a 	sll	r7,r7,r23
1000b8ec:	8168d83a 	srl	r20,r16,r5
1000b8f0:	9950d83a 	srl	r8,r19,r5
1000b8f4:	3f38b03a 	or	fp,r7,fp
1000b8f8:	e024d43a 	srli	r18,fp,16
1000b8fc:	85e0983a 	sll	r16,r16,r23
1000b900:	a009883a 	mov	r4,r20
1000b904:	900b883a 	mov	r5,r18
1000b908:	8220b03a 	or	r16,r16,r8
1000b90c:	35ea983a 	sll	r21,r6,r23
1000b910:	000c3200 	call	1000c320 <__umodsi3>
1000b914:	a009883a 	mov	r4,r20
1000b918:	900b883a 	mov	r5,r18
1000b91c:	1023883a 	mov	r17,r2
1000b920:	e5bfffcc 	andi	r22,fp,65535
1000b924:	000c3180 	call	1000c318 <__udivsi3>
1000b928:	1009883a 	mov	r4,r2
1000b92c:	b00b883a 	mov	r5,r22
1000b930:	1029883a 	mov	r20,r2
1000b934:	000c3280 	call	1000c328 <__mulsi3>
1000b938:	8806943a 	slli	r3,r17,16
1000b93c:	8014d43a 	srli	r10,r16,16
1000b940:	1a92b03a 	or	r9,r3,r10
1000b944:	4880042e 	bgeu	r9,r2,1000b958 <__udivdi3+0x3b8>
1000b948:	4f13883a 	add	r9,r9,fp
1000b94c:	a0ffffc4 	addi	r3,r20,-1
1000b950:	4f00952e 	bgeu	r9,fp,1000bba8 <__udivdi3+0x608>
1000b954:	1829883a 	mov	r20,r3
1000b958:	48a3c83a 	sub	r17,r9,r2
1000b95c:	8809883a 	mov	r4,r17
1000b960:	900b883a 	mov	r5,r18
1000b964:	000c3200 	call	1000c320 <__umodsi3>
1000b968:	8809883a 	mov	r4,r17
1000b96c:	900b883a 	mov	r5,r18
1000b970:	d8800015 	stw	r2,0(sp)
1000b974:	000c3180 	call	1000c318 <__udivsi3>
1000b978:	1009883a 	mov	r4,r2
1000b97c:	b00b883a 	mov	r5,r22
1000b980:	1023883a 	mov	r17,r2
1000b984:	000c3280 	call	1000c328 <__mulsi3>
1000b988:	d8c00017 	ldw	r3,0(sp)
1000b98c:	823fffcc 	andi	r8,r16,65535
1000b990:	1806943a 	slli	r3,r3,16
1000b994:	1a20b03a 	or	r16,r3,r8
1000b998:	8080042e 	bgeu	r16,r2,1000b9ac <__udivdi3+0x40c>
1000b99c:	8721883a 	add	r16,r16,fp
1000b9a0:	88ffffc4 	addi	r3,r17,-1
1000b9a4:	87007c2e 	bgeu	r16,fp,1000bb98 <__udivdi3+0x5f8>
1000b9a8:	1823883a 	mov	r17,r3
1000b9ac:	a028943a 	slli	r20,r20,16
1000b9b0:	acbfffcc 	andi	r18,r21,65535
1000b9b4:	900b883a 	mov	r5,r18
1000b9b8:	8d28b03a 	or	r20,r17,r20
1000b9bc:	a022d43a 	srli	r17,r20,16
1000b9c0:	a5bfffcc 	andi	r22,r20,65535
1000b9c4:	b009883a 	mov	r4,r22
1000b9c8:	a82ad43a 	srli	r21,r21,16
1000b9cc:	80a1c83a 	sub	r16,r16,r2
1000b9d0:	000c3280 	call	1000c328 <__mulsi3>
1000b9d4:	8809883a 	mov	r4,r17
1000b9d8:	900b883a 	mov	r5,r18
1000b9dc:	1039883a 	mov	fp,r2
1000b9e0:	000c3280 	call	1000c328 <__mulsi3>
1000b9e4:	8809883a 	mov	r4,r17
1000b9e8:	a80b883a 	mov	r5,r21
1000b9ec:	1025883a 	mov	r18,r2
1000b9f0:	000c3280 	call	1000c328 <__mulsi3>
1000b9f4:	b009883a 	mov	r4,r22
1000b9f8:	a80b883a 	mov	r5,r21
1000b9fc:	1023883a 	mov	r17,r2
1000ba00:	000c3280 	call	1000c328 <__mulsi3>
1000ba04:	e006d43a 	srli	r3,fp,16
1000ba08:	9085883a 	add	r2,r18,r2
1000ba0c:	10c7883a 	add	r3,r2,r3
1000ba10:	1c80022e 	bgeu	r3,r18,1000ba1c <__udivdi3+0x47c>
1000ba14:	00800074 	movhi	r2,1
1000ba18:	88a3883a 	add	r17,r17,r2
1000ba1c:	1808d43a 	srli	r4,r3,16
1000ba20:	8909883a 	add	r4,r17,r4
1000ba24:	81004436 	bltu	r16,r4,1000bb38 <__udivdi3+0x598>
1000ba28:	81003e26 	beq	r16,r4,1000bb24 <__udivdi3+0x584>
1000ba2c:	a005883a 	mov	r2,r20
1000ba30:	0007883a 	mov	r3,zero
1000ba34:	003f8f06 	br	1000b874 <__alt_data_end+0xf800b874>
1000ba38:	91e4983a 	sll	r18,r18,r7
1000ba3c:	80eed83a 	srl	r23,r16,r3
1000ba40:	81cc983a 	sll	r6,r16,r7
1000ba44:	9028d43a 	srli	r20,r18,16
1000ba48:	98c6d83a 	srl	r3,r19,r3
1000ba4c:	b809883a 	mov	r4,r23
1000ba50:	a00b883a 	mov	r5,r20
1000ba54:	30ecb03a 	or	r22,r6,r3
1000ba58:	99e2983a 	sll	r17,r19,r7
1000ba5c:	000c3200 	call	1000c320 <__umodsi3>
1000ba60:	b809883a 	mov	r4,r23
1000ba64:	a00b883a 	mov	r5,r20
1000ba68:	1021883a 	mov	r16,r2
1000ba6c:	957fffcc 	andi	r21,r18,65535
1000ba70:	000c3180 	call	1000c318 <__udivsi3>
1000ba74:	a80b883a 	mov	r5,r21
1000ba78:	1009883a 	mov	r4,r2
1000ba7c:	102f883a 	mov	r23,r2
1000ba80:	000c3280 	call	1000c328 <__mulsi3>
1000ba84:	8020943a 	slli	r16,r16,16
1000ba88:	b00ad43a 	srli	r5,r22,16
1000ba8c:	814cb03a 	or	r6,r16,r5
1000ba90:	3080062e 	bgeu	r6,r2,1000baac <__udivdi3+0x50c>
1000ba94:	348d883a 	add	r6,r6,r18
1000ba98:	b8ffffc4 	addi	r3,r23,-1
1000ba9c:	34804836 	bltu	r6,r18,1000bbc0 <__udivdi3+0x620>
1000baa0:	3080472e 	bgeu	r6,r2,1000bbc0 <__udivdi3+0x620>
1000baa4:	bdffff84 	addi	r23,r23,-2
1000baa8:	348d883a 	add	r6,r6,r18
1000baac:	30a7c83a 	sub	r19,r6,r2
1000bab0:	9809883a 	mov	r4,r19
1000bab4:	a00b883a 	mov	r5,r20
1000bab8:	000c3200 	call	1000c320 <__umodsi3>
1000babc:	9809883a 	mov	r4,r19
1000bac0:	a00b883a 	mov	r5,r20
1000bac4:	1039883a 	mov	fp,r2
1000bac8:	000c3180 	call	1000c318 <__udivsi3>
1000bacc:	1009883a 	mov	r4,r2
1000bad0:	a80b883a 	mov	r5,r21
1000bad4:	e038943a 	slli	fp,fp,16
1000bad8:	1027883a 	mov	r19,r2
1000badc:	000c3280 	call	1000c328 <__mulsi3>
1000bae0:	b1bfffcc 	andi	r6,r22,65535
1000bae4:	e18cb03a 	or	r6,fp,r6
1000bae8:	3080062e 	bgeu	r6,r2,1000bb04 <__udivdi3+0x564>
1000baec:	348d883a 	add	r6,r6,r18
1000baf0:	98ffffc4 	addi	r3,r19,-1
1000baf4:	34803036 	bltu	r6,r18,1000bbb8 <__udivdi3+0x618>
1000baf8:	30802f2e 	bgeu	r6,r2,1000bbb8 <__udivdi3+0x618>
1000bafc:	9cffff84 	addi	r19,r19,-2
1000bb00:	348d883a 	add	r6,r6,r18
1000bb04:	b82e943a 	slli	r23,r23,16
1000bb08:	30a1c83a 	sub	r16,r6,r2
1000bb0c:	9dc6b03a 	or	r3,r19,r23
1000bb10:	003f2606 	br	1000b7ac <__alt_data_end+0xf800b7ac>
1000bb14:	2027883a 	mov	r19,r4
1000bb18:	003f5106 	br	1000b860 <__alt_data_end+0xf800b860>
1000bb1c:	1827883a 	mov	r19,r3
1000bb20:	003ef006 	br	1000b6e4 <__alt_data_end+0xf800b6e4>
1000bb24:	1808943a 	slli	r4,r3,16
1000bb28:	9dc6983a 	sll	r3,r19,r23
1000bb2c:	e73fffcc 	andi	fp,fp,65535
1000bb30:	2709883a 	add	r4,r4,fp
1000bb34:	193fbd2e 	bgeu	r3,r4,1000ba2c <__alt_data_end+0xf800ba2c>
1000bb38:	a0bfffc4 	addi	r2,r20,-1
1000bb3c:	0007883a 	mov	r3,zero
1000bb40:	003f4c06 	br	1000b874 <__alt_data_end+0xf800b874>
1000bb44:	01400404 	movi	r5,16
1000bb48:	2811883a 	mov	r8,r5
1000bb4c:	003ef106 	br	1000b714 <__alt_data_end+0xf800b714>
1000bb50:	000b883a 	mov	r5,zero
1000bb54:	0011883a 	mov	r8,zero
1000bb58:	003eee06 	br	1000b714 <__alt_data_end+0xf800b714>
1000bb5c:	00800404 	movi	r2,16
1000bb60:	1007883a 	mov	r3,r2
1000bb64:	003ea606 	br	1000b600 <__alt_data_end+0xf800b600>
1000bb68:	00800404 	movi	r2,16
1000bb6c:	1007883a 	mov	r3,r2
1000bb70:	003f0106 	br	1000b778 <__alt_data_end+0xf800b778>
1000bb74:	0005883a 	mov	r2,zero
1000bb78:	0007883a 	mov	r3,zero
1000bb7c:	003efe06 	br	1000b778 <__alt_data_end+0xf800b778>
1000bb80:	0005883a 	mov	r2,zero
1000bb84:	0007883a 	mov	r3,zero
1000bb88:	003e9d06 	br	1000b600 <__alt_data_end+0xf800b600>
1000bb8c:	0007883a 	mov	r3,zero
1000bb90:	00800044 	movi	r2,1
1000bb94:	003f3706 	br	1000b874 <__alt_data_end+0xf800b874>
1000bb98:	80bf832e 	bgeu	r16,r2,1000b9a8 <__alt_data_end+0xf800b9a8>
1000bb9c:	8c7fff84 	addi	r17,r17,-2
1000bba0:	8721883a 	add	r16,r16,fp
1000bba4:	003f8106 	br	1000b9ac <__alt_data_end+0xf800b9ac>
1000bba8:	48bf6a2e 	bgeu	r9,r2,1000b954 <__alt_data_end+0xf800b954>
1000bbac:	a53fff84 	addi	r20,r20,-2
1000bbb0:	4f13883a 	add	r9,r9,fp
1000bbb4:	003f6806 	br	1000b958 <__alt_data_end+0xf800b958>
1000bbb8:	1827883a 	mov	r19,r3
1000bbbc:	003fd106 	br	1000bb04 <__alt_data_end+0xf800bb04>
1000bbc0:	182f883a 	mov	r23,r3
1000bbc4:	003fb906 	br	1000baac <__alt_data_end+0xf800baac>
1000bbc8:	843fff84 	addi	r16,r16,-2
1000bbcc:	348d883a 	add	r6,r6,r18
1000bbd0:	003f0c06 	br	1000b804 <__alt_data_end+0xf800b804>
1000bbd4:	843fff84 	addi	r16,r16,-2
1000bbd8:	1c87883a 	add	r3,r3,r18
1000bbdc:	003eac06 	br	1000b690 <__alt_data_end+0xf800b690>

1000bbe0 <__umoddi3>:
1000bbe0:	defff404 	addi	sp,sp,-48
1000bbe4:	dd800815 	stw	r22,32(sp)
1000bbe8:	dc400315 	stw	r17,12(sp)
1000bbec:	dc000215 	stw	r16,8(sp)
1000bbf0:	dfc00b15 	stw	ra,44(sp)
1000bbf4:	df000a15 	stw	fp,40(sp)
1000bbf8:	ddc00915 	stw	r23,36(sp)
1000bbfc:	dd400715 	stw	r21,28(sp)
1000bc00:	dd000615 	stw	r20,24(sp)
1000bc04:	dcc00515 	stw	r19,20(sp)
1000bc08:	dc800415 	stw	r18,16(sp)
1000bc0c:	2021883a 	mov	r16,r4
1000bc10:	2823883a 	mov	r17,r5
1000bc14:	282d883a 	mov	r22,r5
1000bc18:	38003c1e 	bne	r7,zero,1000bd0c <__umoddi3+0x12c>
1000bc1c:	3027883a 	mov	r19,r6
1000bc20:	2029883a 	mov	r20,r4
1000bc24:	2980522e 	bgeu	r5,r6,1000bd70 <__umoddi3+0x190>
1000bc28:	00bfffd4 	movui	r2,65535
1000bc2c:	1180a436 	bltu	r2,r6,1000bec0 <__umoddi3+0x2e0>
1000bc30:	00803fc4 	movi	r2,255
1000bc34:	11815e2e 	bgeu	r2,r6,1000c1b0 <__umoddi3+0x5d0>
1000bc38:	01400204 	movi	r5,8
1000bc3c:	2805883a 	mov	r2,r5
1000bc40:	314ad83a 	srl	r5,r6,r5
1000bc44:	00c40074 	movhi	r3,4097
1000bc48:	18c73f04 	addi	r3,r3,7420
1000bc4c:	194b883a 	add	r5,r3,r5
1000bc50:	29000003 	ldbu	r4,0(r5)
1000bc54:	2089883a 	add	r4,r4,r2
1000bc58:	00800804 	movi	r2,32
1000bc5c:	1105c83a 	sub	r2,r2,r4
1000bc60:	10010c26 	beq	r2,zero,1000c094 <__umoddi3+0x4b4>
1000bc64:	88a2983a 	sll	r17,r17,r2
1000bc68:	8108d83a 	srl	r4,r16,r4
1000bc6c:	30a6983a 	sll	r19,r6,r2
1000bc70:	80a8983a 	sll	r20,r16,r2
1000bc74:	1025883a 	mov	r18,r2
1000bc78:	892cb03a 	or	r22,r17,r4
1000bc7c:	9822d43a 	srli	r17,r19,16
1000bc80:	b009883a 	mov	r4,r22
1000bc84:	9d7fffcc 	andi	r21,r19,65535
1000bc88:	880b883a 	mov	r5,r17
1000bc8c:	000c3200 	call	1000c320 <__umodsi3>
1000bc90:	b009883a 	mov	r4,r22
1000bc94:	880b883a 	mov	r5,r17
1000bc98:	102f883a 	mov	r23,r2
1000bc9c:	000c3180 	call	1000c318 <__udivsi3>
1000bca0:	1009883a 	mov	r4,r2
1000bca4:	a80b883a 	mov	r5,r21
1000bca8:	000c3280 	call	1000c328 <__mulsi3>
1000bcac:	b82e943a 	slli	r23,r23,16
1000bcb0:	a008d43a 	srli	r4,r20,16
1000bcb4:	b906b03a 	or	r3,r23,r4
1000bcb8:	1880042e 	bgeu	r3,r2,1000bccc <__umoddi3+0xec>
1000bcbc:	1cc7883a 	add	r3,r3,r19
1000bcc0:	1cc00236 	bltu	r3,r19,1000bccc <__umoddi3+0xec>
1000bcc4:	1880012e 	bgeu	r3,r2,1000bccc <__umoddi3+0xec>
1000bcc8:	1cc7883a 	add	r3,r3,r19
1000bccc:	18a1c83a 	sub	r16,r3,r2
1000bcd0:	8009883a 	mov	r4,r16
1000bcd4:	880b883a 	mov	r5,r17
1000bcd8:	000c3200 	call	1000c320 <__umodsi3>
1000bcdc:	8009883a 	mov	r4,r16
1000bce0:	880b883a 	mov	r5,r17
1000bce4:	102d883a 	mov	r22,r2
1000bce8:	000c3180 	call	1000c318 <__udivsi3>
1000bcec:	1009883a 	mov	r4,r2
1000bcf0:	a80b883a 	mov	r5,r21
1000bcf4:	b02c943a 	slli	r22,r22,16
1000bcf8:	000c3280 	call	1000c328 <__mulsi3>
1000bcfc:	a13fffcc 	andi	r4,r20,65535
1000bd00:	b106b03a 	or	r3,r22,r4
1000bd04:	1880572e 	bgeu	r3,r2,1000be64 <__umoddi3+0x284>
1000bd08:	00005206 	br	1000be54 <__umoddi3+0x274>
1000bd0c:	29c05936 	bltu	r5,r7,1000be74 <__umoddi3+0x294>
1000bd10:	00bfffd4 	movui	r2,65535
1000bd14:	11c0652e 	bgeu	r2,r7,1000beac <__umoddi3+0x2cc>
1000bd18:	00804034 	movhi	r2,256
1000bd1c:	10bfffc4 	addi	r2,r2,-1
1000bd20:	11c1172e 	bgeu	r2,r7,1000c180 <__umoddi3+0x5a0>
1000bd24:	01400604 	movi	r5,24
1000bd28:	282b883a 	mov	r21,r5
1000bd2c:	394ad83a 	srl	r5,r7,r5
1000bd30:	00c40074 	movhi	r3,4097
1000bd34:	18c73f04 	addi	r3,r3,7420
1000bd38:	194b883a 	add	r5,r3,r5
1000bd3c:	28800003 	ldbu	r2,0(r5)
1000bd40:	00c00804 	movi	r3,32
1000bd44:	156b883a 	add	r21,r2,r21
1000bd48:	1d69c83a 	sub	r20,r3,r21
1000bd4c:	a000671e 	bne	r20,zero,1000beec <__umoddi3+0x30c>
1000bd50:	3c400136 	bltu	r7,r17,1000bd58 <__umoddi3+0x178>
1000bd54:	81812336 	bltu	r16,r6,1000c1e4 <__umoddi3+0x604>
1000bd58:	8185c83a 	sub	r2,r16,r6
1000bd5c:	89e3c83a 	sub	r17,r17,r7
1000bd60:	8087803a 	cmpltu	r3,r16,r2
1000bd64:	88edc83a 	sub	r22,r17,r3
1000bd68:	b007883a 	mov	r3,r22
1000bd6c:	00004306 	br	1000be7c <__umoddi3+0x29c>
1000bd70:	3000041e 	bne	r6,zero,1000bd84 <__umoddi3+0x1a4>
1000bd74:	01000044 	movi	r4,1
1000bd78:	000b883a 	mov	r5,zero
1000bd7c:	000c3180 	call	1000c318 <__udivsi3>
1000bd80:	1027883a 	mov	r19,r2
1000bd84:	00bfffd4 	movui	r2,65535
1000bd88:	14c0532e 	bgeu	r2,r19,1000bed8 <__umoddi3+0x2f8>
1000bd8c:	00804034 	movhi	r2,256
1000bd90:	10bfffc4 	addi	r2,r2,-1
1000bd94:	14c1032e 	bgeu	r2,r19,1000c1a4 <__umoddi3+0x5c4>
1000bd98:	00800604 	movi	r2,24
1000bd9c:	1007883a 	mov	r3,r2
1000bda0:	9884d83a 	srl	r2,r19,r2
1000bda4:	01040074 	movhi	r4,4097
1000bda8:	21073f04 	addi	r4,r4,7420
1000bdac:	2085883a 	add	r2,r4,r2
1000bdb0:	11000003 	ldbu	r4,0(r2)
1000bdb4:	00800804 	movi	r2,32
1000bdb8:	20c7883a 	add	r3,r4,r3
1000bdbc:	10c5c83a 	sub	r2,r2,r3
1000bdc0:	1000b61e 	bne	r2,zero,1000c09c <__umoddi3+0x4bc>
1000bdc4:	982ad43a 	srli	r21,r19,16
1000bdc8:	8ce3c83a 	sub	r17,r17,r19
1000bdcc:	9dbfffcc 	andi	r22,r19,65535
1000bdd0:	0025883a 	mov	r18,zero
1000bdd4:	8809883a 	mov	r4,r17
1000bdd8:	a80b883a 	mov	r5,r21
1000bddc:	000c3200 	call	1000c320 <__umodsi3>
1000bde0:	8809883a 	mov	r4,r17
1000bde4:	a80b883a 	mov	r5,r21
1000bde8:	102f883a 	mov	r23,r2
1000bdec:	000c3180 	call	1000c318 <__udivsi3>
1000bdf0:	1009883a 	mov	r4,r2
1000bdf4:	b00b883a 	mov	r5,r22
1000bdf8:	000c3280 	call	1000c328 <__mulsi3>
1000bdfc:	b82e943a 	slli	r23,r23,16
1000be00:	a008d43a 	srli	r4,r20,16
1000be04:	b906b03a 	or	r3,r23,r4
1000be08:	1880032e 	bgeu	r3,r2,1000be18 <__umoddi3+0x238>
1000be0c:	1cc7883a 	add	r3,r3,r19
1000be10:	1cc00136 	bltu	r3,r19,1000be18 <__umoddi3+0x238>
1000be14:	1880f136 	bltu	r3,r2,1000c1dc <__umoddi3+0x5fc>
1000be18:	18a1c83a 	sub	r16,r3,r2
1000be1c:	8009883a 	mov	r4,r16
1000be20:	a80b883a 	mov	r5,r21
1000be24:	000c3200 	call	1000c320 <__umodsi3>
1000be28:	8009883a 	mov	r4,r16
1000be2c:	a80b883a 	mov	r5,r21
1000be30:	1023883a 	mov	r17,r2
1000be34:	000c3180 	call	1000c318 <__udivsi3>
1000be38:	1009883a 	mov	r4,r2
1000be3c:	b00b883a 	mov	r5,r22
1000be40:	8822943a 	slli	r17,r17,16
1000be44:	000c3280 	call	1000c328 <__mulsi3>
1000be48:	a13fffcc 	andi	r4,r20,65535
1000be4c:	8906b03a 	or	r3,r17,r4
1000be50:	1880042e 	bgeu	r3,r2,1000be64 <__umoddi3+0x284>
1000be54:	1cc7883a 	add	r3,r3,r19
1000be58:	1cc00236 	bltu	r3,r19,1000be64 <__umoddi3+0x284>
1000be5c:	1880012e 	bgeu	r3,r2,1000be64 <__umoddi3+0x284>
1000be60:	1cc7883a 	add	r3,r3,r19
1000be64:	1887c83a 	sub	r3,r3,r2
1000be68:	1c84d83a 	srl	r2,r3,r18
1000be6c:	0007883a 	mov	r3,zero
1000be70:	00000206 	br	1000be7c <__umoddi3+0x29c>
1000be74:	2005883a 	mov	r2,r4
1000be78:	2807883a 	mov	r3,r5
1000be7c:	dfc00b17 	ldw	ra,44(sp)
1000be80:	df000a17 	ldw	fp,40(sp)
1000be84:	ddc00917 	ldw	r23,36(sp)
1000be88:	dd800817 	ldw	r22,32(sp)
1000be8c:	dd400717 	ldw	r21,28(sp)
1000be90:	dd000617 	ldw	r20,24(sp)
1000be94:	dcc00517 	ldw	r19,20(sp)
1000be98:	dc800417 	ldw	r18,16(sp)
1000be9c:	dc400317 	ldw	r17,12(sp)
1000bea0:	dc000217 	ldw	r16,8(sp)
1000bea4:	dec00c04 	addi	sp,sp,48
1000bea8:	f800283a 	ret
1000beac:	00803fc4 	movi	r2,255
1000beb0:	11c0b02e 	bgeu	r2,r7,1000c174 <__umoddi3+0x594>
1000beb4:	01400204 	movi	r5,8
1000beb8:	282b883a 	mov	r21,r5
1000bebc:	003f9b06 	br	1000bd2c <__alt_data_end+0xf800bd2c>
1000bec0:	00804034 	movhi	r2,256
1000bec4:	10bfffc4 	addi	r2,r2,-1
1000bec8:	1180b02e 	bgeu	r2,r6,1000c18c <__umoddi3+0x5ac>
1000becc:	01400604 	movi	r5,24
1000bed0:	2805883a 	mov	r2,r5
1000bed4:	003f5a06 	br	1000bc40 <__alt_data_end+0xf800bc40>
1000bed8:	00803fc4 	movi	r2,255
1000bedc:	14c0ae2e 	bgeu	r2,r19,1000c198 <__umoddi3+0x5b8>
1000bee0:	00800204 	movi	r2,8
1000bee4:	1007883a 	mov	r3,r2
1000bee8:	003fad06 	br	1000bda0 <__alt_data_end+0xf800bda0>
1000beec:	3d0a983a 	sll	r5,r7,r20
1000bef0:	356cd83a 	srl	r22,r6,r21
1000bef4:	8d78d83a 	srl	fp,r17,r21
1000bef8:	8d10983a 	sll	r8,r17,r20
1000befc:	2dacb03a 	or	r22,r5,r22
1000bf00:	b02ed43a 	srli	r23,r22,16
1000bf04:	8564d83a 	srl	r18,r16,r21
1000bf08:	e009883a 	mov	r4,fp
1000bf0c:	b80b883a 	mov	r5,r23
1000bf10:	44a4b03a 	or	r18,r8,r18
1000bf14:	3526983a 	sll	r19,r6,r20
1000bf18:	000c3200 	call	1000c320 <__umodsi3>
1000bf1c:	e009883a 	mov	r4,fp
1000bf20:	b80b883a 	mov	r5,r23
1000bf24:	b47fffcc 	andi	r17,r22,65535
1000bf28:	d8800015 	stw	r2,0(sp)
1000bf2c:	000c3180 	call	1000c318 <__udivsi3>
1000bf30:	1009883a 	mov	r4,r2
1000bf34:	880b883a 	mov	r5,r17
1000bf38:	1039883a 	mov	fp,r2
1000bf3c:	000c3280 	call	1000c328 <__mulsi3>
1000bf40:	d9800017 	ldw	r6,0(sp)
1000bf44:	9008d43a 	srli	r4,r18,16
1000bf48:	8520983a 	sll	r16,r16,r20
1000bf4c:	300c943a 	slli	r6,r6,16
1000bf50:	3106b03a 	or	r3,r6,r4
1000bf54:	1880042e 	bgeu	r3,r2,1000bf68 <__umoddi3+0x388>
1000bf58:	1d87883a 	add	r3,r3,r22
1000bf5c:	e13fffc4 	addi	r4,fp,-1
1000bf60:	1d809a2e 	bgeu	r3,r22,1000c1cc <__umoddi3+0x5ec>
1000bf64:	2039883a 	mov	fp,r4
1000bf68:	1887c83a 	sub	r3,r3,r2
1000bf6c:	1809883a 	mov	r4,r3
1000bf70:	b80b883a 	mov	r5,r23
1000bf74:	d8c00115 	stw	r3,4(sp)
1000bf78:	000c3200 	call	1000c320 <__umodsi3>
1000bf7c:	d8c00117 	ldw	r3,4(sp)
1000bf80:	b80b883a 	mov	r5,r23
1000bf84:	d8800015 	stw	r2,0(sp)
1000bf88:	1809883a 	mov	r4,r3
1000bf8c:	000c3180 	call	1000c318 <__udivsi3>
1000bf90:	880b883a 	mov	r5,r17
1000bf94:	1009883a 	mov	r4,r2
1000bf98:	102f883a 	mov	r23,r2
1000bf9c:	000c3280 	call	1000c328 <__mulsi3>
1000bfa0:	d9800017 	ldw	r6,0(sp)
1000bfa4:	947fffcc 	andi	r17,r18,65535
1000bfa8:	300c943a 	slli	r6,r6,16
1000bfac:	3464b03a 	or	r18,r6,r17
1000bfb0:	9080042e 	bgeu	r18,r2,1000bfc4 <__umoddi3+0x3e4>
1000bfb4:	95a5883a 	add	r18,r18,r22
1000bfb8:	b8ffffc4 	addi	r3,r23,-1
1000bfbc:	95807f2e 	bgeu	r18,r22,1000c1bc <__umoddi3+0x5dc>
1000bfc0:	182f883a 	mov	r23,r3
1000bfc4:	e038943a 	slli	fp,fp,16
1000bfc8:	980cd43a 	srli	r6,r19,16
1000bfcc:	98ffffcc 	andi	r3,r19,65535
1000bfd0:	bf38b03a 	or	fp,r23,fp
1000bfd4:	e02ed43a 	srli	r23,fp,16
1000bfd8:	e73fffcc 	andi	fp,fp,65535
1000bfdc:	180b883a 	mov	r5,r3
1000bfe0:	e009883a 	mov	r4,fp
1000bfe4:	d9800015 	stw	r6,0(sp)
1000bfe8:	d8c00115 	stw	r3,4(sp)
1000bfec:	90a5c83a 	sub	r18,r18,r2
1000bff0:	000c3280 	call	1000c328 <__mulsi3>
1000bff4:	d8c00117 	ldw	r3,4(sp)
1000bff8:	b809883a 	mov	r4,r23
1000bffc:	1023883a 	mov	r17,r2
1000c000:	180b883a 	mov	r5,r3
1000c004:	000c3280 	call	1000c328 <__mulsi3>
1000c008:	d9800017 	ldw	r6,0(sp)
1000c00c:	b809883a 	mov	r4,r23
1000c010:	d8800115 	stw	r2,4(sp)
1000c014:	300b883a 	mov	r5,r6
1000c018:	302f883a 	mov	r23,r6
1000c01c:	000c3280 	call	1000c328 <__mulsi3>
1000c020:	e009883a 	mov	r4,fp
1000c024:	b80b883a 	mov	r5,r23
1000c028:	d8800015 	stw	r2,0(sp)
1000c02c:	000c3280 	call	1000c328 <__mulsi3>
1000c030:	d8c00117 	ldw	r3,4(sp)
1000c034:	880cd43a 	srli	r6,r17,16
1000c038:	d9c00017 	ldw	r7,0(sp)
1000c03c:	1885883a 	add	r2,r3,r2
1000c040:	118d883a 	add	r6,r2,r6
1000c044:	30c0022e 	bgeu	r6,r3,1000c050 <__umoddi3+0x470>
1000c048:	00800074 	movhi	r2,1
1000c04c:	388f883a 	add	r7,r7,r2
1000c050:	3006d43a 	srli	r3,r6,16
1000c054:	300c943a 	slli	r6,r6,16
1000c058:	8c7fffcc 	andi	r17,r17,65535
1000c05c:	38c7883a 	add	r3,r7,r3
1000c060:	3463883a 	add	r17,r6,r17
1000c064:	90c03d36 	bltu	r18,r3,1000c15c <__umoddi3+0x57c>
1000c068:	90c06026 	beq	r18,r3,1000c1ec <__umoddi3+0x60c>
1000c06c:	90c9c83a 	sub	r4,r18,r3
1000c070:	880f883a 	mov	r7,r17
1000c074:	81cfc83a 	sub	r7,r16,r7
1000c078:	81c7803a 	cmpltu	r3,r16,r7
1000c07c:	20c7c83a 	sub	r3,r4,r3
1000c080:	1d44983a 	sll	r2,r3,r21
1000c084:	3d0ed83a 	srl	r7,r7,r20
1000c088:	1d06d83a 	srl	r3,r3,r20
1000c08c:	11c4b03a 	or	r2,r2,r7
1000c090:	003f7a06 	br	1000be7c <__alt_data_end+0xf800be7c>
1000c094:	0025883a 	mov	r18,zero
1000c098:	003ef806 	br	1000bc7c <__alt_data_end+0xf800bc7c>
1000c09c:	98a6983a 	sll	r19,r19,r2
1000c0a0:	88e8d83a 	srl	r20,r17,r3
1000c0a4:	80c6d83a 	srl	r3,r16,r3
1000c0a8:	982ad43a 	srli	r21,r19,16
1000c0ac:	88a2983a 	sll	r17,r17,r2
1000c0b0:	a009883a 	mov	r4,r20
1000c0b4:	a80b883a 	mov	r5,r21
1000c0b8:	88eeb03a 	or	r23,r17,r3
1000c0bc:	1025883a 	mov	r18,r2
1000c0c0:	000c3200 	call	1000c320 <__umodsi3>
1000c0c4:	a009883a 	mov	r4,r20
1000c0c8:	a80b883a 	mov	r5,r21
1000c0cc:	1023883a 	mov	r17,r2
1000c0d0:	9dbfffcc 	andi	r22,r19,65535
1000c0d4:	000c3180 	call	1000c318 <__udivsi3>
1000c0d8:	1009883a 	mov	r4,r2
1000c0dc:	b00b883a 	mov	r5,r22
1000c0e0:	000c3280 	call	1000c328 <__mulsi3>
1000c0e4:	8822943a 	slli	r17,r17,16
1000c0e8:	b808d43a 	srli	r4,r23,16
1000c0ec:	84a8983a 	sll	r20,r16,r18
1000c0f0:	8906b03a 	or	r3,r17,r4
1000c0f4:	1880042e 	bgeu	r3,r2,1000c108 <__umoddi3+0x528>
1000c0f8:	1cc7883a 	add	r3,r3,r19
1000c0fc:	1cc00236 	bltu	r3,r19,1000c108 <__umoddi3+0x528>
1000c100:	1880012e 	bgeu	r3,r2,1000c108 <__umoddi3+0x528>
1000c104:	1cc7883a 	add	r3,r3,r19
1000c108:	18a1c83a 	sub	r16,r3,r2
1000c10c:	8009883a 	mov	r4,r16
1000c110:	a80b883a 	mov	r5,r21
1000c114:	000c3200 	call	1000c320 <__umodsi3>
1000c118:	8009883a 	mov	r4,r16
1000c11c:	a80b883a 	mov	r5,r21
1000c120:	1039883a 	mov	fp,r2
1000c124:	000c3180 	call	1000c318 <__udivsi3>
1000c128:	1009883a 	mov	r4,r2
1000c12c:	b00b883a 	mov	r5,r22
1000c130:	000c3280 	call	1000c328 <__mulsi3>
1000c134:	e006943a 	slli	r3,fp,16
1000c138:	b93fffcc 	andi	r4,r23,65535
1000c13c:	1906b03a 	or	r3,r3,r4
1000c140:	1880042e 	bgeu	r3,r2,1000c154 <__umoddi3+0x574>
1000c144:	1cc7883a 	add	r3,r3,r19
1000c148:	1cc00236 	bltu	r3,r19,1000c154 <__umoddi3+0x574>
1000c14c:	1880012e 	bgeu	r3,r2,1000c154 <__umoddi3+0x574>
1000c150:	1cc7883a 	add	r3,r3,r19
1000c154:	18a3c83a 	sub	r17,r3,r2
1000c158:	003f1e06 	br	1000bdd4 <__alt_data_end+0xf800bdd4>
1000c15c:	8ccfc83a 	sub	r7,r17,r19
1000c160:	1d89c83a 	sub	r4,r3,r22
1000c164:	89e3803a 	cmpltu	r17,r17,r7
1000c168:	2463c83a 	sub	r17,r4,r17
1000c16c:	9449c83a 	sub	r4,r18,r17
1000c170:	003fc006 	br	1000c074 <__alt_data_end+0xf800c074>
1000c174:	000b883a 	mov	r5,zero
1000c178:	002b883a 	mov	r21,zero
1000c17c:	003eeb06 	br	1000bd2c <__alt_data_end+0xf800bd2c>
1000c180:	01400404 	movi	r5,16
1000c184:	282b883a 	mov	r21,r5
1000c188:	003ee806 	br	1000bd2c <__alt_data_end+0xf800bd2c>
1000c18c:	01400404 	movi	r5,16
1000c190:	2805883a 	mov	r2,r5
1000c194:	003eaa06 	br	1000bc40 <__alt_data_end+0xf800bc40>
1000c198:	0005883a 	mov	r2,zero
1000c19c:	0007883a 	mov	r3,zero
1000c1a0:	003eff06 	br	1000bda0 <__alt_data_end+0xf800bda0>
1000c1a4:	00800404 	movi	r2,16
1000c1a8:	1007883a 	mov	r3,r2
1000c1ac:	003efc06 	br	1000bda0 <__alt_data_end+0xf800bda0>
1000c1b0:	000b883a 	mov	r5,zero
1000c1b4:	0005883a 	mov	r2,zero
1000c1b8:	003ea106 	br	1000bc40 <__alt_data_end+0xf800bc40>
1000c1bc:	90bf802e 	bgeu	r18,r2,1000bfc0 <__alt_data_end+0xf800bfc0>
1000c1c0:	bdffff84 	addi	r23,r23,-2
1000c1c4:	95a5883a 	add	r18,r18,r22
1000c1c8:	003f7e06 	br	1000bfc4 <__alt_data_end+0xf800bfc4>
1000c1cc:	18bf652e 	bgeu	r3,r2,1000bf64 <__alt_data_end+0xf800bf64>
1000c1d0:	e73fff84 	addi	fp,fp,-2
1000c1d4:	1d87883a 	add	r3,r3,r22
1000c1d8:	003f6306 	br	1000bf68 <__alt_data_end+0xf800bf68>
1000c1dc:	1cc7883a 	add	r3,r3,r19
1000c1e0:	003f0d06 	br	1000be18 <__alt_data_end+0xf800be18>
1000c1e4:	8005883a 	mov	r2,r16
1000c1e8:	003edf06 	br	1000bd68 <__alt_data_end+0xf800bd68>
1000c1ec:	847fdb36 	bltu	r16,r17,1000c15c <__alt_data_end+0xf800c15c>
1000c1f0:	880f883a 	mov	r7,r17
1000c1f4:	0009883a 	mov	r4,zero
1000c1f8:	003f9e06 	br	1000c074 <__alt_data_end+0xf800c074>

1000c1fc <udivmodsi4>:
1000c1fc:	2900182e 	bgeu	r5,r4,1000c260 <udivmodsi4+0x64>
1000c200:	28001716 	blt	r5,zero,1000c260 <udivmodsi4+0x64>
1000c204:	00800804 	movi	r2,32
1000c208:	00c00044 	movi	r3,1
1000c20c:	00000206 	br	1000c218 <udivmodsi4+0x1c>
1000c210:	10001126 	beq	r2,zero,1000c258 <udivmodsi4+0x5c>
1000c214:	28000516 	blt	r5,zero,1000c22c <udivmodsi4+0x30>
1000c218:	294b883a 	add	r5,r5,r5
1000c21c:	10bfffc4 	addi	r2,r2,-1
1000c220:	18c7883a 	add	r3,r3,r3
1000c224:	293ffa36 	bltu	r5,r4,1000c210 <__alt_data_end+0xf800c210>
1000c228:	18000b26 	beq	r3,zero,1000c258 <udivmodsi4+0x5c>
1000c22c:	0005883a 	mov	r2,zero
1000c230:	21400236 	bltu	r4,r5,1000c23c <udivmodsi4+0x40>
1000c234:	2149c83a 	sub	r4,r4,r5
1000c238:	10c4b03a 	or	r2,r2,r3
1000c23c:	1806d07a 	srli	r3,r3,1
1000c240:	280ad07a 	srli	r5,r5,1
1000c244:	183ffa1e 	bne	r3,zero,1000c230 <__alt_data_end+0xf800c230>
1000c248:	3000011e 	bne	r6,zero,1000c250 <udivmodsi4+0x54>
1000c24c:	f800283a 	ret
1000c250:	2005883a 	mov	r2,r4
1000c254:	f800283a 	ret
1000c258:	0005883a 	mov	r2,zero
1000c25c:	003ffa06 	br	1000c248 <__alt_data_end+0xf800c248>
1000c260:	00c00044 	movi	r3,1
1000c264:	003ff106 	br	1000c22c <__alt_data_end+0xf800c22c>

1000c268 <__divsi3>:
1000c268:	defffe04 	addi	sp,sp,-8
1000c26c:	dfc00115 	stw	ra,4(sp)
1000c270:	dc000015 	stw	r16,0(sp)
1000c274:	20000b16 	blt	r4,zero,1000c2a4 <__divsi3+0x3c>
1000c278:	0021883a 	mov	r16,zero
1000c27c:	28000c16 	blt	r5,zero,1000c2b0 <__divsi3+0x48>
1000c280:	000d883a 	mov	r6,zero
1000c284:	000c1fc0 	call	1000c1fc <udivmodsi4>
1000c288:	0407c83a 	sub	r3,zero,r16
1000c28c:	1884f03a 	xor	r2,r3,r2
1000c290:	1405883a 	add	r2,r2,r16
1000c294:	dfc00117 	ldw	ra,4(sp)
1000c298:	dc000017 	ldw	r16,0(sp)
1000c29c:	dec00204 	addi	sp,sp,8
1000c2a0:	f800283a 	ret
1000c2a4:	0109c83a 	sub	r4,zero,r4
1000c2a8:	04000044 	movi	r16,1
1000c2ac:	283ff40e 	bge	r5,zero,1000c280 <__alt_data_end+0xf800c280>
1000c2b0:	014bc83a 	sub	r5,zero,r5
1000c2b4:	8400005c 	xori	r16,r16,1
1000c2b8:	003ff106 	br	1000c280 <__alt_data_end+0xf800c280>

1000c2bc <__modsi3>:
1000c2bc:	defffd04 	addi	sp,sp,-12
1000c2c0:	dfc00215 	stw	ra,8(sp)
1000c2c4:	dc400115 	stw	r17,4(sp)
1000c2c8:	dc000015 	stw	r16,0(sp)
1000c2cc:	20000c16 	blt	r4,zero,1000c300 <__modsi3+0x44>
1000c2d0:	0023883a 	mov	r17,zero
1000c2d4:	0021883a 	mov	r16,zero
1000c2d8:	28000d16 	blt	r5,zero,1000c310 <__modsi3+0x54>
1000c2dc:	01800044 	movi	r6,1
1000c2e0:	000c1fc0 	call	1000c1fc <udivmodsi4>
1000c2e4:	1404f03a 	xor	r2,r2,r16
1000c2e8:	8885883a 	add	r2,r17,r2
1000c2ec:	dfc00217 	ldw	ra,8(sp)
1000c2f0:	dc400117 	ldw	r17,4(sp)
1000c2f4:	dc000017 	ldw	r16,0(sp)
1000c2f8:	dec00304 	addi	sp,sp,12
1000c2fc:	f800283a 	ret
1000c300:	0109c83a 	sub	r4,zero,r4
1000c304:	04400044 	movi	r17,1
1000c308:	043fffc4 	movi	r16,-1
1000c30c:	283ff30e 	bge	r5,zero,1000c2dc <__alt_data_end+0xf800c2dc>
1000c310:	014bc83a 	sub	r5,zero,r5
1000c314:	003ff106 	br	1000c2dc <__alt_data_end+0xf800c2dc>

1000c318 <__udivsi3>:
1000c318:	000d883a 	mov	r6,zero
1000c31c:	000c1fc1 	jmpi	1000c1fc <udivmodsi4>

1000c320 <__umodsi3>:
1000c320:	01800044 	movi	r6,1
1000c324:	000c1fc1 	jmpi	1000c1fc <udivmodsi4>

1000c328 <__mulsi3>:
1000c328:	0005883a 	mov	r2,zero
1000c32c:	20000726 	beq	r4,zero,1000c34c <__mulsi3+0x24>
1000c330:	20c0004c 	andi	r3,r4,1
1000c334:	2008d07a 	srli	r4,r4,1
1000c338:	18000126 	beq	r3,zero,1000c340 <__mulsi3+0x18>
1000c33c:	1145883a 	add	r2,r2,r5
1000c340:	294b883a 	add	r5,r5,r5
1000c344:	203ffa1e 	bne	r4,zero,1000c330 <__alt_data_end+0xf800c330>
1000c348:	f800283a 	ret
1000c34c:	f800283a 	ret

1000c350 <__adddf3>:
1000c350:	02000434 	movhi	r8,16
1000c354:	423fffc4 	addi	r8,r8,-1
1000c358:	defffb04 	addi	sp,sp,-20
1000c35c:	2a12703a 	and	r9,r5,r8
1000c360:	2806d7fa 	srli	r3,r5,31
1000c364:	3a10703a 	and	r8,r7,r8
1000c368:	3804d53a 	srli	r2,r7,20
1000c36c:	3014d77a 	srli	r10,r6,29
1000c370:	dc000015 	stw	r16,0(sp)
1000c374:	481290fa 	slli	r9,r9,3
1000c378:	2820d53a 	srli	r16,r5,20
1000c37c:	401090fa 	slli	r8,r8,3
1000c380:	200ad77a 	srli	r5,r4,29
1000c384:	380ed7fa 	srli	r7,r7,31
1000c388:	dc800215 	stw	r18,8(sp)
1000c38c:	dc400115 	stw	r17,4(sp)
1000c390:	dfc00415 	stw	ra,16(sp)
1000c394:	dcc00315 	stw	r19,12(sp)
1000c398:	1c803fcc 	andi	r18,r3,255
1000c39c:	8401ffcc 	andi	r16,r16,2047
1000c3a0:	494ab03a 	or	r5,r9,r5
1000c3a4:	202290fa 	slli	r17,r4,3
1000c3a8:	1081ffcc 	andi	r2,r2,2047
1000c3ac:	4290b03a 	or	r8,r8,r10
1000c3b0:	300c90fa 	slli	r6,r6,3
1000c3b4:	91c07026 	beq	r18,r7,1000c578 <__adddf3+0x228>
1000c3b8:	8087c83a 	sub	r3,r16,r2
1000c3bc:	00c0b30e 	bge	zero,r3,1000c68c <__adddf3+0x33c>
1000c3c0:	10002a1e 	bne	r2,zero,1000c46c <__adddf3+0x11c>
1000c3c4:	4184b03a 	or	r2,r8,r6
1000c3c8:	1000991e 	bne	r2,zero,1000c630 <__adddf3+0x2e0>
1000c3cc:	888001cc 	andi	r2,r17,7
1000c3d0:	10005b26 	beq	r2,zero,1000c540 <__adddf3+0x1f0>
1000c3d4:	88c003cc 	andi	r3,r17,15
1000c3d8:	00800104 	movi	r2,4
1000c3dc:	18805826 	beq	r3,r2,1000c540 <__adddf3+0x1f0>
1000c3e0:	89800104 	addi	r6,r17,4
1000c3e4:	3463803a 	cmpltu	r17,r6,r17
1000c3e8:	2c4b883a 	add	r5,r5,r17
1000c3ec:	2880202c 	andhi	r2,r5,128
1000c3f0:	9007883a 	mov	r3,r18
1000c3f4:	3023883a 	mov	r17,r6
1000c3f8:	10005426 	beq	r2,zero,1000c54c <__adddf3+0x1fc>
1000c3fc:	84000044 	addi	r16,r16,1
1000c400:	0081ffc4 	movi	r2,2047
1000c404:	8080c126 	beq	r16,r2,1000c70c <__adddf3+0x3bc>
1000c408:	013fe034 	movhi	r4,65408
1000c40c:	213fffc4 	addi	r4,r4,-1
1000c410:	290a703a 	and	r5,r5,r4
1000c414:	2804977a 	slli	r2,r5,29
1000c418:	280a927a 	slli	r5,r5,9
1000c41c:	8822d0fa 	srli	r17,r17,3
1000c420:	8401ffcc 	andi	r16,r16,2047
1000c424:	2808d33a 	srli	r4,r5,12
1000c428:	1444b03a 	or	r2,r2,r17
1000c42c:	8401ffcc 	andi	r16,r16,2047
1000c430:	800a953a 	slli	r5,r16,20
1000c434:	18c03fcc 	andi	r3,r3,255
1000c438:	04000434 	movhi	r16,16
1000c43c:	180697fa 	slli	r3,r3,31
1000c440:	843fffc4 	addi	r16,r16,-1
1000c444:	2420703a 	and	r16,r4,r16
1000c448:	8160b03a 	or	r16,r16,r5
1000c44c:	80c6b03a 	or	r3,r16,r3
1000c450:	dfc00417 	ldw	ra,16(sp)
1000c454:	dcc00317 	ldw	r19,12(sp)
1000c458:	dc800217 	ldw	r18,8(sp)
1000c45c:	dc400117 	ldw	r17,4(sp)
1000c460:	dc000017 	ldw	r16,0(sp)
1000c464:	dec00504 	addi	sp,sp,20
1000c468:	f800283a 	ret
1000c46c:	0081ffc4 	movi	r2,2047
1000c470:	80bfd626 	beq	r16,r2,1000c3cc <__alt_data_end+0xf800c3cc>
1000c474:	42002034 	orhi	r8,r8,128
1000c478:	00800e04 	movi	r2,56
1000c47c:	10c0a616 	blt	r2,r3,1000c718 <__adddf3+0x3c8>
1000c480:	008007c4 	movi	r2,31
1000c484:	10c0c916 	blt	r2,r3,1000c7ac <__adddf3+0x45c>
1000c488:	00800804 	movi	r2,32
1000c48c:	10c5c83a 	sub	r2,r2,r3
1000c490:	408e983a 	sll	r7,r8,r2
1000c494:	30c8d83a 	srl	r4,r6,r3
1000c498:	3084983a 	sll	r2,r6,r2
1000c49c:	40c6d83a 	srl	r3,r8,r3
1000c4a0:	390cb03a 	or	r6,r7,r4
1000c4a4:	1004c03a 	cmpne	r2,r2,zero
1000c4a8:	308cb03a 	or	r6,r6,r2
1000c4ac:	898dc83a 	sub	r6,r17,r6
1000c4b0:	89a3803a 	cmpltu	r17,r17,r6
1000c4b4:	28cbc83a 	sub	r5,r5,r3
1000c4b8:	2c4bc83a 	sub	r5,r5,r17
1000c4bc:	3023883a 	mov	r17,r6
1000c4c0:	2880202c 	andhi	r2,r5,128
1000c4c4:	10006d26 	beq	r2,zero,1000c67c <__adddf3+0x32c>
1000c4c8:	04c02034 	movhi	r19,128
1000c4cc:	9cffffc4 	addi	r19,r19,-1
1000c4d0:	2ce6703a 	and	r19,r5,r19
1000c4d4:	98007e26 	beq	r19,zero,1000c6d0 <__adddf3+0x380>
1000c4d8:	9809883a 	mov	r4,r19
1000c4dc:	000eae80 	call	1000eae8 <__clzsi2>
1000c4e0:	10fffe04 	addi	r3,r2,-8
1000c4e4:	010007c4 	movi	r4,31
1000c4e8:	20c07f16 	blt	r4,r3,1000c6e8 <__adddf3+0x398>
1000c4ec:	01400a04 	movi	r5,40
1000c4f0:	2885c83a 	sub	r2,r5,r2
1000c4f4:	888ad83a 	srl	r5,r17,r2
1000c4f8:	98e6983a 	sll	r19,r19,r3
1000c4fc:	88e2983a 	sll	r17,r17,r3
1000c500:	2ce6b03a 	or	r19,r5,r19
1000c504:	1c007c16 	blt	r3,r16,1000c6f8 <__adddf3+0x3a8>
1000c508:	1c21c83a 	sub	r16,r3,r16
1000c50c:	81400044 	addi	r5,r16,1
1000c510:	00c007c4 	movi	r3,31
1000c514:	19409816 	blt	r3,r5,1000c778 <__adddf3+0x428>
1000c518:	1c21c83a 	sub	r16,r3,r16
1000c51c:	8c08983a 	sll	r4,r17,r16
1000c520:	8946d83a 	srl	r3,r17,r5
1000c524:	9c20983a 	sll	r16,r19,r16
1000c528:	2008c03a 	cmpne	r4,r4,zero
1000c52c:	994ad83a 	srl	r5,r19,r5
1000c530:	1c06b03a 	or	r3,r3,r16
1000c534:	1922b03a 	or	r17,r3,r4
1000c538:	0021883a 	mov	r16,zero
1000c53c:	003fa306 	br	1000c3cc <__alt_data_end+0xf800c3cc>
1000c540:	2880202c 	andhi	r2,r5,128
1000c544:	9007883a 	mov	r3,r18
1000c548:	103fac1e 	bne	r2,zero,1000c3fc <__alt_data_end+0xf800c3fc>
1000c54c:	2804977a 	slli	r2,r5,29
1000c550:	8822d0fa 	srli	r17,r17,3
1000c554:	0101ffc4 	movi	r4,2047
1000c558:	280ad0fa 	srli	r5,r5,3
1000c55c:	1444b03a 	or	r2,r2,r17
1000c560:	81002c26 	beq	r16,r4,1000c614 <__adddf3+0x2c4>
1000c564:	8120703a 	and	r16,r16,r4
1000c568:	01000434 	movhi	r4,16
1000c56c:	213fffc4 	addi	r4,r4,-1
1000c570:	2908703a 	and	r4,r5,r4
1000c574:	003fad06 	br	1000c42c <__alt_data_end+0xf800c42c>
1000c578:	8089c83a 	sub	r4,r16,r2
1000c57c:	01006a0e 	bge	zero,r4,1000c728 <__adddf3+0x3d8>
1000c580:	10003326 	beq	r2,zero,1000c650 <__adddf3+0x300>
1000c584:	0081ffc4 	movi	r2,2047
1000c588:	80bf9026 	beq	r16,r2,1000c3cc <__alt_data_end+0xf800c3cc>
1000c58c:	42002034 	orhi	r8,r8,128
1000c590:	00800e04 	movi	r2,56
1000c594:	1100b116 	blt	r2,r4,1000c85c <__adddf3+0x50c>
1000c598:	008007c4 	movi	r2,31
1000c59c:	1100e216 	blt	r2,r4,1000c928 <__adddf3+0x5d8>
1000c5a0:	00800804 	movi	r2,32
1000c5a4:	1105c83a 	sub	r2,r2,r4
1000c5a8:	4092983a 	sll	r9,r8,r2
1000c5ac:	310ed83a 	srl	r7,r6,r4
1000c5b0:	3084983a 	sll	r2,r6,r2
1000c5b4:	4110d83a 	srl	r8,r8,r4
1000c5b8:	49ccb03a 	or	r6,r9,r7
1000c5bc:	1004c03a 	cmpne	r2,r2,zero
1000c5c0:	308cb03a 	or	r6,r6,r2
1000c5c4:	344d883a 	add	r6,r6,r17
1000c5c8:	3463803a 	cmpltu	r17,r6,r17
1000c5cc:	414b883a 	add	r5,r8,r5
1000c5d0:	2c4b883a 	add	r5,r5,r17
1000c5d4:	3023883a 	mov	r17,r6
1000c5d8:	2880202c 	andhi	r2,r5,128
1000c5dc:	10002726 	beq	r2,zero,1000c67c <__adddf3+0x32c>
1000c5e0:	84000044 	addi	r16,r16,1
1000c5e4:	0081ffc4 	movi	r2,2047
1000c5e8:	8080ae26 	beq	r16,r2,1000c8a4 <__adddf3+0x554>
1000c5ec:	00bfe034 	movhi	r2,65408
1000c5f0:	10bfffc4 	addi	r2,r2,-1
1000c5f4:	288a703a 	and	r5,r5,r2
1000c5f8:	880cd07a 	srli	r6,r17,1
1000c5fc:	280897fa 	slli	r4,r5,31
1000c600:	88c0004c 	andi	r3,r17,1
1000c604:	30e2b03a 	or	r17,r6,r3
1000c608:	280ad07a 	srli	r5,r5,1
1000c60c:	8922b03a 	or	r17,r17,r4
1000c610:	003f6e06 	br	1000c3cc <__alt_data_end+0xf800c3cc>
1000c614:	1148b03a 	or	r4,r2,r5
1000c618:	20003c26 	beq	r4,zero,1000c70c <__adddf3+0x3bc>
1000c61c:	29000234 	orhi	r4,r5,8
1000c620:	01400434 	movhi	r5,16
1000c624:	297fffc4 	addi	r5,r5,-1
1000c628:	2148703a 	and	r4,r4,r5
1000c62c:	003f7f06 	br	1000c42c <__alt_data_end+0xf800c42c>
1000c630:	18ffffc4 	addi	r3,r3,-1
1000c634:	18004d1e 	bne	r3,zero,1000c76c <__adddf3+0x41c>
1000c638:	898dc83a 	sub	r6,r17,r6
1000c63c:	89a3803a 	cmpltu	r17,r17,r6
1000c640:	2a0bc83a 	sub	r5,r5,r8
1000c644:	2c4bc83a 	sub	r5,r5,r17
1000c648:	3023883a 	mov	r17,r6
1000c64c:	003f9c06 	br	1000c4c0 <__alt_data_end+0xf800c4c0>
1000c650:	4184b03a 	or	r2,r8,r6
1000c654:	103f5d26 	beq	r2,zero,1000c3cc <__alt_data_end+0xf800c3cc>
1000c658:	213fffc4 	addi	r4,r4,-1
1000c65c:	203fd926 	beq	r4,zero,1000c5c4 <__alt_data_end+0xf800c5c4>
1000c660:	0081ffc4 	movi	r2,2047
1000c664:	80bfca1e 	bne	r16,r2,1000c590 <__alt_data_end+0xf800c590>
1000c668:	003f5806 	br	1000c3cc <__alt_data_end+0xf800c3cc>
1000c66c:	10c8b03a 	or	r4,r2,r3
1000c670:	20008b26 	beq	r4,zero,1000c8a0 <__adddf3+0x550>
1000c674:	100b883a 	mov	r5,r2
1000c678:	1823883a 	mov	r17,r3
1000c67c:	888001cc 	andi	r2,r17,7
1000c680:	103f541e 	bne	r2,zero,1000c3d4 <__alt_data_end+0xf800c3d4>
1000c684:	9007883a 	mov	r3,r18
1000c688:	003fb006 	br	1000c54c <__alt_data_end+0xf800c54c>
1000c68c:	1800531e 	bne	r3,zero,1000c7dc <__adddf3+0x48c>
1000c690:	80800044 	addi	r2,r16,1
1000c694:	1081ffcc 	andi	r2,r2,2047
1000c698:	00c00044 	movi	r3,1
1000c69c:	1880990e 	bge	r3,r2,1000c904 <__adddf3+0x5b4>
1000c6a0:	8985c83a 	sub	r2,r17,r6
1000c6a4:	8887803a 	cmpltu	r3,r17,r2
1000c6a8:	2a27c83a 	sub	r19,r5,r8
1000c6ac:	98e7c83a 	sub	r19,r19,r3
1000c6b0:	98c0202c 	andhi	r3,r19,128
1000c6b4:	18006226 	beq	r3,zero,1000c840 <__adddf3+0x4f0>
1000c6b8:	3463c83a 	sub	r17,r6,r17
1000c6bc:	4151c83a 	sub	r8,r8,r5
1000c6c0:	344d803a 	cmpltu	r6,r6,r17
1000c6c4:	41a7c83a 	sub	r19,r8,r6
1000c6c8:	3825883a 	mov	r18,r7
1000c6cc:	983f821e 	bne	r19,zero,1000c4d8 <__alt_data_end+0xf800c4d8>
1000c6d0:	8809883a 	mov	r4,r17
1000c6d4:	000eae80 	call	1000eae8 <__clzsi2>
1000c6d8:	10800804 	addi	r2,r2,32
1000c6dc:	10fffe04 	addi	r3,r2,-8
1000c6e0:	010007c4 	movi	r4,31
1000c6e4:	20ff810e 	bge	r4,r3,1000c4ec <__alt_data_end+0xf800c4ec>
1000c6e8:	14fff604 	addi	r19,r2,-40
1000c6ec:	8ce6983a 	sll	r19,r17,r19
1000c6f0:	0023883a 	mov	r17,zero
1000c6f4:	1c3f840e 	bge	r3,r16,1000c508 <__alt_data_end+0xf800c508>
1000c6f8:	017fe034 	movhi	r5,65408
1000c6fc:	297fffc4 	addi	r5,r5,-1
1000c700:	80e1c83a 	sub	r16,r16,r3
1000c704:	994a703a 	and	r5,r19,r5
1000c708:	003f3006 	br	1000c3cc <__alt_data_end+0xf800c3cc>
1000c70c:	0009883a 	mov	r4,zero
1000c710:	0005883a 	mov	r2,zero
1000c714:	003f4506 	br	1000c42c <__alt_data_end+0xf800c42c>
1000c718:	418cb03a 	or	r6,r8,r6
1000c71c:	300cc03a 	cmpne	r6,r6,zero
1000c720:	0007883a 	mov	r3,zero
1000c724:	003f6106 	br	1000c4ac <__alt_data_end+0xf800c4ac>
1000c728:	2000921e 	bne	r4,zero,1000c974 <__adddf3+0x624>
1000c72c:	80800044 	addi	r2,r16,1
1000c730:	11c1ffcc 	andi	r7,r2,2047
1000c734:	01000044 	movi	r4,1
1000c738:	21c0610e 	bge	r4,r7,1000c8c0 <__adddf3+0x570>
1000c73c:	0101ffc4 	movi	r4,2047
1000c740:	1100a326 	beq	r2,r4,1000c9d0 <__adddf3+0x680>
1000c744:	344d883a 	add	r6,r6,r17
1000c748:	3463803a 	cmpltu	r17,r6,r17
1000c74c:	414b883a 	add	r5,r8,r5
1000c750:	2c4b883a 	add	r5,r5,r17
1000c754:	282297fa 	slli	r17,r5,31
1000c758:	300cd07a 	srli	r6,r6,1
1000c75c:	280ad07a 	srli	r5,r5,1
1000c760:	1021883a 	mov	r16,r2
1000c764:	89a2b03a 	or	r17,r17,r6
1000c768:	003f1806 	br	1000c3cc <__alt_data_end+0xf800c3cc>
1000c76c:	0081ffc4 	movi	r2,2047
1000c770:	80bf411e 	bne	r16,r2,1000c478 <__alt_data_end+0xf800c478>
1000c774:	003f1506 	br	1000c3cc <__alt_data_end+0xf800c3cc>
1000c778:	80bff844 	addi	r2,r16,-31
1000c77c:	00c00804 	movi	r3,32
1000c780:	9884d83a 	srl	r2,r19,r2
1000c784:	28c04a26 	beq	r5,r3,1000c8b0 <__adddf3+0x560>
1000c788:	00c00fc4 	movi	r3,63
1000c78c:	1c21c83a 	sub	r16,r3,r16
1000c790:	9c26983a 	sll	r19,r19,r16
1000c794:	9c62b03a 	or	r17,r19,r17
1000c798:	8822c03a 	cmpne	r17,r17,zero
1000c79c:	88a2b03a 	or	r17,r17,r2
1000c7a0:	000b883a 	mov	r5,zero
1000c7a4:	0021883a 	mov	r16,zero
1000c7a8:	003fb406 	br	1000c67c <__alt_data_end+0xf800c67c>
1000c7ac:	18bff804 	addi	r2,r3,-32
1000c7b0:	01000804 	movi	r4,32
1000c7b4:	4084d83a 	srl	r2,r8,r2
1000c7b8:	19003f26 	beq	r3,r4,1000c8b8 <__adddf3+0x568>
1000c7bc:	01001004 	movi	r4,64
1000c7c0:	20c7c83a 	sub	r3,r4,r3
1000c7c4:	40d0983a 	sll	r8,r8,r3
1000c7c8:	418cb03a 	or	r6,r8,r6
1000c7cc:	300cc03a 	cmpne	r6,r6,zero
1000c7d0:	308cb03a 	or	r6,r6,r2
1000c7d4:	0007883a 	mov	r3,zero
1000c7d8:	003f3406 	br	1000c4ac <__alt_data_end+0xf800c4ac>
1000c7dc:	80002326 	beq	r16,zero,1000c86c <__adddf3+0x51c>
1000c7e0:	0101ffc4 	movi	r4,2047
1000c7e4:	11005e26 	beq	r2,r4,1000c960 <__adddf3+0x610>
1000c7e8:	00c7c83a 	sub	r3,zero,r3
1000c7ec:	29402034 	orhi	r5,r5,128
1000c7f0:	01000e04 	movi	r4,56
1000c7f4:	20c07216 	blt	r4,r3,1000c9c0 <__adddf3+0x670>
1000c7f8:	010007c4 	movi	r4,31
1000c7fc:	20c0ce16 	blt	r4,r3,1000cb38 <__adddf3+0x7e8>
1000c800:	01000804 	movi	r4,32
1000c804:	20c9c83a 	sub	r4,r4,r3
1000c808:	2914983a 	sll	r10,r5,r4
1000c80c:	88d2d83a 	srl	r9,r17,r3
1000c810:	8908983a 	sll	r4,r17,r4
1000c814:	28c6d83a 	srl	r3,r5,r3
1000c818:	5262b03a 	or	r17,r10,r9
1000c81c:	2008c03a 	cmpne	r4,r4,zero
1000c820:	8922b03a 	or	r17,r17,r4
1000c824:	3463c83a 	sub	r17,r6,r17
1000c828:	40c7c83a 	sub	r3,r8,r3
1000c82c:	344d803a 	cmpltu	r6,r6,r17
1000c830:	198bc83a 	sub	r5,r3,r6
1000c834:	1021883a 	mov	r16,r2
1000c838:	3825883a 	mov	r18,r7
1000c83c:	003f2006 	br	1000c4c0 <__alt_data_end+0xf800c4c0>
1000c840:	9886b03a 	or	r3,r19,r2
1000c844:	1800141e 	bne	r3,zero,1000c898 <__adddf3+0x548>
1000c848:	0007883a 	mov	r3,zero
1000c84c:	000b883a 	mov	r5,zero
1000c850:	0023883a 	mov	r17,zero
1000c854:	0021883a 	mov	r16,zero
1000c858:	003f3c06 	br	1000c54c <__alt_data_end+0xf800c54c>
1000c85c:	418cb03a 	or	r6,r8,r6
1000c860:	300cc03a 	cmpne	r6,r6,zero
1000c864:	0011883a 	mov	r8,zero
1000c868:	003f5606 	br	1000c5c4 <__alt_data_end+0xf800c5c4>
1000c86c:	2c48b03a 	or	r4,r5,r17
1000c870:	20003b26 	beq	r4,zero,1000c960 <__adddf3+0x610>
1000c874:	00c6303a 	nor	r3,zero,r3
1000c878:	1800371e 	bne	r3,zero,1000c958 <__adddf3+0x608>
1000c87c:	3463c83a 	sub	r17,r6,r17
1000c880:	414bc83a 	sub	r5,r8,r5
1000c884:	344d803a 	cmpltu	r6,r6,r17
1000c888:	298bc83a 	sub	r5,r5,r6
1000c88c:	1021883a 	mov	r16,r2
1000c890:	3825883a 	mov	r18,r7
1000c894:	003f0a06 	br	1000c4c0 <__alt_data_end+0xf800c4c0>
1000c898:	1023883a 	mov	r17,r2
1000c89c:	003f0d06 	br	1000c4d4 <__alt_data_end+0xf800c4d4>
1000c8a0:	0007883a 	mov	r3,zero
1000c8a4:	000b883a 	mov	r5,zero
1000c8a8:	0023883a 	mov	r17,zero
1000c8ac:	003f2706 	br	1000c54c <__alt_data_end+0xf800c54c>
1000c8b0:	0027883a 	mov	r19,zero
1000c8b4:	003fb706 	br	1000c794 <__alt_data_end+0xf800c794>
1000c8b8:	0011883a 	mov	r8,zero
1000c8bc:	003fc206 	br	1000c7c8 <__alt_data_end+0xf800c7c8>
1000c8c0:	2c44b03a 	or	r2,r5,r17
1000c8c4:	8000871e 	bne	r16,zero,1000cae4 <__adddf3+0x794>
1000c8c8:	1000b126 	beq	r2,zero,1000cb90 <__adddf3+0x840>
1000c8cc:	4184b03a 	or	r2,r8,r6
1000c8d0:	103ebe26 	beq	r2,zero,1000c3cc <__alt_data_end+0xf800c3cc>
1000c8d4:	3445883a 	add	r2,r6,r17
1000c8d8:	1463803a 	cmpltu	r17,r2,r17
1000c8dc:	414b883a 	add	r5,r8,r5
1000c8e0:	2c4b883a 	add	r5,r5,r17
1000c8e4:	28c0202c 	andhi	r3,r5,128
1000c8e8:	1023883a 	mov	r17,r2
1000c8ec:	183f6326 	beq	r3,zero,1000c67c <__alt_data_end+0xf800c67c>
1000c8f0:	00bfe034 	movhi	r2,65408
1000c8f4:	10bfffc4 	addi	r2,r2,-1
1000c8f8:	2021883a 	mov	r16,r4
1000c8fc:	288a703a 	and	r5,r5,r2
1000c900:	003eb206 	br	1000c3cc <__alt_data_end+0xf800c3cc>
1000c904:	2c44b03a 	or	r2,r5,r17
1000c908:	8000251e 	bne	r16,zero,1000c9a0 <__adddf3+0x650>
1000c90c:	10004b1e 	bne	r2,zero,1000ca3c <__adddf3+0x6ec>
1000c910:	4184b03a 	or	r2,r8,r6
1000c914:	103fe226 	beq	r2,zero,1000c8a0 <__alt_data_end+0xf800c8a0>
1000c918:	400b883a 	mov	r5,r8
1000c91c:	3023883a 	mov	r17,r6
1000c920:	3825883a 	mov	r18,r7
1000c924:	003ea906 	br	1000c3cc <__alt_data_end+0xf800c3cc>
1000c928:	20bff804 	addi	r2,r4,-32
1000c92c:	01c00804 	movi	r7,32
1000c930:	4084d83a 	srl	r2,r8,r2
1000c934:	21c07e26 	beq	r4,r7,1000cb30 <__adddf3+0x7e0>
1000c938:	01c01004 	movi	r7,64
1000c93c:	3909c83a 	sub	r4,r7,r4
1000c940:	4110983a 	sll	r8,r8,r4
1000c944:	418cb03a 	or	r6,r8,r6
1000c948:	300cc03a 	cmpne	r6,r6,zero
1000c94c:	308cb03a 	or	r6,r6,r2
1000c950:	0011883a 	mov	r8,zero
1000c954:	003f1b06 	br	1000c5c4 <__alt_data_end+0xf800c5c4>
1000c958:	0101ffc4 	movi	r4,2047
1000c95c:	113fa41e 	bne	r2,r4,1000c7f0 <__alt_data_end+0xf800c7f0>
1000c960:	400b883a 	mov	r5,r8
1000c964:	3023883a 	mov	r17,r6
1000c968:	1021883a 	mov	r16,r2
1000c96c:	3825883a 	mov	r18,r7
1000c970:	003e9606 	br	1000c3cc <__alt_data_end+0xf800c3cc>
1000c974:	80001a1e 	bne	r16,zero,1000c9e0 <__adddf3+0x690>
1000c978:	2c4eb03a 	or	r7,r5,r17
1000c97c:	38005526 	beq	r7,zero,1000cad4 <__adddf3+0x784>
1000c980:	0108303a 	nor	r4,zero,r4
1000c984:	2000511e 	bne	r4,zero,1000cacc <__adddf3+0x77c>
1000c988:	89a3883a 	add	r17,r17,r6
1000c98c:	414b883a 	add	r5,r8,r5
1000c990:	898d803a 	cmpltu	r6,r17,r6
1000c994:	298b883a 	add	r5,r5,r6
1000c998:	1021883a 	mov	r16,r2
1000c99c:	003f0e06 	br	1000c5d8 <__alt_data_end+0xf800c5d8>
1000c9a0:	1000341e 	bne	r2,zero,1000ca74 <__adddf3+0x724>
1000c9a4:	4184b03a 	or	r2,r8,r6
1000c9a8:	10006f26 	beq	r2,zero,1000cb68 <__adddf3+0x818>
1000c9ac:	400b883a 	mov	r5,r8
1000c9b0:	3023883a 	mov	r17,r6
1000c9b4:	3825883a 	mov	r18,r7
1000c9b8:	0401ffc4 	movi	r16,2047
1000c9bc:	003e8306 	br	1000c3cc <__alt_data_end+0xf800c3cc>
1000c9c0:	2c62b03a 	or	r17,r5,r17
1000c9c4:	8822c03a 	cmpne	r17,r17,zero
1000c9c8:	0007883a 	mov	r3,zero
1000c9cc:	003f9506 	br	1000c824 <__alt_data_end+0xf800c824>
1000c9d0:	1021883a 	mov	r16,r2
1000c9d4:	000b883a 	mov	r5,zero
1000c9d8:	0023883a 	mov	r17,zero
1000c9dc:	003edb06 	br	1000c54c <__alt_data_end+0xf800c54c>
1000c9e0:	01c1ffc4 	movi	r7,2047
1000c9e4:	11c03b26 	beq	r2,r7,1000cad4 <__adddf3+0x784>
1000c9e8:	0109c83a 	sub	r4,zero,r4
1000c9ec:	29402034 	orhi	r5,r5,128
1000c9f0:	01c00e04 	movi	r7,56
1000c9f4:	39006216 	blt	r7,r4,1000cb80 <__adddf3+0x830>
1000c9f8:	01c007c4 	movi	r7,31
1000c9fc:	39006b16 	blt	r7,r4,1000cbac <__adddf3+0x85c>
1000ca00:	01c00804 	movi	r7,32
1000ca04:	390fc83a 	sub	r7,r7,r4
1000ca08:	29d4983a 	sll	r10,r5,r7
1000ca0c:	8912d83a 	srl	r9,r17,r4
1000ca10:	89ce983a 	sll	r7,r17,r7
1000ca14:	2908d83a 	srl	r4,r5,r4
1000ca18:	5262b03a 	or	r17,r10,r9
1000ca1c:	380ac03a 	cmpne	r5,r7,zero
1000ca20:	8962b03a 	or	r17,r17,r5
1000ca24:	89a3883a 	add	r17,r17,r6
1000ca28:	2211883a 	add	r8,r4,r8
1000ca2c:	898d803a 	cmpltu	r6,r17,r6
1000ca30:	418b883a 	add	r5,r8,r6
1000ca34:	1021883a 	mov	r16,r2
1000ca38:	003ee706 	br	1000c5d8 <__alt_data_end+0xf800c5d8>
1000ca3c:	4184b03a 	or	r2,r8,r6
1000ca40:	103e6226 	beq	r2,zero,1000c3cc <__alt_data_end+0xf800c3cc>
1000ca44:	8987c83a 	sub	r3,r17,r6
1000ca48:	88c9803a 	cmpltu	r4,r17,r3
1000ca4c:	2a05c83a 	sub	r2,r5,r8
1000ca50:	1105c83a 	sub	r2,r2,r4
1000ca54:	1100202c 	andhi	r4,r2,128
1000ca58:	203f0426 	beq	r4,zero,1000c66c <__alt_data_end+0xf800c66c>
1000ca5c:	3463c83a 	sub	r17,r6,r17
1000ca60:	414bc83a 	sub	r5,r8,r5
1000ca64:	344d803a 	cmpltu	r6,r6,r17
1000ca68:	298bc83a 	sub	r5,r5,r6
1000ca6c:	3825883a 	mov	r18,r7
1000ca70:	003e5606 	br	1000c3cc <__alt_data_end+0xf800c3cc>
1000ca74:	4184b03a 	or	r2,r8,r6
1000ca78:	10002b26 	beq	r2,zero,1000cb28 <__adddf3+0x7d8>
1000ca7c:	2804d0fa 	srli	r2,r5,3
1000ca80:	8822d0fa 	srli	r17,r17,3
1000ca84:	280a977a 	slli	r5,r5,29
1000ca88:	10c0022c 	andhi	r3,r2,8
1000ca8c:	2c62b03a 	or	r17,r5,r17
1000ca90:	18000826 	beq	r3,zero,1000cab4 <__adddf3+0x764>
1000ca94:	4008d0fa 	srli	r4,r8,3
1000ca98:	20c0022c 	andhi	r3,r4,8
1000ca9c:	1800051e 	bne	r3,zero,1000cab4 <__adddf3+0x764>
1000caa0:	300cd0fa 	srli	r6,r6,3
1000caa4:	4010977a 	slli	r8,r8,29
1000caa8:	2005883a 	mov	r2,r4
1000caac:	3825883a 	mov	r18,r7
1000cab0:	41a2b03a 	or	r17,r8,r6
1000cab4:	880ad77a 	srli	r5,r17,29
1000cab8:	100490fa 	slli	r2,r2,3
1000cabc:	882290fa 	slli	r17,r17,3
1000cac0:	0401ffc4 	movi	r16,2047
1000cac4:	288ab03a 	or	r5,r5,r2
1000cac8:	003e4006 	br	1000c3cc <__alt_data_end+0xf800c3cc>
1000cacc:	01c1ffc4 	movi	r7,2047
1000cad0:	11ffc71e 	bne	r2,r7,1000c9f0 <__alt_data_end+0xf800c9f0>
1000cad4:	400b883a 	mov	r5,r8
1000cad8:	3023883a 	mov	r17,r6
1000cadc:	1021883a 	mov	r16,r2
1000cae0:	003e3a06 	br	1000c3cc <__alt_data_end+0xf800c3cc>
1000cae4:	10002d26 	beq	r2,zero,1000cb9c <__adddf3+0x84c>
1000cae8:	4184b03a 	or	r2,r8,r6
1000caec:	10000e26 	beq	r2,zero,1000cb28 <__adddf3+0x7d8>
1000caf0:	2804d0fa 	srli	r2,r5,3
1000caf4:	8822d0fa 	srli	r17,r17,3
1000caf8:	280a977a 	slli	r5,r5,29
1000cafc:	10c0022c 	andhi	r3,r2,8
1000cb00:	2c62b03a 	or	r17,r5,r17
1000cb04:	183feb26 	beq	r3,zero,1000cab4 <__alt_data_end+0xf800cab4>
1000cb08:	4008d0fa 	srli	r4,r8,3
1000cb0c:	20c0022c 	andhi	r3,r4,8
1000cb10:	183fe81e 	bne	r3,zero,1000cab4 <__alt_data_end+0xf800cab4>
1000cb14:	300cd0fa 	srli	r6,r6,3
1000cb18:	4010977a 	slli	r8,r8,29
1000cb1c:	2005883a 	mov	r2,r4
1000cb20:	41a2b03a 	or	r17,r8,r6
1000cb24:	003fe306 	br	1000cab4 <__alt_data_end+0xf800cab4>
1000cb28:	0401ffc4 	movi	r16,2047
1000cb2c:	003e2706 	br	1000c3cc <__alt_data_end+0xf800c3cc>
1000cb30:	0011883a 	mov	r8,zero
1000cb34:	003f8306 	br	1000c944 <__alt_data_end+0xf800c944>
1000cb38:	193ff804 	addi	r4,r3,-32
1000cb3c:	02400804 	movi	r9,32
1000cb40:	2908d83a 	srl	r4,r5,r4
1000cb44:	1a402526 	beq	r3,r9,1000cbdc <__adddf3+0x88c>
1000cb48:	02401004 	movi	r9,64
1000cb4c:	48c7c83a 	sub	r3,r9,r3
1000cb50:	28ca983a 	sll	r5,r5,r3
1000cb54:	2c62b03a 	or	r17,r5,r17
1000cb58:	8822c03a 	cmpne	r17,r17,zero
1000cb5c:	8922b03a 	or	r17,r17,r4
1000cb60:	0007883a 	mov	r3,zero
1000cb64:	003f2f06 	br	1000c824 <__alt_data_end+0xf800c824>
1000cb68:	01402034 	movhi	r5,128
1000cb6c:	0007883a 	mov	r3,zero
1000cb70:	297fffc4 	addi	r5,r5,-1
1000cb74:	047ffe04 	movi	r17,-8
1000cb78:	0401ffc4 	movi	r16,2047
1000cb7c:	003e7306 	br	1000c54c <__alt_data_end+0xf800c54c>
1000cb80:	2c62b03a 	or	r17,r5,r17
1000cb84:	8822c03a 	cmpne	r17,r17,zero
1000cb88:	0009883a 	mov	r4,zero
1000cb8c:	003fa506 	br	1000ca24 <__alt_data_end+0xf800ca24>
1000cb90:	400b883a 	mov	r5,r8
1000cb94:	3023883a 	mov	r17,r6
1000cb98:	003e0c06 	br	1000c3cc <__alt_data_end+0xf800c3cc>
1000cb9c:	400b883a 	mov	r5,r8
1000cba0:	3023883a 	mov	r17,r6
1000cba4:	0401ffc4 	movi	r16,2047
1000cba8:	003e0806 	br	1000c3cc <__alt_data_end+0xf800c3cc>
1000cbac:	21fff804 	addi	r7,r4,-32
1000cbb0:	02400804 	movi	r9,32
1000cbb4:	29ced83a 	srl	r7,r5,r7
1000cbb8:	22400a26 	beq	r4,r9,1000cbe4 <__adddf3+0x894>
1000cbbc:	02401004 	movi	r9,64
1000cbc0:	4909c83a 	sub	r4,r9,r4
1000cbc4:	290a983a 	sll	r5,r5,r4
1000cbc8:	2c62b03a 	or	r17,r5,r17
1000cbcc:	8822c03a 	cmpne	r17,r17,zero
1000cbd0:	89e2b03a 	or	r17,r17,r7
1000cbd4:	0009883a 	mov	r4,zero
1000cbd8:	003f9206 	br	1000ca24 <__alt_data_end+0xf800ca24>
1000cbdc:	000b883a 	mov	r5,zero
1000cbe0:	003fdc06 	br	1000cb54 <__alt_data_end+0xf800cb54>
1000cbe4:	000b883a 	mov	r5,zero
1000cbe8:	003ff706 	br	1000cbc8 <__alt_data_end+0xf800cbc8>

1000cbec <__divdf3>:
1000cbec:	defff004 	addi	sp,sp,-64
1000cbf0:	dc800815 	stw	r18,32(sp)
1000cbf4:	2824d53a 	srli	r18,r5,20
1000cbf8:	dd800c15 	stw	r22,48(sp)
1000cbfc:	282cd7fa 	srli	r22,r5,31
1000cc00:	dc000615 	stw	r16,24(sp)
1000cc04:	04000434 	movhi	r16,16
1000cc08:	df000e15 	stw	fp,56(sp)
1000cc0c:	dd000a15 	stw	r20,40(sp)
1000cc10:	dcc00915 	stw	r19,36(sp)
1000cc14:	dc400715 	stw	r17,28(sp)
1000cc18:	843fffc4 	addi	r16,r16,-1
1000cc1c:	dfc00f15 	stw	ra,60(sp)
1000cc20:	ddc00d15 	stw	r23,52(sp)
1000cc24:	dd400b15 	stw	r21,44(sp)
1000cc28:	9481ffcc 	andi	r18,r18,2047
1000cc2c:	2029883a 	mov	r20,r4
1000cc30:	2027883a 	mov	r19,r4
1000cc34:	2c22703a 	and	r17,r5,r16
1000cc38:	b7003fcc 	andi	fp,r22,255
1000cc3c:	90005e26 	beq	r18,zero,1000cdb8 <__divdf3+0x1cc>
1000cc40:	0081ffc4 	movi	r2,2047
1000cc44:	90803526 	beq	r18,r2,1000cd1c <__divdf3+0x130>
1000cc48:	8c000434 	orhi	r16,r17,16
1000cc4c:	2004d77a 	srli	r2,r4,29
1000cc50:	802090fa 	slli	r16,r16,3
1000cc54:	202690fa 	slli	r19,r4,3
1000cc58:	94bf0044 	addi	r18,r18,-1023
1000cc5c:	80a2b03a 	or	r17,r16,r2
1000cc60:	0029883a 	mov	r20,zero
1000cc64:	0011883a 	mov	r8,zero
1000cc68:	380ad53a 	srli	r5,r7,20
1000cc6c:	382ed7fa 	srli	r23,r7,31
1000cc70:	04000434 	movhi	r16,16
1000cc74:	843fffc4 	addi	r16,r16,-1
1000cc78:	2941ffcc 	andi	r5,r5,2047
1000cc7c:	302b883a 	mov	r21,r6
1000cc80:	3c20703a 	and	r16,r7,r16
1000cc84:	ba403fcc 	andi	r9,r23,255
1000cc88:	28006726 	beq	r5,zero,1000ce28 <__divdf3+0x23c>
1000cc8c:	0081ffc4 	movi	r2,2047
1000cc90:	28805f26 	beq	r5,r2,1000ce10 <__divdf3+0x224>
1000cc94:	84000434 	orhi	r16,r16,16
1000cc98:	3004d77a 	srli	r2,r6,29
1000cc9c:	802090fa 	slli	r16,r16,3
1000cca0:	302a90fa 	slli	r21,r6,3
1000cca4:	297f0044 	addi	r5,r5,-1023
1000cca8:	80a0b03a 	or	r16,r16,r2
1000ccac:	000f883a 	mov	r7,zero
1000ccb0:	3d06b03a 	or	r3,r7,r20
1000ccb4:	180690ba 	slli	r3,r3,2
1000ccb8:	00840074 	movhi	r2,4097
1000ccbc:	10b33704 	addi	r2,r2,-13092
1000ccc0:	1885883a 	add	r2,r3,r2
1000ccc4:	10800017 	ldw	r2,0(r2)
1000ccc8:	b5c8f03a 	xor	r4,r22,r23
1000cccc:	200d883a 	mov	r6,r4
1000ccd0:	25003fcc 	andi	r20,r4,255
1000ccd4:	9165c83a 	sub	r18,r18,r5
1000ccd8:	1000683a 	jmp	r2
1000ccdc:	1000cf24 	muli	zero,r2,828
1000cce0:	1000cd54 	ori	zero,r2,821
1000cce4:	1000cee8 	cmpgeui	zero,r2,827
1000cce8:	1000cd38 	rdprs	zero,r2,820
1000ccec:	1000cee8 	cmpgeui	zero,r2,827
1000ccf0:	1000cebc 	xorhi	zero,r2,826
1000ccf4:	1000cee8 	cmpgeui	zero,r2,827
1000ccf8:	1000cd38 	rdprs	zero,r2,820
1000ccfc:	1000cd54 	ori	zero,r2,821
1000cd00:	1000cd54 	ori	zero,r2,821
1000cd04:	1000cebc 	xorhi	zero,r2,826
1000cd08:	1000cd38 	rdprs	zero,r2,820
1000cd0c:	1000cd48 	cmpgei	zero,r2,821
1000cd10:	1000cd48 	cmpgei	zero,r2,821
1000cd14:	1000cd48 	cmpgei	zero,r2,821
1000cd18:	1000cef8 	rdprs	zero,r2,827
1000cd1c:	8904b03a 	or	r2,r17,r4
1000cd20:	1000631e 	bne	r2,zero,1000ceb0 <__divdf3+0x2c4>
1000cd24:	05000204 	movi	r20,8
1000cd28:	0023883a 	mov	r17,zero
1000cd2c:	0027883a 	mov	r19,zero
1000cd30:	02000084 	movi	r8,2
1000cd34:	003fcc06 	br	1000cc68 <__alt_data_end+0xf800cc68>
1000cd38:	8023883a 	mov	r17,r16
1000cd3c:	a827883a 	mov	r19,r21
1000cd40:	4839883a 	mov	fp,r9
1000cd44:	3811883a 	mov	r8,r7
1000cd48:	00800084 	movi	r2,2
1000cd4c:	4081531e 	bne	r8,r2,1000d29c <__divdf3+0x6b0>
1000cd50:	e029883a 	mov	r20,fp
1000cd54:	a180004c 	andi	r6,r20,1
1000cd58:	0201ffc4 	movi	r8,2047
1000cd5c:	000b883a 	mov	r5,zero
1000cd60:	0027883a 	mov	r19,zero
1000cd64:	4010953a 	slli	r8,r8,20
1000cd68:	30c03fcc 	andi	r3,r6,255
1000cd6c:	04000434 	movhi	r16,16
1000cd70:	180697fa 	slli	r3,r3,31
1000cd74:	843fffc4 	addi	r16,r16,-1
1000cd78:	2c20703a 	and	r16,r5,r16
1000cd7c:	8220b03a 	or	r16,r16,r8
1000cd80:	80c6b03a 	or	r3,r16,r3
1000cd84:	9805883a 	mov	r2,r19
1000cd88:	dfc00f17 	ldw	ra,60(sp)
1000cd8c:	df000e17 	ldw	fp,56(sp)
1000cd90:	ddc00d17 	ldw	r23,52(sp)
1000cd94:	dd800c17 	ldw	r22,48(sp)
1000cd98:	dd400b17 	ldw	r21,44(sp)
1000cd9c:	dd000a17 	ldw	r20,40(sp)
1000cda0:	dcc00917 	ldw	r19,36(sp)
1000cda4:	dc800817 	ldw	r18,32(sp)
1000cda8:	dc400717 	ldw	r17,28(sp)
1000cdac:	dc000617 	ldw	r16,24(sp)
1000cdb0:	dec01004 	addi	sp,sp,64
1000cdb4:	f800283a 	ret
1000cdb8:	8904b03a 	or	r2,r17,r4
1000cdbc:	10003726 	beq	r2,zero,1000ce9c <__divdf3+0x2b0>
1000cdc0:	88014d26 	beq	r17,zero,1000d2f8 <__divdf3+0x70c>
1000cdc4:	8809883a 	mov	r4,r17
1000cdc8:	d9800215 	stw	r6,8(sp)
1000cdcc:	d9c00515 	stw	r7,20(sp)
1000cdd0:	000eae80 	call	1000eae8 <__clzsi2>
1000cdd4:	d9800217 	ldw	r6,8(sp)
1000cdd8:	d9c00517 	ldw	r7,20(sp)
1000cddc:	1007883a 	mov	r3,r2
1000cde0:	01000a04 	movi	r4,40
1000cde4:	1cfffe04 	addi	r19,r3,-8
1000cde8:	20c9c83a 	sub	r4,r4,r3
1000cdec:	8cca983a 	sll	r5,r17,r19
1000cdf0:	a108d83a 	srl	r4,r20,r4
1000cdf4:	a4e6983a 	sll	r19,r20,r19
1000cdf8:	2162b03a 	or	r17,r4,r5
1000cdfc:	04bf0344 	movi	r18,-1011
1000ce00:	90e5c83a 	sub	r18,r18,r3
1000ce04:	0029883a 	mov	r20,zero
1000ce08:	0011883a 	mov	r8,zero
1000ce0c:	003f9606 	br	1000cc68 <__alt_data_end+0xf800cc68>
1000ce10:	8184b03a 	or	r2,r16,r6
1000ce14:	10001f1e 	bne	r2,zero,1000ce94 <__divdf3+0x2a8>
1000ce18:	0021883a 	mov	r16,zero
1000ce1c:	002b883a 	mov	r21,zero
1000ce20:	01c00084 	movi	r7,2
1000ce24:	003fa206 	br	1000ccb0 <__alt_data_end+0xf800ccb0>
1000ce28:	8184b03a 	or	r2,r16,r6
1000ce2c:	10001526 	beq	r2,zero,1000ce84 <__divdf3+0x298>
1000ce30:	80013d26 	beq	r16,zero,1000d328 <__divdf3+0x73c>
1000ce34:	8009883a 	mov	r4,r16
1000ce38:	d9800215 	stw	r6,8(sp)
1000ce3c:	da000315 	stw	r8,12(sp)
1000ce40:	da400415 	stw	r9,16(sp)
1000ce44:	000eae80 	call	1000eae8 <__clzsi2>
1000ce48:	d9800217 	ldw	r6,8(sp)
1000ce4c:	da000317 	ldw	r8,12(sp)
1000ce50:	da400417 	ldw	r9,16(sp)
1000ce54:	1007883a 	mov	r3,r2
1000ce58:	01000a04 	movi	r4,40
1000ce5c:	1d7ffe04 	addi	r21,r3,-8
1000ce60:	20c9c83a 	sub	r4,r4,r3
1000ce64:	8560983a 	sll	r16,r16,r21
1000ce68:	3108d83a 	srl	r4,r6,r4
1000ce6c:	356a983a 	sll	r21,r6,r21
1000ce70:	2420b03a 	or	r16,r4,r16
1000ce74:	017f0344 	movi	r5,-1011
1000ce78:	28cbc83a 	sub	r5,r5,r3
1000ce7c:	000f883a 	mov	r7,zero
1000ce80:	003f8b06 	br	1000ccb0 <__alt_data_end+0xf800ccb0>
1000ce84:	0021883a 	mov	r16,zero
1000ce88:	002b883a 	mov	r21,zero
1000ce8c:	01c00044 	movi	r7,1
1000ce90:	003f8706 	br	1000ccb0 <__alt_data_end+0xf800ccb0>
1000ce94:	01c000c4 	movi	r7,3
1000ce98:	003f8506 	br	1000ccb0 <__alt_data_end+0xf800ccb0>
1000ce9c:	05000104 	movi	r20,4
1000cea0:	0023883a 	mov	r17,zero
1000cea4:	0027883a 	mov	r19,zero
1000cea8:	02000044 	movi	r8,1
1000ceac:	003f6e06 	br	1000cc68 <__alt_data_end+0xf800cc68>
1000ceb0:	05000304 	movi	r20,12
1000ceb4:	020000c4 	movi	r8,3
1000ceb8:	003f6b06 	br	1000cc68 <__alt_data_end+0xf800cc68>
1000cebc:	01400434 	movhi	r5,16
1000cec0:	000d883a 	mov	r6,zero
1000cec4:	297fffc4 	addi	r5,r5,-1
1000cec8:	04ffffc4 	movi	r19,-1
1000cecc:	0201ffc4 	movi	r8,2047
1000ced0:	003fa406 	br	1000cd64 <__alt_data_end+0xf800cd64>
1000ced4:	043f0084 	movi	r16,-1022
1000ced8:	84a1c83a 	sub	r16,r16,r18
1000cedc:	00800e04 	movi	r2,56
1000cee0:	14014d0e 	bge	r2,r16,1000d418 <__divdf3+0x82c>
1000cee4:	a180004c 	andi	r6,r20,1
1000cee8:	0011883a 	mov	r8,zero
1000ceec:	000b883a 	mov	r5,zero
1000cef0:	0027883a 	mov	r19,zero
1000cef4:	003f9b06 	br	1000cd64 <__alt_data_end+0xf800cd64>
1000cef8:	8880022c 	andhi	r2,r17,8
1000cefc:	1000f026 	beq	r2,zero,1000d2c0 <__divdf3+0x6d4>
1000cf00:	8080022c 	andhi	r2,r16,8
1000cf04:	1000ee1e 	bne	r2,zero,1000d2c0 <__divdf3+0x6d4>
1000cf08:	00800434 	movhi	r2,16
1000cf0c:	81400234 	orhi	r5,r16,8
1000cf10:	10bfffc4 	addi	r2,r2,-1
1000cf14:	b80d883a 	mov	r6,r23
1000cf18:	288a703a 	and	r5,r5,r2
1000cf1c:	a827883a 	mov	r19,r21
1000cf20:	003fea06 	br	1000cecc <__alt_data_end+0xf800cecc>
1000cf24:	84411c36 	bltu	r16,r17,1000d398 <__divdf3+0x7ac>
1000cf28:	8c011a26 	beq	r17,r16,1000d394 <__divdf3+0x7a8>
1000cf2c:	94bfffc4 	addi	r18,r18,-1
1000cf30:	dcc00015 	stw	r19,0(sp)
1000cf34:	8811883a 	mov	r8,r17
1000cf38:	002d883a 	mov	r22,zero
1000cf3c:	a80cd63a 	srli	r6,r21,24
1000cf40:	8020923a 	slli	r16,r16,8
1000cf44:	a82a923a 	slli	r21,r21,8
1000cf48:	4009883a 	mov	r4,r8
1000cf4c:	342eb03a 	or	r23,r6,r16
1000cf50:	dd400115 	stw	r21,4(sp)
1000cf54:	b82ad43a 	srli	r21,r23,16
1000cf58:	da000315 	stw	r8,12(sp)
1000cf5c:	bcffffcc 	andi	r19,r23,65535
1000cf60:	a80b883a 	mov	r5,r21
1000cf64:	000c3180 	call	1000c318 <__udivsi3>
1000cf68:	1009883a 	mov	r4,r2
1000cf6c:	980b883a 	mov	r5,r19
1000cf70:	1023883a 	mov	r17,r2
1000cf74:	000c3280 	call	1000c328 <__mulsi3>
1000cf78:	da000317 	ldw	r8,12(sp)
1000cf7c:	a80b883a 	mov	r5,r21
1000cf80:	1039883a 	mov	fp,r2
1000cf84:	4009883a 	mov	r4,r8
1000cf88:	000c3200 	call	1000c320 <__umodsi3>
1000cf8c:	d8c00017 	ldw	r3,0(sp)
1000cf90:	1004943a 	slli	r2,r2,16
1000cf94:	1810d43a 	srli	r8,r3,16
1000cf98:	120eb03a 	or	r7,r2,r8
1000cf9c:	3f00062e 	bgeu	r7,fp,1000cfb8 <__divdf3+0x3cc>
1000cfa0:	3dcf883a 	add	r7,r7,r23
1000cfa4:	88bfffc4 	addi	r2,r17,-1
1000cfa8:	3dc10a36 	bltu	r7,r23,1000d3d4 <__divdf3+0x7e8>
1000cfac:	3f01092e 	bgeu	r7,fp,1000d3d4 <__divdf3+0x7e8>
1000cfb0:	8c7fff84 	addi	r17,r17,-2
1000cfb4:	3dcf883a 	add	r7,r7,r23
1000cfb8:	3f39c83a 	sub	fp,r7,fp
1000cfbc:	e009883a 	mov	r4,fp
1000cfc0:	a80b883a 	mov	r5,r21
1000cfc4:	000c3180 	call	1000c318 <__udivsi3>
1000cfc8:	1009883a 	mov	r4,r2
1000cfcc:	980b883a 	mov	r5,r19
1000cfd0:	1021883a 	mov	r16,r2
1000cfd4:	000c3280 	call	1000c328 <__mulsi3>
1000cfd8:	e009883a 	mov	r4,fp
1000cfdc:	a80b883a 	mov	r5,r21
1000cfe0:	d8800315 	stw	r2,12(sp)
1000cfe4:	000c3200 	call	1000c320 <__umodsi3>
1000cfe8:	d9000017 	ldw	r4,0(sp)
1000cfec:	1004943a 	slli	r2,r2,16
1000cff0:	da000317 	ldw	r8,12(sp)
1000cff4:	20ffffcc 	andi	r3,r4,65535
1000cff8:	10ceb03a 	or	r7,r2,r3
1000cffc:	3a00062e 	bgeu	r7,r8,1000d018 <__divdf3+0x42c>
1000d000:	3dcf883a 	add	r7,r7,r23
1000d004:	80bfffc4 	addi	r2,r16,-1
1000d008:	3dc0f036 	bltu	r7,r23,1000d3cc <__divdf3+0x7e0>
1000d00c:	3a00ef2e 	bgeu	r7,r8,1000d3cc <__divdf3+0x7e0>
1000d010:	843fff84 	addi	r16,r16,-2
1000d014:	3dcf883a 	add	r7,r7,r23
1000d018:	d8c00117 	ldw	r3,4(sp)
1000d01c:	8822943a 	slli	r17,r17,16
1000d020:	3a0fc83a 	sub	r7,r7,r8
1000d024:	1806d43a 	srli	r3,r3,16
1000d028:	8462b03a 	or	r17,r16,r17
1000d02c:	8affffcc 	andi	r11,r17,65535
1000d030:	d8c00015 	stw	r3,0(sp)
1000d034:	d8c00117 	ldw	r3,4(sp)
1000d038:	8820d43a 	srli	r16,r17,16
1000d03c:	5809883a 	mov	r4,r11
1000d040:	1f3fffcc 	andi	fp,r3,65535
1000d044:	e00b883a 	mov	r5,fp
1000d048:	d9c00515 	stw	r7,20(sp)
1000d04c:	dac00215 	stw	r11,8(sp)
1000d050:	000c3280 	call	1000c328 <__mulsi3>
1000d054:	8009883a 	mov	r4,r16
1000d058:	e00b883a 	mov	r5,fp
1000d05c:	d8800415 	stw	r2,16(sp)
1000d060:	000c3280 	call	1000c328 <__mulsi3>
1000d064:	d9400017 	ldw	r5,0(sp)
1000d068:	8009883a 	mov	r4,r16
1000d06c:	d8800315 	stw	r2,12(sp)
1000d070:	000c3280 	call	1000c328 <__mulsi3>
1000d074:	dac00217 	ldw	r11,8(sp)
1000d078:	d9400017 	ldw	r5,0(sp)
1000d07c:	d8800215 	stw	r2,8(sp)
1000d080:	5809883a 	mov	r4,r11
1000d084:	000c3280 	call	1000c328 <__mulsi3>
1000d088:	da400417 	ldw	r9,16(sp)
1000d08c:	da800317 	ldw	r10,12(sp)
1000d090:	d9c00517 	ldw	r7,20(sp)
1000d094:	480ad43a 	srli	r5,r9,16
1000d098:	5085883a 	add	r2,r10,r2
1000d09c:	db000217 	ldw	r12,8(sp)
1000d0a0:	1151883a 	add	r8,r2,r5
1000d0a4:	4280022e 	bgeu	r8,r10,1000d0b0 <__divdf3+0x4c4>
1000d0a8:	00800074 	movhi	r2,1
1000d0ac:	6099883a 	add	r12,r12,r2
1000d0b0:	400ad43a 	srli	r5,r8,16
1000d0b4:	4010943a 	slli	r8,r8,16
1000d0b8:	4c3fffcc 	andi	r16,r9,65535
1000d0bc:	6149883a 	add	r4,r12,r5
1000d0c0:	4411883a 	add	r8,r8,r16
1000d0c4:	3900a736 	bltu	r7,r4,1000d364 <__divdf3+0x778>
1000d0c8:	3900c426 	beq	r7,r4,1000d3dc <__divdf3+0x7f0>
1000d0cc:	3909c83a 	sub	r4,r7,r4
1000d0d0:	b221c83a 	sub	r16,r22,r8
1000d0d4:	b42d803a 	cmpltu	r22,r22,r16
1000d0d8:	25adc83a 	sub	r22,r4,r22
1000d0dc:	b5c0c626 	beq	r22,r23,1000d3f8 <__divdf3+0x80c>
1000d0e0:	b009883a 	mov	r4,r22
1000d0e4:	a80b883a 	mov	r5,r21
1000d0e8:	000c3180 	call	1000c318 <__udivsi3>
1000d0ec:	1009883a 	mov	r4,r2
1000d0f0:	980b883a 	mov	r5,r19
1000d0f4:	d8800315 	stw	r2,12(sp)
1000d0f8:	000c3280 	call	1000c328 <__mulsi3>
1000d0fc:	a80b883a 	mov	r5,r21
1000d100:	b009883a 	mov	r4,r22
1000d104:	d8800415 	stw	r2,16(sp)
1000d108:	000c3200 	call	1000c320 <__umodsi3>
1000d10c:	1004943a 	slli	r2,r2,16
1000d110:	800ed43a 	srli	r7,r16,16
1000d114:	da400417 	ldw	r9,16(sp)
1000d118:	da000317 	ldw	r8,12(sp)
1000d11c:	11cab03a 	or	r5,r2,r7
1000d120:	2a40062e 	bgeu	r5,r9,1000d13c <__divdf3+0x550>
1000d124:	2dcb883a 	add	r5,r5,r23
1000d128:	40bfffc4 	addi	r2,r8,-1
1000d12c:	2dc0b436 	bltu	r5,r23,1000d400 <__divdf3+0x814>
1000d130:	2a40b32e 	bgeu	r5,r9,1000d400 <__divdf3+0x814>
1000d134:	423fff84 	addi	r8,r8,-2
1000d138:	2dcb883a 	add	r5,r5,r23
1000d13c:	2a6dc83a 	sub	r22,r5,r9
1000d140:	b009883a 	mov	r4,r22
1000d144:	a80b883a 	mov	r5,r21
1000d148:	da000315 	stw	r8,12(sp)
1000d14c:	000c3180 	call	1000c318 <__udivsi3>
1000d150:	980b883a 	mov	r5,r19
1000d154:	1009883a 	mov	r4,r2
1000d158:	d8800415 	stw	r2,16(sp)
1000d15c:	000c3280 	call	1000c328 <__mulsi3>
1000d160:	b009883a 	mov	r4,r22
1000d164:	a80b883a 	mov	r5,r21
1000d168:	1027883a 	mov	r19,r2
1000d16c:	000c3200 	call	1000c320 <__umodsi3>
1000d170:	1004943a 	slli	r2,r2,16
1000d174:	843fffcc 	andi	r16,r16,65535
1000d178:	da000317 	ldw	r8,12(sp)
1000d17c:	140eb03a 	or	r7,r2,r16
1000d180:	da400417 	ldw	r9,16(sp)
1000d184:	3cc0062e 	bgeu	r7,r19,1000d1a0 <__divdf3+0x5b4>
1000d188:	3dcf883a 	add	r7,r7,r23
1000d18c:	48bfffc4 	addi	r2,r9,-1
1000d190:	3dc09d36 	bltu	r7,r23,1000d408 <__divdf3+0x81c>
1000d194:	3cc09c2e 	bgeu	r7,r19,1000d408 <__divdf3+0x81c>
1000d198:	4a7fff84 	addi	r9,r9,-2
1000d19c:	3dcf883a 	add	r7,r7,r23
1000d1a0:	4010943a 	slli	r8,r8,16
1000d1a4:	3cebc83a 	sub	r21,r7,r19
1000d1a8:	e00b883a 	mov	r5,fp
1000d1ac:	4a26b03a 	or	r19,r9,r8
1000d1b0:	99ffffcc 	andi	r7,r19,65535
1000d1b4:	9820d43a 	srli	r16,r19,16
1000d1b8:	3809883a 	mov	r4,r7
1000d1bc:	d9c00515 	stw	r7,20(sp)
1000d1c0:	000c3280 	call	1000c328 <__mulsi3>
1000d1c4:	8009883a 	mov	r4,r16
1000d1c8:	e00b883a 	mov	r5,fp
1000d1cc:	102d883a 	mov	r22,r2
1000d1d0:	000c3280 	call	1000c328 <__mulsi3>
1000d1d4:	d9400017 	ldw	r5,0(sp)
1000d1d8:	8009883a 	mov	r4,r16
1000d1dc:	1039883a 	mov	fp,r2
1000d1e0:	000c3280 	call	1000c328 <__mulsi3>
1000d1e4:	d9c00517 	ldw	r7,20(sp)
1000d1e8:	d9400017 	ldw	r5,0(sp)
1000d1ec:	1021883a 	mov	r16,r2
1000d1f0:	3809883a 	mov	r4,r7
1000d1f4:	000c3280 	call	1000c328 <__mulsi3>
1000d1f8:	b008d43a 	srli	r4,r22,16
1000d1fc:	e085883a 	add	r2,fp,r2
1000d200:	1109883a 	add	r4,r2,r4
1000d204:	2700022e 	bgeu	r4,fp,1000d210 <__divdf3+0x624>
1000d208:	00800074 	movhi	r2,1
1000d20c:	80a1883a 	add	r16,r16,r2
1000d210:	200ad43a 	srli	r5,r4,16
1000d214:	2008943a 	slli	r4,r4,16
1000d218:	b5bfffcc 	andi	r22,r22,65535
1000d21c:	8145883a 	add	r2,r16,r5
1000d220:	2589883a 	add	r4,r4,r22
1000d224:	a8802c36 	bltu	r21,r2,1000d2d8 <__divdf3+0x6ec>
1000d228:	a880a426 	beq	r21,r2,1000d4bc <__divdf3+0x8d0>
1000d22c:	9cc00054 	ori	r19,r19,1
1000d230:	9200ffc4 	addi	r8,r18,1023
1000d234:	023f270e 	bge	zero,r8,1000ced4 <__alt_data_end+0xf800ced4>
1000d238:	988001cc 	andi	r2,r19,7
1000d23c:	10000726 	beq	r2,zero,1000d25c <__divdf3+0x670>
1000d240:	990003cc 	andi	r4,r19,15
1000d244:	00800104 	movi	r2,4
1000d248:	20800426 	beq	r4,r2,1000d25c <__divdf3+0x670>
1000d24c:	9885883a 	add	r2,r19,r2
1000d250:	14e7803a 	cmpltu	r19,r2,r19
1000d254:	8ce3883a 	add	r17,r17,r19
1000d258:	1027883a 	mov	r19,r2
1000d25c:	8880402c 	andhi	r2,r17,256
1000d260:	10000426 	beq	r2,zero,1000d274 <__divdf3+0x688>
1000d264:	00bfc034 	movhi	r2,65280
1000d268:	10bfffc4 	addi	r2,r2,-1
1000d26c:	92010004 	addi	r8,r18,1024
1000d270:	88a2703a 	and	r17,r17,r2
1000d274:	0081ff84 	movi	r2,2046
1000d278:	123eb616 	blt	r2,r8,1000cd54 <__alt_data_end+0xf800cd54>
1000d27c:	9826d0fa 	srli	r19,r19,3
1000d280:	8804977a 	slli	r2,r17,29
1000d284:	8820927a 	slli	r16,r17,9
1000d288:	4201ffcc 	andi	r8,r8,2047
1000d28c:	14e6b03a 	or	r19,r2,r19
1000d290:	800ad33a 	srli	r5,r16,12
1000d294:	a180004c 	andi	r6,r20,1
1000d298:	003eb206 	br	1000cd64 <__alt_data_end+0xf800cd64>
1000d29c:	008000c4 	movi	r2,3
1000d2a0:	4080ac26 	beq	r8,r2,1000d554 <__divdf3+0x968>
1000d2a4:	00800044 	movi	r2,1
1000d2a8:	4080591e 	bne	r8,r2,1000d410 <__divdf3+0x824>
1000d2ac:	e00d883a 	mov	r6,fp
1000d2b0:	0011883a 	mov	r8,zero
1000d2b4:	000b883a 	mov	r5,zero
1000d2b8:	0027883a 	mov	r19,zero
1000d2bc:	003ea906 	br	1000cd64 <__alt_data_end+0xf800cd64>
1000d2c0:	00800434 	movhi	r2,16
1000d2c4:	89400234 	orhi	r5,r17,8
1000d2c8:	10bfffc4 	addi	r2,r2,-1
1000d2cc:	b00d883a 	mov	r6,r22
1000d2d0:	288a703a 	and	r5,r5,r2
1000d2d4:	003efd06 	br	1000cecc <__alt_data_end+0xf800cecc>
1000d2d8:	adcf883a 	add	r7,r21,r23
1000d2dc:	997fffc4 	addi	r5,r19,-1
1000d2e0:	3dc0412e 	bgeu	r7,r23,1000d3e8 <__divdf3+0x7fc>
1000d2e4:	2827883a 	mov	r19,r5
1000d2e8:	38bfd01e 	bne	r7,r2,1000d22c <__alt_data_end+0xf800d22c>
1000d2ec:	d8c00117 	ldw	r3,4(sp)
1000d2f0:	193fce1e 	bne	r3,r4,1000d22c <__alt_data_end+0xf800d22c>
1000d2f4:	003fce06 	br	1000d230 <__alt_data_end+0xf800d230>
1000d2f8:	d9800215 	stw	r6,8(sp)
1000d2fc:	d9c00515 	stw	r7,20(sp)
1000d300:	000eae80 	call	1000eae8 <__clzsi2>
1000d304:	10c00804 	addi	r3,r2,32
1000d308:	010009c4 	movi	r4,39
1000d30c:	d9800217 	ldw	r6,8(sp)
1000d310:	d9c00517 	ldw	r7,20(sp)
1000d314:	20feb20e 	bge	r4,r3,1000cde0 <__alt_data_end+0xf800cde0>
1000d318:	117ffe04 	addi	r5,r2,-8
1000d31c:	a162983a 	sll	r17,r20,r5
1000d320:	0027883a 	mov	r19,zero
1000d324:	003eb506 	br	1000cdfc <__alt_data_end+0xf800cdfc>
1000d328:	3009883a 	mov	r4,r6
1000d32c:	d9800215 	stw	r6,8(sp)
1000d330:	da000315 	stw	r8,12(sp)
1000d334:	da400415 	stw	r9,16(sp)
1000d338:	000eae80 	call	1000eae8 <__clzsi2>
1000d33c:	10c00804 	addi	r3,r2,32
1000d340:	010009c4 	movi	r4,39
1000d344:	d9800217 	ldw	r6,8(sp)
1000d348:	da000317 	ldw	r8,12(sp)
1000d34c:	da400417 	ldw	r9,16(sp)
1000d350:	20fec10e 	bge	r4,r3,1000ce58 <__alt_data_end+0xf800ce58>
1000d354:	10bffe04 	addi	r2,r2,-8
1000d358:	a8a0983a 	sll	r16,r21,r2
1000d35c:	002b883a 	mov	r21,zero
1000d360:	003ec406 	br	1000ce74 <__alt_data_end+0xf800ce74>
1000d364:	d8c00117 	ldw	r3,4(sp)
1000d368:	b0ed883a 	add	r22,r22,r3
1000d36c:	b0c5803a 	cmpltu	r2,r22,r3
1000d370:	15c5883a 	add	r2,r2,r23
1000d374:	11cf883a 	add	r7,r2,r7
1000d378:	88bfffc4 	addi	r2,r17,-1
1000d37c:	b9c00d2e 	bgeu	r23,r7,1000d3b4 <__divdf3+0x7c8>
1000d380:	39003f36 	bltu	r7,r4,1000d480 <__divdf3+0x894>
1000d384:	21c06a26 	beq	r4,r7,1000d530 <__divdf3+0x944>
1000d388:	3909c83a 	sub	r4,r7,r4
1000d38c:	1023883a 	mov	r17,r2
1000d390:	003f4f06 	br	1000d0d0 <__alt_data_end+0xf800d0d0>
1000d394:	9d7ee536 	bltu	r19,r21,1000cf2c <__alt_data_end+0xf800cf2c>
1000d398:	982ed07a 	srli	r23,r19,1
1000d39c:	880497fa 	slli	r2,r17,31
1000d3a0:	8810d07a 	srli	r8,r17,1
1000d3a4:	982c97fa 	slli	r22,r19,31
1000d3a8:	b884b03a 	or	r2,r23,r2
1000d3ac:	d8800015 	stw	r2,0(sp)
1000d3b0:	003ee206 	br	1000cf3c <__alt_data_end+0xf800cf3c>
1000d3b4:	3dfff41e 	bne	r7,r23,1000d388 <__alt_data_end+0xf800d388>
1000d3b8:	d8c00117 	ldw	r3,4(sp)
1000d3bc:	b0fff02e 	bgeu	r22,r3,1000d380 <__alt_data_end+0xf800d380>
1000d3c0:	b909c83a 	sub	r4,r23,r4
1000d3c4:	1023883a 	mov	r17,r2
1000d3c8:	003f4106 	br	1000d0d0 <__alt_data_end+0xf800d0d0>
1000d3cc:	1021883a 	mov	r16,r2
1000d3d0:	003f1106 	br	1000d018 <__alt_data_end+0xf800d018>
1000d3d4:	1023883a 	mov	r17,r2
1000d3d8:	003ef706 	br	1000cfb8 <__alt_data_end+0xf800cfb8>
1000d3dc:	b23fe136 	bltu	r22,r8,1000d364 <__alt_data_end+0xf800d364>
1000d3e0:	0009883a 	mov	r4,zero
1000d3e4:	003f3a06 	br	1000d0d0 <__alt_data_end+0xf800d0d0>
1000d3e8:	38802c36 	bltu	r7,r2,1000d49c <__divdf3+0x8b0>
1000d3ec:	11c05326 	beq	r2,r7,1000d53c <__divdf3+0x950>
1000d3f0:	2827883a 	mov	r19,r5
1000d3f4:	003f8d06 	br	1000d22c <__alt_data_end+0xf800d22c>
1000d3f8:	04ffffc4 	movi	r19,-1
1000d3fc:	003f8c06 	br	1000d230 <__alt_data_end+0xf800d230>
1000d400:	1011883a 	mov	r8,r2
1000d404:	003f4d06 	br	1000d13c <__alt_data_end+0xf800d13c>
1000d408:	1013883a 	mov	r9,r2
1000d40c:	003f6406 	br	1000d1a0 <__alt_data_end+0xf800d1a0>
1000d410:	e029883a 	mov	r20,fp
1000d414:	003f8606 	br	1000d230 <__alt_data_end+0xf800d230>
1000d418:	008007c4 	movi	r2,31
1000d41c:	14002a16 	blt	r2,r16,1000d4c8 <__divdf3+0x8dc>
1000d420:	91410784 	addi	r5,r18,1054
1000d424:	9c0cd83a 	srl	r6,r19,r16
1000d428:	8948983a 	sll	r4,r17,r5
1000d42c:	9944983a 	sll	r2,r19,r5
1000d430:	8c20d83a 	srl	r16,r17,r16
1000d434:	3108b03a 	or	r4,r6,r4
1000d438:	1004c03a 	cmpne	r2,r2,zero
1000d43c:	2084b03a 	or	r2,r4,r2
1000d440:	110001cc 	andi	r4,r2,7
1000d444:	20000726 	beq	r4,zero,1000d464 <__divdf3+0x878>
1000d448:	114003cc 	andi	r5,r2,15
1000d44c:	01000104 	movi	r4,4
1000d450:	29000426 	beq	r5,r4,1000d464 <__divdf3+0x878>
1000d454:	11000104 	addi	r4,r2,4
1000d458:	2085803a 	cmpltu	r2,r4,r2
1000d45c:	80a1883a 	add	r16,r16,r2
1000d460:	2005883a 	mov	r2,r4
1000d464:	8100202c 	andhi	r4,r16,128
1000d468:	20002d26 	beq	r4,zero,1000d520 <__divdf3+0x934>
1000d46c:	a180004c 	andi	r6,r20,1
1000d470:	02000044 	movi	r8,1
1000d474:	000b883a 	mov	r5,zero
1000d478:	0027883a 	mov	r19,zero
1000d47c:	003e3906 	br	1000cd64 <__alt_data_end+0xf800cd64>
1000d480:	d8c00117 	ldw	r3,4(sp)
1000d484:	8c7fff84 	addi	r17,r17,-2
1000d488:	b0ed883a 	add	r22,r22,r3
1000d48c:	b0c5803a 	cmpltu	r2,r22,r3
1000d490:	15c5883a 	add	r2,r2,r23
1000d494:	11cf883a 	add	r7,r2,r7
1000d498:	003f0c06 	br	1000d0cc <__alt_data_end+0xf800d0cc>
1000d49c:	d8c00117 	ldw	r3,4(sp)
1000d4a0:	997fff84 	addi	r5,r19,-2
1000d4a4:	18d1883a 	add	r8,r3,r3
1000d4a8:	40c7803a 	cmpltu	r3,r8,r3
1000d4ac:	1dcd883a 	add	r6,r3,r23
1000d4b0:	398f883a 	add	r7,r7,r6
1000d4b4:	da000115 	stw	r8,4(sp)
1000d4b8:	003f8a06 	br	1000d2e4 <__alt_data_end+0xf800d2e4>
1000d4bc:	203f861e 	bne	r4,zero,1000d2d8 <__alt_data_end+0xf800d2d8>
1000d4c0:	d8000115 	stw	zero,4(sp)
1000d4c4:	003f8906 	br	1000d2ec <__alt_data_end+0xf800d2ec>
1000d4c8:	00bef884 	movi	r2,-1054
1000d4cc:	1485c83a 	sub	r2,r2,r18
1000d4d0:	01000804 	movi	r4,32
1000d4d4:	8884d83a 	srl	r2,r17,r2
1000d4d8:	81001c26 	beq	r16,r4,1000d54c <__divdf3+0x960>
1000d4dc:	91010f84 	addi	r4,r18,1086
1000d4e0:	8908983a 	sll	r4,r17,r4
1000d4e4:	24c8b03a 	or	r4,r4,r19
1000d4e8:	2008c03a 	cmpne	r4,r4,zero
1000d4ec:	2084b03a 	or	r2,r4,r2
1000d4f0:	140001cc 	andi	r16,r2,7
1000d4f4:	8000061e 	bne	r16,zero,1000d510 <__divdf3+0x924>
1000d4f8:	000b883a 	mov	r5,zero
1000d4fc:	1004d0fa 	srli	r2,r2,3
1000d500:	a180004c 	andi	r6,r20,1
1000d504:	0011883a 	mov	r8,zero
1000d508:	1426b03a 	or	r19,r2,r16
1000d50c:	003e1506 	br	1000cd64 <__alt_data_end+0xf800cd64>
1000d510:	114003cc 	andi	r5,r2,15
1000d514:	01000104 	movi	r4,4
1000d518:	0021883a 	mov	r16,zero
1000d51c:	293fcd1e 	bne	r5,r4,1000d454 <__alt_data_end+0xf800d454>
1000d520:	800a927a 	slli	r5,r16,9
1000d524:	8020977a 	slli	r16,r16,29
1000d528:	280ad33a 	srli	r5,r5,12
1000d52c:	003ff306 	br	1000d4fc <__alt_data_end+0xf800d4fc>
1000d530:	b23fd336 	bltu	r22,r8,1000d480 <__alt_data_end+0xf800d480>
1000d534:	1023883a 	mov	r17,r2
1000d538:	003fa906 	br	1000d3e0 <__alt_data_end+0xf800d3e0>
1000d53c:	d8c00117 	ldw	r3,4(sp)
1000d540:	193fd636 	bltu	r3,r4,1000d49c <__alt_data_end+0xf800d49c>
1000d544:	2827883a 	mov	r19,r5
1000d548:	003f6806 	br	1000d2ec <__alt_data_end+0xf800d2ec>
1000d54c:	0009883a 	mov	r4,zero
1000d550:	003fe406 	br	1000d4e4 <__alt_data_end+0xf800d4e4>
1000d554:	00800434 	movhi	r2,16
1000d558:	89400234 	orhi	r5,r17,8
1000d55c:	10bfffc4 	addi	r2,r2,-1
1000d560:	e00d883a 	mov	r6,fp
1000d564:	288a703a 	and	r5,r5,r2
1000d568:	003e5806 	br	1000cecc <__alt_data_end+0xf800cecc>

1000d56c <__eqdf2>:
1000d56c:	2804d53a 	srli	r2,r5,20
1000d570:	3806d53a 	srli	r3,r7,20
1000d574:	02000434 	movhi	r8,16
1000d578:	423fffc4 	addi	r8,r8,-1
1000d57c:	1081ffcc 	andi	r2,r2,2047
1000d580:	0241ffc4 	movi	r9,2047
1000d584:	2a14703a 	and	r10,r5,r8
1000d588:	18c1ffcc 	andi	r3,r3,2047
1000d58c:	3a10703a 	and	r8,r7,r8
1000d590:	280ad7fa 	srli	r5,r5,31
1000d594:	380ed7fa 	srli	r7,r7,31
1000d598:	12400f26 	beq	r2,r9,1000d5d8 <__eqdf2+0x6c>
1000d59c:	0241ffc4 	movi	r9,2047
1000d5a0:	1a400326 	beq	r3,r9,1000d5b0 <__eqdf2+0x44>
1000d5a4:	10c00526 	beq	r2,r3,1000d5bc <__eqdf2+0x50>
1000d5a8:	00800044 	movi	r2,1
1000d5ac:	f800283a 	ret
1000d5b0:	4192b03a 	or	r9,r8,r6
1000d5b4:	483ffc1e 	bne	r9,zero,1000d5a8 <__alt_data_end+0xf800d5a8>
1000d5b8:	10fffb1e 	bne	r2,r3,1000d5a8 <__alt_data_end+0xf800d5a8>
1000d5bc:	523ffa1e 	bne	r10,r8,1000d5a8 <__alt_data_end+0xf800d5a8>
1000d5c0:	21bff91e 	bne	r4,r6,1000d5a8 <__alt_data_end+0xf800d5a8>
1000d5c4:	29c00826 	beq	r5,r7,1000d5e8 <__eqdf2+0x7c>
1000d5c8:	103ff71e 	bne	r2,zero,1000d5a8 <__alt_data_end+0xf800d5a8>
1000d5cc:	5104b03a 	or	r2,r10,r4
1000d5d0:	1004c03a 	cmpne	r2,r2,zero
1000d5d4:	f800283a 	ret
1000d5d8:	5112b03a 	or	r9,r10,r4
1000d5dc:	483fef26 	beq	r9,zero,1000d59c <__alt_data_end+0xf800d59c>
1000d5e0:	00800044 	movi	r2,1
1000d5e4:	f800283a 	ret
1000d5e8:	0005883a 	mov	r2,zero
1000d5ec:	f800283a 	ret

1000d5f0 <__gedf2>:
1000d5f0:	2804d53a 	srli	r2,r5,20
1000d5f4:	3806d53a 	srli	r3,r7,20
1000d5f8:	02000434 	movhi	r8,16
1000d5fc:	423fffc4 	addi	r8,r8,-1
1000d600:	0241ffc4 	movi	r9,2047
1000d604:	1081ffcc 	andi	r2,r2,2047
1000d608:	2a14703a 	and	r10,r5,r8
1000d60c:	1a46703a 	and	r3,r3,r9
1000d610:	3a10703a 	and	r8,r7,r8
1000d614:	280ad7fa 	srli	r5,r5,31
1000d618:	380ed7fa 	srli	r7,r7,31
1000d61c:	12400b26 	beq	r2,r9,1000d64c <__gedf2+0x5c>
1000d620:	1a401626 	beq	r3,r9,1000d67c <__gedf2+0x8c>
1000d624:	10000c1e 	bne	r2,zero,1000d658 <__gedf2+0x68>
1000d628:	5112b03a 	or	r9,r10,r4
1000d62c:	4813003a 	cmpeq	r9,r9,zero
1000d630:	4817883a 	mov	r11,r9
1000d634:	18000c1e 	bne	r3,zero,1000d668 <__gedf2+0x78>
1000d638:	4198b03a 	or	r12,r8,r6
1000d63c:	60000a1e 	bne	r12,zero,1000d668 <__gedf2+0x78>
1000d640:	48001326 	beq	r9,zero,1000d690 <__gedf2+0xa0>
1000d644:	0005883a 	mov	r2,zero
1000d648:	f800283a 	ret
1000d64c:	5112b03a 	or	r9,r10,r4
1000d650:	4800191e 	bne	r9,zero,1000d6b8 <__gedf2+0xc8>
1000d654:	18800926 	beq	r3,r2,1000d67c <__gedf2+0x8c>
1000d658:	18000b1e 	bne	r3,zero,1000d688 <__gedf2+0x98>
1000d65c:	4192b03a 	or	r9,r8,r6
1000d660:	0017883a 	mov	r11,zero
1000d664:	48000a26 	beq	r9,zero,1000d690 <__gedf2+0xa0>
1000d668:	39c03fcc 	andi	r7,r7,255
1000d66c:	58000726 	beq	r11,zero,1000d68c <__gedf2+0x9c>
1000d670:	3800081e 	bne	r7,zero,1000d694 <__gedf2+0xa4>
1000d674:	00bfffc4 	movi	r2,-1
1000d678:	f800283a 	ret
1000d67c:	4192b03a 	or	r9,r8,r6
1000d680:	48000d1e 	bne	r9,zero,1000d6b8 <__gedf2+0xc8>
1000d684:	103fe826 	beq	r2,zero,1000d628 <__alt_data_end+0xf800d628>
1000d688:	39c03fcc 	andi	r7,r7,255
1000d68c:	29c00326 	beq	r5,r7,1000d69c <__gedf2+0xac>
1000d690:	283ff81e 	bne	r5,zero,1000d674 <__alt_data_end+0xf800d674>
1000d694:	00800044 	movi	r2,1
1000d698:	f800283a 	ret
1000d69c:	18bffc16 	blt	r3,r2,1000d690 <__alt_data_end+0xf800d690>
1000d6a0:	10c00316 	blt	r2,r3,1000d6b0 <__gedf2+0xc0>
1000d6a4:	42bffa36 	bltu	r8,r10,1000d690 <__alt_data_end+0xf800d690>
1000d6a8:	52000526 	beq	r10,r8,1000d6c0 <__gedf2+0xd0>
1000d6ac:	523fe52e 	bgeu	r10,r8,1000d644 <__alt_data_end+0xf800d644>
1000d6b0:	283ff026 	beq	r5,zero,1000d674 <__alt_data_end+0xf800d674>
1000d6b4:	003ff706 	br	1000d694 <__alt_data_end+0xf800d694>
1000d6b8:	00bfff84 	movi	r2,-2
1000d6bc:	f800283a 	ret
1000d6c0:	313ff336 	bltu	r6,r4,1000d690 <__alt_data_end+0xf800d690>
1000d6c4:	21bfdf2e 	bgeu	r4,r6,1000d644 <__alt_data_end+0xf800d644>
1000d6c8:	283fea26 	beq	r5,zero,1000d674 <__alt_data_end+0xf800d674>
1000d6cc:	003ff106 	br	1000d694 <__alt_data_end+0xf800d694>

1000d6d0 <__ledf2>:
1000d6d0:	2804d53a 	srli	r2,r5,20
1000d6d4:	3810d53a 	srli	r8,r7,20
1000d6d8:	00c00434 	movhi	r3,16
1000d6dc:	18ffffc4 	addi	r3,r3,-1
1000d6e0:	0241ffc4 	movi	r9,2047
1000d6e4:	1081ffcc 	andi	r2,r2,2047
1000d6e8:	28d4703a 	and	r10,r5,r3
1000d6ec:	4250703a 	and	r8,r8,r9
1000d6f0:	38c6703a 	and	r3,r7,r3
1000d6f4:	280ad7fa 	srli	r5,r5,31
1000d6f8:	380ed7fa 	srli	r7,r7,31
1000d6fc:	12400b26 	beq	r2,r9,1000d72c <__ledf2+0x5c>
1000d700:	42401926 	beq	r8,r9,1000d768 <__ledf2+0x98>
1000d704:	10000c1e 	bne	r2,zero,1000d738 <__ledf2+0x68>
1000d708:	5112b03a 	or	r9,r10,r4
1000d70c:	4813003a 	cmpeq	r9,r9,zero
1000d710:	4817883a 	mov	r11,r9
1000d714:	40000f26 	beq	r8,zero,1000d754 <__ledf2+0x84>
1000d718:	39c03fcc 	andi	r7,r7,255
1000d71c:	58001826 	beq	r11,zero,1000d780 <__ledf2+0xb0>
1000d720:	38000a1e 	bne	r7,zero,1000d74c <__ledf2+0x7c>
1000d724:	00bfffc4 	movi	r2,-1
1000d728:	f800283a 	ret
1000d72c:	5112b03a 	or	r9,r10,r4
1000d730:	48000f1e 	bne	r9,zero,1000d770 <__ledf2+0xa0>
1000d734:	40800c26 	beq	r8,r2,1000d768 <__ledf2+0x98>
1000d738:	4000101e 	bne	r8,zero,1000d77c <__ledf2+0xac>
1000d73c:	1992b03a 	or	r9,r3,r6
1000d740:	0017883a 	mov	r11,zero
1000d744:	483ff41e 	bne	r9,zero,1000d718 <__alt_data_end+0xf800d718>
1000d748:	283ff61e 	bne	r5,zero,1000d724 <__alt_data_end+0xf800d724>
1000d74c:	00800044 	movi	r2,1
1000d750:	f800283a 	ret
1000d754:	1998b03a 	or	r12,r3,r6
1000d758:	603fef1e 	bne	r12,zero,1000d718 <__alt_data_end+0xf800d718>
1000d75c:	483ffa26 	beq	r9,zero,1000d748 <__alt_data_end+0xf800d748>
1000d760:	0005883a 	mov	r2,zero
1000d764:	f800283a 	ret
1000d768:	1992b03a 	or	r9,r3,r6
1000d76c:	48000226 	beq	r9,zero,1000d778 <__ledf2+0xa8>
1000d770:	00800084 	movi	r2,2
1000d774:	f800283a 	ret
1000d778:	103fe326 	beq	r2,zero,1000d708 <__alt_data_end+0xf800d708>
1000d77c:	39c03fcc 	andi	r7,r7,255
1000d780:	29fff11e 	bne	r5,r7,1000d748 <__alt_data_end+0xf800d748>
1000d784:	40bff016 	blt	r8,r2,1000d748 <__alt_data_end+0xf800d748>
1000d788:	12000316 	blt	r2,r8,1000d798 <__ledf2+0xc8>
1000d78c:	1abfee36 	bltu	r3,r10,1000d748 <__alt_data_end+0xf800d748>
1000d790:	50c00326 	beq	r10,r3,1000d7a0 <__ledf2+0xd0>
1000d794:	50fff22e 	bgeu	r10,r3,1000d760 <__alt_data_end+0xf800d760>
1000d798:	283fe226 	beq	r5,zero,1000d724 <__alt_data_end+0xf800d724>
1000d79c:	003feb06 	br	1000d74c <__alt_data_end+0xf800d74c>
1000d7a0:	313fe936 	bltu	r6,r4,1000d748 <__alt_data_end+0xf800d748>
1000d7a4:	21bfee2e 	bgeu	r4,r6,1000d760 <__alt_data_end+0xf800d760>
1000d7a8:	283fde26 	beq	r5,zero,1000d724 <__alt_data_end+0xf800d724>
1000d7ac:	003fe706 	br	1000d74c <__alt_data_end+0xf800d74c>

1000d7b0 <__muldf3>:
1000d7b0:	deffee04 	addi	sp,sp,-72
1000d7b4:	dd000c15 	stw	r20,48(sp)
1000d7b8:	2828d53a 	srli	r20,r5,20
1000d7bc:	dd400d15 	stw	r21,52(sp)
1000d7c0:	282ad7fa 	srli	r21,r5,31
1000d7c4:	dc000815 	stw	r16,32(sp)
1000d7c8:	04000434 	movhi	r16,16
1000d7cc:	ddc00f15 	stw	r23,60(sp)
1000d7d0:	dcc00b15 	stw	r19,44(sp)
1000d7d4:	dc800a15 	stw	r18,40(sp)
1000d7d8:	843fffc4 	addi	r16,r16,-1
1000d7dc:	dfc01115 	stw	ra,68(sp)
1000d7e0:	df001015 	stw	fp,64(sp)
1000d7e4:	dd800e15 	stw	r22,56(sp)
1000d7e8:	dc400915 	stw	r17,36(sp)
1000d7ec:	a501ffcc 	andi	r20,r20,2047
1000d7f0:	2025883a 	mov	r18,r4
1000d7f4:	202f883a 	mov	r23,r4
1000d7f8:	2c20703a 	and	r16,r5,r16
1000d7fc:	a827883a 	mov	r19,r21
1000d800:	aa403fcc 	andi	r9,r21,255
1000d804:	a0005926 	beq	r20,zero,1000d96c <__muldf3+0x1bc>
1000d808:	0081ffc4 	movi	r2,2047
1000d80c:	a0803426 	beq	r20,r2,1000d8e0 <__muldf3+0x130>
1000d810:	84000434 	orhi	r16,r16,16
1000d814:	2004d77a 	srli	r2,r4,29
1000d818:	802090fa 	slli	r16,r16,3
1000d81c:	202e90fa 	slli	r23,r4,3
1000d820:	a53f0044 	addi	r20,r20,-1023
1000d824:	80a0b03a 	or	r16,r16,r2
1000d828:	000b883a 	mov	r5,zero
1000d82c:	0039883a 	mov	fp,zero
1000d830:	3806d53a 	srli	r3,r7,20
1000d834:	382cd7fa 	srli	r22,r7,31
1000d838:	00800434 	movhi	r2,16
1000d83c:	10bfffc4 	addi	r2,r2,-1
1000d840:	18c1ffcc 	andi	r3,r3,2047
1000d844:	3025883a 	mov	r18,r6
1000d848:	38a2703a 	and	r17,r7,r2
1000d84c:	b2803fcc 	andi	r10,r22,255
1000d850:	18006426 	beq	r3,zero,1000d9e4 <__muldf3+0x234>
1000d854:	0081ffc4 	movi	r2,2047
1000d858:	18805c26 	beq	r3,r2,1000d9cc <__muldf3+0x21c>
1000d85c:	8c400434 	orhi	r17,r17,16
1000d860:	3004d77a 	srli	r2,r6,29
1000d864:	882290fa 	slli	r17,r17,3
1000d868:	302490fa 	slli	r18,r6,3
1000d86c:	18ff0044 	addi	r3,r3,-1023
1000d870:	88a2b03a 	or	r17,r17,r2
1000d874:	000f883a 	mov	r7,zero
1000d878:	394ab03a 	or	r5,r7,r5
1000d87c:	280a90ba 	slli	r5,r5,2
1000d880:	00840074 	movhi	r2,4097
1000d884:	10b62804 	addi	r2,r2,-10080
1000d888:	288b883a 	add	r5,r5,r2
1000d88c:	28800017 	ldw	r2,0(r5)
1000d890:	a0c7883a 	add	r3,r20,r3
1000d894:	b54cf03a 	xor	r6,r22,r21
1000d898:	1a000044 	addi	r8,r3,1
1000d89c:	1000683a 	jmp	r2
1000d8a0:	1000dae4 	muli	zero,r2,875
1000d8a4:	1000dad0 	cmplti	zero,r2,875
1000d8a8:	1000dad0 	cmplti	zero,r2,875
1000d8ac:	1000dabc 	xorhi	zero,r2,874
1000d8b0:	1000d8fc 	xorhi	zero,r2,867
1000d8b4:	1000d8fc 	xorhi	zero,r2,867
1000d8b8:	1000daa4 	muli	zero,r2,874
1000d8bc:	1000dabc 	xorhi	zero,r2,874
1000d8c0:	1000d8fc 	xorhi	zero,r2,867
1000d8c4:	1000daa4 	muli	zero,r2,874
1000d8c8:	1000d8fc 	xorhi	zero,r2,867
1000d8cc:	1000dabc 	xorhi	zero,r2,874
1000d8d0:	1000d900 	call	11000d90 <_gp+0xfe54b4>
1000d8d4:	1000d900 	call	11000d90 <_gp+0xfe54b4>
1000d8d8:	1000d900 	call	11000d90 <_gp+0xfe54b4>
1000d8dc:	1000de20 	cmpeqi	zero,r2,888
1000d8e0:	8104b03a 	or	r2,r16,r4
1000d8e4:	10006c1e 	bne	r2,zero,1000da98 <__muldf3+0x2e8>
1000d8e8:	01400204 	movi	r5,8
1000d8ec:	0021883a 	mov	r16,zero
1000d8f0:	002f883a 	mov	r23,zero
1000d8f4:	07000084 	movi	fp,2
1000d8f8:	003fcd06 	br	1000d830 <__alt_data_end+0xf800d830>
1000d8fc:	3013883a 	mov	r9,r6
1000d900:	00800084 	movi	r2,2
1000d904:	e080501e 	bne	fp,r2,1000da48 <__muldf3+0x298>
1000d908:	4cc0004c 	andi	r19,r9,1
1000d90c:	0101ffc4 	movi	r4,2047
1000d910:	0021883a 	mov	r16,zero
1000d914:	002f883a 	mov	r23,zero
1000d918:	2008953a 	slli	r4,r4,20
1000d91c:	98c03fcc 	andi	r3,r19,255
1000d920:	04400434 	movhi	r17,16
1000d924:	8c7fffc4 	addi	r17,r17,-1
1000d928:	180697fa 	slli	r3,r3,31
1000d92c:	8460703a 	and	r16,r16,r17
1000d930:	8120b03a 	or	r16,r16,r4
1000d934:	80c6b03a 	or	r3,r16,r3
1000d938:	b805883a 	mov	r2,r23
1000d93c:	dfc01117 	ldw	ra,68(sp)
1000d940:	df001017 	ldw	fp,64(sp)
1000d944:	ddc00f17 	ldw	r23,60(sp)
1000d948:	dd800e17 	ldw	r22,56(sp)
1000d94c:	dd400d17 	ldw	r21,52(sp)
1000d950:	dd000c17 	ldw	r20,48(sp)
1000d954:	dcc00b17 	ldw	r19,44(sp)
1000d958:	dc800a17 	ldw	r18,40(sp)
1000d95c:	dc400917 	ldw	r17,36(sp)
1000d960:	dc000817 	ldw	r16,32(sp)
1000d964:	dec01204 	addi	sp,sp,72
1000d968:	f800283a 	ret
1000d96c:	8104b03a 	or	r2,r16,r4
1000d970:	10004426 	beq	r2,zero,1000da84 <__muldf3+0x2d4>
1000d974:	80014b26 	beq	r16,zero,1000dea4 <__muldf3+0x6f4>
1000d978:	8009883a 	mov	r4,r16
1000d97c:	d9800715 	stw	r6,28(sp)
1000d980:	d9c00215 	stw	r7,8(sp)
1000d984:	da400415 	stw	r9,16(sp)
1000d988:	000eae80 	call	1000eae8 <__clzsi2>
1000d98c:	d9800717 	ldw	r6,28(sp)
1000d990:	d9c00217 	ldw	r7,8(sp)
1000d994:	da400417 	ldw	r9,16(sp)
1000d998:	1007883a 	mov	r3,r2
1000d99c:	01000a04 	movi	r4,40
1000d9a0:	1dfffe04 	addi	r23,r3,-8
1000d9a4:	20c9c83a 	sub	r4,r4,r3
1000d9a8:	85e0983a 	sll	r16,r16,r23
1000d9ac:	9108d83a 	srl	r4,r18,r4
1000d9b0:	95ee983a 	sll	r23,r18,r23
1000d9b4:	2420b03a 	or	r16,r4,r16
1000d9b8:	053f0344 	movi	r20,-1011
1000d9bc:	a0e9c83a 	sub	r20,r20,r3
1000d9c0:	000b883a 	mov	r5,zero
1000d9c4:	0039883a 	mov	fp,zero
1000d9c8:	003f9906 	br	1000d830 <__alt_data_end+0xf800d830>
1000d9cc:	8984b03a 	or	r2,r17,r6
1000d9d0:	10002a1e 	bne	r2,zero,1000da7c <__muldf3+0x2cc>
1000d9d4:	0023883a 	mov	r17,zero
1000d9d8:	0025883a 	mov	r18,zero
1000d9dc:	01c00084 	movi	r7,2
1000d9e0:	003fa506 	br	1000d878 <__alt_data_end+0xf800d878>
1000d9e4:	8984b03a 	or	r2,r17,r6
1000d9e8:	10002026 	beq	r2,zero,1000da6c <__muldf3+0x2bc>
1000d9ec:	88011c26 	beq	r17,zero,1000de60 <__muldf3+0x6b0>
1000d9f0:	8809883a 	mov	r4,r17
1000d9f4:	d9400215 	stw	r5,8(sp)
1000d9f8:	d9800715 	stw	r6,28(sp)
1000d9fc:	da400415 	stw	r9,16(sp)
1000da00:	da800315 	stw	r10,12(sp)
1000da04:	000eae80 	call	1000eae8 <__clzsi2>
1000da08:	d9400217 	ldw	r5,8(sp)
1000da0c:	d9800717 	ldw	r6,28(sp)
1000da10:	da400417 	ldw	r9,16(sp)
1000da14:	da800317 	ldw	r10,12(sp)
1000da18:	1007883a 	mov	r3,r2
1000da1c:	01000a04 	movi	r4,40
1000da20:	1cbffe04 	addi	r18,r3,-8
1000da24:	20c9c83a 	sub	r4,r4,r3
1000da28:	8ca2983a 	sll	r17,r17,r18
1000da2c:	3108d83a 	srl	r4,r6,r4
1000da30:	34a4983a 	sll	r18,r6,r18
1000da34:	2462b03a 	or	r17,r4,r17
1000da38:	00bf0344 	movi	r2,-1011
1000da3c:	10c7c83a 	sub	r3,r2,r3
1000da40:	000f883a 	mov	r7,zero
1000da44:	003f8c06 	br	1000d878 <__alt_data_end+0xf800d878>
1000da48:	008000c4 	movi	r2,3
1000da4c:	e0816d26 	beq	fp,r2,1000e004 <__muldf3+0x854>
1000da50:	00800044 	movi	r2,1
1000da54:	e081321e 	bne	fp,r2,1000df20 <__muldf3+0x770>
1000da58:	48a6703a 	and	r19,r9,r2
1000da5c:	0009883a 	mov	r4,zero
1000da60:	0021883a 	mov	r16,zero
1000da64:	002f883a 	mov	r23,zero
1000da68:	003fab06 	br	1000d918 <__alt_data_end+0xf800d918>
1000da6c:	0023883a 	mov	r17,zero
1000da70:	0025883a 	mov	r18,zero
1000da74:	01c00044 	movi	r7,1
1000da78:	003f7f06 	br	1000d878 <__alt_data_end+0xf800d878>
1000da7c:	01c000c4 	movi	r7,3
1000da80:	003f7d06 	br	1000d878 <__alt_data_end+0xf800d878>
1000da84:	01400104 	movi	r5,4
1000da88:	0021883a 	mov	r16,zero
1000da8c:	002f883a 	mov	r23,zero
1000da90:	07000044 	movi	fp,1
1000da94:	003f6606 	br	1000d830 <__alt_data_end+0xf800d830>
1000da98:	01400304 	movi	r5,12
1000da9c:	070000c4 	movi	fp,3
1000daa0:	003f6306 	br	1000d830 <__alt_data_end+0xf800d830>
1000daa4:	04000434 	movhi	r16,16
1000daa8:	0027883a 	mov	r19,zero
1000daac:	843fffc4 	addi	r16,r16,-1
1000dab0:	05ffffc4 	movi	r23,-1
1000dab4:	0101ffc4 	movi	r4,2047
1000dab8:	003f9706 	br	1000d918 <__alt_data_end+0xf800d918>
1000dabc:	8821883a 	mov	r16,r17
1000dac0:	902f883a 	mov	r23,r18
1000dac4:	5013883a 	mov	r9,r10
1000dac8:	3839883a 	mov	fp,r7
1000dacc:	003f8c06 	br	1000d900 <__alt_data_end+0xf800d900>
1000dad0:	8821883a 	mov	r16,r17
1000dad4:	902f883a 	mov	r23,r18
1000dad8:	3013883a 	mov	r9,r6
1000dadc:	3839883a 	mov	fp,r7
1000dae0:	003f8706 	br	1000d900 <__alt_data_end+0xf800d900>
1000dae4:	b82ad43a 	srli	r21,r23,16
1000dae8:	9038d43a 	srli	fp,r18,16
1000daec:	bdffffcc 	andi	r23,r23,65535
1000daf0:	94bfffcc 	andi	r18,r18,65535
1000daf4:	9009883a 	mov	r4,r18
1000daf8:	b80b883a 	mov	r5,r23
1000dafc:	d8c00515 	stw	r3,20(sp)
1000db00:	d9800715 	stw	r6,28(sp)
1000db04:	da000615 	stw	r8,24(sp)
1000db08:	000c3280 	call	1000c328 <__mulsi3>
1000db0c:	9009883a 	mov	r4,r18
1000db10:	a80b883a 	mov	r5,r21
1000db14:	1029883a 	mov	r20,r2
1000db18:	000c3280 	call	1000c328 <__mulsi3>
1000db1c:	e009883a 	mov	r4,fp
1000db20:	a80b883a 	mov	r5,r21
1000db24:	102d883a 	mov	r22,r2
1000db28:	000c3280 	call	1000c328 <__mulsi3>
1000db2c:	e009883a 	mov	r4,fp
1000db30:	b80b883a 	mov	r5,r23
1000db34:	1027883a 	mov	r19,r2
1000db38:	000c3280 	call	1000c328 <__mulsi3>
1000db3c:	a008d43a 	srli	r4,r20,16
1000db40:	b085883a 	add	r2,r22,r2
1000db44:	d8c00517 	ldw	r3,20(sp)
1000db48:	110f883a 	add	r7,r2,r4
1000db4c:	d9800717 	ldw	r6,28(sp)
1000db50:	da000617 	ldw	r8,24(sp)
1000db54:	3d80022e 	bgeu	r7,r22,1000db60 <__muldf3+0x3b0>
1000db58:	00800074 	movhi	r2,1
1000db5c:	98a7883a 	add	r19,r19,r2
1000db60:	3804943a 	slli	r2,r7,16
1000db64:	380ed43a 	srli	r7,r7,16
1000db68:	882cd43a 	srli	r22,r17,16
1000db6c:	a53fffcc 	andi	r20,r20,65535
1000db70:	8c7fffcc 	andi	r17,r17,65535
1000db74:	1529883a 	add	r20,r2,r20
1000db78:	8809883a 	mov	r4,r17
1000db7c:	b80b883a 	mov	r5,r23
1000db80:	d8c00515 	stw	r3,20(sp)
1000db84:	d9800715 	stw	r6,28(sp)
1000db88:	da000615 	stw	r8,24(sp)
1000db8c:	d9c00015 	stw	r7,0(sp)
1000db90:	dd000115 	stw	r20,4(sp)
1000db94:	000c3280 	call	1000c328 <__mulsi3>
1000db98:	a80b883a 	mov	r5,r21
1000db9c:	8809883a 	mov	r4,r17
1000dba0:	d8800415 	stw	r2,16(sp)
1000dba4:	000c3280 	call	1000c328 <__mulsi3>
1000dba8:	a80b883a 	mov	r5,r21
1000dbac:	b009883a 	mov	r4,r22
1000dbb0:	1029883a 	mov	r20,r2
1000dbb4:	000c3280 	call	1000c328 <__mulsi3>
1000dbb8:	b009883a 	mov	r4,r22
1000dbbc:	b80b883a 	mov	r5,r23
1000dbc0:	102b883a 	mov	r21,r2
1000dbc4:	000c3280 	call	1000c328 <__mulsi3>
1000dbc8:	da400417 	ldw	r9,16(sp)
1000dbcc:	a085883a 	add	r2,r20,r2
1000dbd0:	d8c00517 	ldw	r3,20(sp)
1000dbd4:	4808d43a 	srli	r4,r9,16
1000dbd8:	d9800717 	ldw	r6,28(sp)
1000dbdc:	da000617 	ldw	r8,24(sp)
1000dbe0:	1109883a 	add	r4,r2,r4
1000dbe4:	2500022e 	bgeu	r4,r20,1000dbf0 <__muldf3+0x440>
1000dbe8:	00800074 	movhi	r2,1
1000dbec:	a8ab883a 	add	r21,r21,r2
1000dbf0:	200e943a 	slli	r7,r4,16
1000dbf4:	2004d43a 	srli	r2,r4,16
1000dbf8:	802ed43a 	srli	r23,r16,16
1000dbfc:	843fffcc 	andi	r16,r16,65535
1000dc00:	4d3fffcc 	andi	r20,r9,65535
1000dc04:	9009883a 	mov	r4,r18
1000dc08:	800b883a 	mov	r5,r16
1000dc0c:	3d29883a 	add	r20,r7,r20
1000dc10:	d8c00515 	stw	r3,20(sp)
1000dc14:	d9800715 	stw	r6,28(sp)
1000dc18:	da000615 	stw	r8,24(sp)
1000dc1c:	a8ab883a 	add	r21,r21,r2
1000dc20:	000c3280 	call	1000c328 <__mulsi3>
1000dc24:	9009883a 	mov	r4,r18
1000dc28:	b80b883a 	mov	r5,r23
1000dc2c:	d8800315 	stw	r2,12(sp)
1000dc30:	000c3280 	call	1000c328 <__mulsi3>
1000dc34:	e009883a 	mov	r4,fp
1000dc38:	b80b883a 	mov	r5,r23
1000dc3c:	1025883a 	mov	r18,r2
1000dc40:	000c3280 	call	1000c328 <__mulsi3>
1000dc44:	e009883a 	mov	r4,fp
1000dc48:	800b883a 	mov	r5,r16
1000dc4c:	d8800215 	stw	r2,8(sp)
1000dc50:	000c3280 	call	1000c328 <__mulsi3>
1000dc54:	da800317 	ldw	r10,12(sp)
1000dc58:	d9400017 	ldw	r5,0(sp)
1000dc5c:	9085883a 	add	r2,r18,r2
1000dc60:	5008d43a 	srli	r4,r10,16
1000dc64:	a153883a 	add	r9,r20,r5
1000dc68:	d8c00517 	ldw	r3,20(sp)
1000dc6c:	1109883a 	add	r4,r2,r4
1000dc70:	d9800717 	ldw	r6,28(sp)
1000dc74:	da000617 	ldw	r8,24(sp)
1000dc78:	dac00217 	ldw	r11,8(sp)
1000dc7c:	2480022e 	bgeu	r4,r18,1000dc88 <__muldf3+0x4d8>
1000dc80:	00800074 	movhi	r2,1
1000dc84:	5897883a 	add	r11,r11,r2
1000dc88:	200e943a 	slli	r7,r4,16
1000dc8c:	2038d43a 	srli	fp,r4,16
1000dc90:	52bfffcc 	andi	r10,r10,65535
1000dc94:	3a8f883a 	add	r7,r7,r10
1000dc98:	8809883a 	mov	r4,r17
1000dc9c:	800b883a 	mov	r5,r16
1000dca0:	d8c00515 	stw	r3,20(sp)
1000dca4:	d9800715 	stw	r6,28(sp)
1000dca8:	d9c00215 	stw	r7,8(sp)
1000dcac:	da000615 	stw	r8,24(sp)
1000dcb0:	da400415 	stw	r9,16(sp)
1000dcb4:	5f39883a 	add	fp,r11,fp
1000dcb8:	000c3280 	call	1000c328 <__mulsi3>
1000dcbc:	8809883a 	mov	r4,r17
1000dcc0:	b80b883a 	mov	r5,r23
1000dcc4:	1025883a 	mov	r18,r2
1000dcc8:	000c3280 	call	1000c328 <__mulsi3>
1000dccc:	b009883a 	mov	r4,r22
1000dcd0:	b80b883a 	mov	r5,r23
1000dcd4:	d8800315 	stw	r2,12(sp)
1000dcd8:	000c3280 	call	1000c328 <__mulsi3>
1000dcdc:	b009883a 	mov	r4,r22
1000dce0:	800b883a 	mov	r5,r16
1000dce4:	1023883a 	mov	r17,r2
1000dce8:	000c3280 	call	1000c328 <__mulsi3>
1000dcec:	da800317 	ldw	r10,12(sp)
1000dcf0:	9008d43a 	srli	r4,r18,16
1000dcf4:	d8c00517 	ldw	r3,20(sp)
1000dcf8:	5085883a 	add	r2,r10,r2
1000dcfc:	1109883a 	add	r4,r2,r4
1000dd00:	d9800717 	ldw	r6,28(sp)
1000dd04:	d9c00217 	ldw	r7,8(sp)
1000dd08:	da000617 	ldw	r8,24(sp)
1000dd0c:	da400417 	ldw	r9,16(sp)
1000dd10:	2280022e 	bgeu	r4,r10,1000dd1c <__muldf3+0x56c>
1000dd14:	00800074 	movhi	r2,1
1000dd18:	88a3883a 	add	r17,r17,r2
1000dd1c:	2004943a 	slli	r2,r4,16
1000dd20:	94bfffcc 	andi	r18,r18,65535
1000dd24:	4ce7883a 	add	r19,r9,r19
1000dd28:	14a5883a 	add	r18,r2,r18
1000dd2c:	9d29803a 	cmpltu	r20,r19,r20
1000dd30:	9565883a 	add	r18,r18,r21
1000dd34:	9505883a 	add	r2,r18,r20
1000dd38:	99e7883a 	add	r19,r19,r7
1000dd3c:	99cf803a 	cmpltu	r7,r19,r7
1000dd40:	e08b883a 	add	r5,fp,r2
1000dd44:	2008d43a 	srli	r4,r4,16
1000dd48:	29ef883a 	add	r23,r5,r7
1000dd4c:	1529803a 	cmpltu	r20,r2,r20
1000dd50:	956b803a 	cmpltu	r21,r18,r21
1000dd54:	b9cf803a 	cmpltu	r7,r23,r7
1000dd58:	a564b03a 	or	r18,r20,r21
1000dd5c:	2f39803a 	cmpltu	fp,r5,fp
1000dd60:	9125883a 	add	r18,r18,r4
1000dd64:	3f38b03a 	or	fp,r7,fp
1000dd68:	9725883a 	add	r18,r18,fp
1000dd6c:	9804927a 	slli	r2,r19,9
1000dd70:	9463883a 	add	r17,r18,r17
1000dd74:	d9000117 	ldw	r4,4(sp)
1000dd78:	b820d5fa 	srli	r16,r23,23
1000dd7c:	8822927a 	slli	r17,r17,9
1000dd80:	9826d5fa 	srli	r19,r19,23
1000dd84:	1104b03a 	or	r2,r2,r4
1000dd88:	b82e927a 	slli	r23,r23,9
1000dd8c:	1004c03a 	cmpne	r2,r2,zero
1000dd90:	8c20b03a 	or	r16,r17,r16
1000dd94:	14e6b03a 	or	r19,r2,r19
1000dd98:	8080402c 	andhi	r2,r16,256
1000dd9c:	9deeb03a 	or	r23,r19,r23
1000dda0:	10000726 	beq	r2,zero,1000ddc0 <__muldf3+0x610>
1000dda4:	b804d07a 	srli	r2,r23,1
1000dda8:	800697fa 	slli	r3,r16,31
1000ddac:	bdc0004c 	andi	r23,r23,1
1000ddb0:	8020d07a 	srli	r16,r16,1
1000ddb4:	b8aeb03a 	or	r23,r23,r2
1000ddb8:	b8eeb03a 	or	r23,r23,r3
1000ddbc:	4007883a 	mov	r3,r8
1000ddc0:	1900ffc4 	addi	r4,r3,1023
1000ddc4:	01004d0e 	bge	zero,r4,1000defc <__muldf3+0x74c>
1000ddc8:	b88001cc 	andi	r2,r23,7
1000ddcc:	10000726 	beq	r2,zero,1000ddec <__muldf3+0x63c>
1000ddd0:	b94003cc 	andi	r5,r23,15
1000ddd4:	00800104 	movi	r2,4
1000ddd8:	28800426 	beq	r5,r2,1000ddec <__muldf3+0x63c>
1000dddc:	b885883a 	add	r2,r23,r2
1000dde0:	15ef803a 	cmpltu	r23,r2,r23
1000dde4:	85e1883a 	add	r16,r16,r23
1000dde8:	102f883a 	mov	r23,r2
1000ddec:	8080402c 	andhi	r2,r16,256
1000ddf0:	10000426 	beq	r2,zero,1000de04 <__muldf3+0x654>
1000ddf4:	00bfc034 	movhi	r2,65280
1000ddf8:	10bfffc4 	addi	r2,r2,-1
1000ddfc:	19010004 	addi	r4,r3,1024
1000de00:	80a0703a 	and	r16,r16,r2
1000de04:	0081ff84 	movi	r2,2046
1000de08:	1100340e 	bge	r2,r4,1000dedc <__muldf3+0x72c>
1000de0c:	34c0004c 	andi	r19,r6,1
1000de10:	0101ffc4 	movi	r4,2047
1000de14:	0021883a 	mov	r16,zero
1000de18:	002f883a 	mov	r23,zero
1000de1c:	003ebe06 	br	1000d918 <__alt_data_end+0xf800d918>
1000de20:	8080022c 	andhi	r2,r16,8
1000de24:	10000926 	beq	r2,zero,1000de4c <__muldf3+0x69c>
1000de28:	8880022c 	andhi	r2,r17,8
1000de2c:	1000071e 	bne	r2,zero,1000de4c <__muldf3+0x69c>
1000de30:	00800434 	movhi	r2,16
1000de34:	8c000234 	orhi	r16,r17,8
1000de38:	10bfffc4 	addi	r2,r2,-1
1000de3c:	b027883a 	mov	r19,r22
1000de40:	80a0703a 	and	r16,r16,r2
1000de44:	902f883a 	mov	r23,r18
1000de48:	003f1a06 	br	1000dab4 <__alt_data_end+0xf800dab4>
1000de4c:	00800434 	movhi	r2,16
1000de50:	84000234 	orhi	r16,r16,8
1000de54:	10bfffc4 	addi	r2,r2,-1
1000de58:	80a0703a 	and	r16,r16,r2
1000de5c:	003f1506 	br	1000dab4 <__alt_data_end+0xf800dab4>
1000de60:	3009883a 	mov	r4,r6
1000de64:	d9400215 	stw	r5,8(sp)
1000de68:	d9800715 	stw	r6,28(sp)
1000de6c:	da400415 	stw	r9,16(sp)
1000de70:	da800315 	stw	r10,12(sp)
1000de74:	000eae80 	call	1000eae8 <__clzsi2>
1000de78:	10c00804 	addi	r3,r2,32
1000de7c:	010009c4 	movi	r4,39
1000de80:	d9400217 	ldw	r5,8(sp)
1000de84:	d9800717 	ldw	r6,28(sp)
1000de88:	da400417 	ldw	r9,16(sp)
1000de8c:	da800317 	ldw	r10,12(sp)
1000de90:	20fee20e 	bge	r4,r3,1000da1c <__alt_data_end+0xf800da1c>
1000de94:	147ffe04 	addi	r17,r2,-8
1000de98:	9462983a 	sll	r17,r18,r17
1000de9c:	0025883a 	mov	r18,zero
1000dea0:	003ee506 	br	1000da38 <__alt_data_end+0xf800da38>
1000dea4:	d9800715 	stw	r6,28(sp)
1000dea8:	d9c00215 	stw	r7,8(sp)
1000deac:	da400415 	stw	r9,16(sp)
1000deb0:	000eae80 	call	1000eae8 <__clzsi2>
1000deb4:	10c00804 	addi	r3,r2,32
1000deb8:	010009c4 	movi	r4,39
1000debc:	d9800717 	ldw	r6,28(sp)
1000dec0:	d9c00217 	ldw	r7,8(sp)
1000dec4:	da400417 	ldw	r9,16(sp)
1000dec8:	20feb40e 	bge	r4,r3,1000d99c <__alt_data_end+0xf800d99c>
1000decc:	143ffe04 	addi	r16,r2,-8
1000ded0:	9420983a 	sll	r16,r18,r16
1000ded4:	002f883a 	mov	r23,zero
1000ded8:	003eb706 	br	1000d9b8 <__alt_data_end+0xf800d9b8>
1000dedc:	8004977a 	slli	r2,r16,29
1000dee0:	b82ed0fa 	srli	r23,r23,3
1000dee4:	8020927a 	slli	r16,r16,9
1000dee8:	2101ffcc 	andi	r4,r4,2047
1000deec:	15eeb03a 	or	r23,r2,r23
1000def0:	8020d33a 	srli	r16,r16,12
1000def4:	34c0004c 	andi	r19,r6,1
1000def8:	003e8706 	br	1000d918 <__alt_data_end+0xf800d918>
1000defc:	00bf0084 	movi	r2,-1022
1000df00:	10c5c83a 	sub	r2,r2,r3
1000df04:	01000e04 	movi	r4,56
1000df08:	2080080e 	bge	r4,r2,1000df2c <__muldf3+0x77c>
1000df0c:	34c0004c 	andi	r19,r6,1
1000df10:	0009883a 	mov	r4,zero
1000df14:	0021883a 	mov	r16,zero
1000df18:	002f883a 	mov	r23,zero
1000df1c:	003e7e06 	br	1000d918 <__alt_data_end+0xf800d918>
1000df20:	4007883a 	mov	r3,r8
1000df24:	480d883a 	mov	r6,r9
1000df28:	003fa506 	br	1000ddc0 <__alt_data_end+0xf800ddc0>
1000df2c:	010007c4 	movi	r4,31
1000df30:	20801816 	blt	r4,r2,1000df94 <__muldf3+0x7e4>
1000df34:	18c10784 	addi	r3,r3,1054
1000df38:	80c8983a 	sll	r4,r16,r3
1000df3c:	b88ad83a 	srl	r5,r23,r2
1000df40:	b8c6983a 	sll	r3,r23,r3
1000df44:	80a0d83a 	srl	r16,r16,r2
1000df48:	2908b03a 	or	r4,r5,r4
1000df4c:	1804c03a 	cmpne	r2,r3,zero
1000df50:	2088b03a 	or	r4,r4,r2
1000df54:	208001cc 	andi	r2,r4,7
1000df58:	10000726 	beq	r2,zero,1000df78 <__muldf3+0x7c8>
1000df5c:	20c003cc 	andi	r3,r4,15
1000df60:	00800104 	movi	r2,4
1000df64:	18800426 	beq	r3,r2,1000df78 <__muldf3+0x7c8>
1000df68:	20c00104 	addi	r3,r4,4
1000df6c:	1905803a 	cmpltu	r2,r3,r4
1000df70:	80a1883a 	add	r16,r16,r2
1000df74:	1809883a 	mov	r4,r3
1000df78:	8080202c 	andhi	r2,r16,128
1000df7c:	10001b26 	beq	r2,zero,1000dfec <__muldf3+0x83c>
1000df80:	34c0004c 	andi	r19,r6,1
1000df84:	01000044 	movi	r4,1
1000df88:	0021883a 	mov	r16,zero
1000df8c:	002f883a 	mov	r23,zero
1000df90:	003e6106 	br	1000d918 <__alt_data_end+0xf800d918>
1000df94:	013ef884 	movi	r4,-1054
1000df98:	20c9c83a 	sub	r4,r4,r3
1000df9c:	01400804 	movi	r5,32
1000dfa0:	8108d83a 	srl	r4,r16,r4
1000dfa4:	11401526 	beq	r2,r5,1000dffc <__muldf3+0x84c>
1000dfa8:	18c10f84 	addi	r3,r3,1086
1000dfac:	80e0983a 	sll	r16,r16,r3
1000dfb0:	85eeb03a 	or	r23,r16,r23
1000dfb4:	b804c03a 	cmpne	r2,r23,zero
1000dfb8:	1108b03a 	or	r4,r2,r4
1000dfbc:	20c001cc 	andi	r3,r4,7
1000dfc0:	1800061e 	bne	r3,zero,1000dfdc <__muldf3+0x82c>
1000dfc4:	0021883a 	mov	r16,zero
1000dfc8:	202ed0fa 	srli	r23,r4,3
1000dfcc:	34c0004c 	andi	r19,r6,1
1000dfd0:	0009883a 	mov	r4,zero
1000dfd4:	b8eeb03a 	or	r23,r23,r3
1000dfd8:	003e4f06 	br	1000d918 <__alt_data_end+0xf800d918>
1000dfdc:	20c003cc 	andi	r3,r4,15
1000dfe0:	00800104 	movi	r2,4
1000dfe4:	0021883a 	mov	r16,zero
1000dfe8:	18bfdf1e 	bne	r3,r2,1000df68 <__alt_data_end+0xf800df68>
1000dfec:	8004927a 	slli	r2,r16,9
1000dff0:	8006977a 	slli	r3,r16,29
1000dff4:	1020d33a 	srli	r16,r2,12
1000dff8:	003ff306 	br	1000dfc8 <__alt_data_end+0xf800dfc8>
1000dffc:	0021883a 	mov	r16,zero
1000e000:	003feb06 	br	1000dfb0 <__alt_data_end+0xf800dfb0>
1000e004:	00800434 	movhi	r2,16
1000e008:	84000234 	orhi	r16,r16,8
1000e00c:	10bfffc4 	addi	r2,r2,-1
1000e010:	4cc0004c 	andi	r19,r9,1
1000e014:	80a0703a 	and	r16,r16,r2
1000e018:	003ea606 	br	1000dab4 <__alt_data_end+0xf800dab4>

1000e01c <__subdf3>:
1000e01c:	00c00434 	movhi	r3,16
1000e020:	18ffffc4 	addi	r3,r3,-1
1000e024:	defffb04 	addi	sp,sp,-20
1000e028:	28d2703a 	and	r9,r5,r3
1000e02c:	3814d53a 	srli	r10,r7,20
1000e030:	38c6703a 	and	r3,r7,r3
1000e034:	3004d77a 	srli	r2,r6,29
1000e038:	dc800215 	stw	r18,8(sp)
1000e03c:	dc000015 	stw	r16,0(sp)
1000e040:	2824d7fa 	srli	r18,r5,31
1000e044:	2820d53a 	srli	r16,r5,20
1000e048:	481290fa 	slli	r9,r9,3
1000e04c:	200ad77a 	srli	r5,r4,29
1000e050:	180690fa 	slli	r3,r3,3
1000e054:	dc400115 	stw	r17,4(sp)
1000e058:	dfc00415 	stw	ra,16(sp)
1000e05c:	202290fa 	slli	r17,r4,3
1000e060:	dcc00315 	stw	r19,12(sp)
1000e064:	5281ffcc 	andi	r10,r10,2047
1000e068:	0101ffc4 	movi	r4,2047
1000e06c:	9011883a 	mov	r8,r18
1000e070:	8401ffcc 	andi	r16,r16,2047
1000e074:	94803fcc 	andi	r18,r18,255
1000e078:	494ab03a 	or	r5,r9,r5
1000e07c:	380ed7fa 	srli	r7,r7,31
1000e080:	1886b03a 	or	r3,r3,r2
1000e084:	300c90fa 	slli	r6,r6,3
1000e088:	51009026 	beq	r10,r4,1000e2cc <__subdf3+0x2b0>
1000e08c:	39c0005c 	xori	r7,r7,1
1000e090:	8285c83a 	sub	r2,r16,r10
1000e094:	91c06f26 	beq	r18,r7,1000e254 <__subdf3+0x238>
1000e098:	0080b10e 	bge	zero,r2,1000e360 <__subdf3+0x344>
1000e09c:	50002a1e 	bne	r10,zero,1000e148 <__subdf3+0x12c>
1000e0a0:	1988b03a 	or	r4,r3,r6
1000e0a4:	2000941e 	bne	r4,zero,1000e2f8 <__subdf3+0x2dc>
1000e0a8:	888001cc 	andi	r2,r17,7
1000e0ac:	10005b26 	beq	r2,zero,1000e21c <__subdf3+0x200>
1000e0b0:	88c003cc 	andi	r3,r17,15
1000e0b4:	00800104 	movi	r2,4
1000e0b8:	18805826 	beq	r3,r2,1000e21c <__subdf3+0x200>
1000e0bc:	88c00104 	addi	r3,r17,4
1000e0c0:	1c63803a 	cmpltu	r17,r3,r17
1000e0c4:	2c4b883a 	add	r5,r5,r17
1000e0c8:	2880202c 	andhi	r2,r5,128
1000e0cc:	9200004c 	andi	r8,r18,1
1000e0d0:	1823883a 	mov	r17,r3
1000e0d4:	10005426 	beq	r2,zero,1000e228 <__subdf3+0x20c>
1000e0d8:	84000044 	addi	r16,r16,1
1000e0dc:	0081ffc4 	movi	r2,2047
1000e0e0:	8080bf26 	beq	r16,r2,1000e3e0 <__subdf3+0x3c4>
1000e0e4:	013fe034 	movhi	r4,65408
1000e0e8:	213fffc4 	addi	r4,r4,-1
1000e0ec:	290a703a 	and	r5,r5,r4
1000e0f0:	2804977a 	slli	r2,r5,29
1000e0f4:	280a927a 	slli	r5,r5,9
1000e0f8:	8822d0fa 	srli	r17,r17,3
1000e0fc:	8401ffcc 	andi	r16,r16,2047
1000e100:	2808d33a 	srli	r4,r5,12
1000e104:	1444b03a 	or	r2,r2,r17
1000e108:	8401ffcc 	andi	r16,r16,2047
1000e10c:	800a953a 	slli	r5,r16,20
1000e110:	40c03fcc 	andi	r3,r8,255
1000e114:	04000434 	movhi	r16,16
1000e118:	180697fa 	slli	r3,r3,31
1000e11c:	843fffc4 	addi	r16,r16,-1
1000e120:	2420703a 	and	r16,r4,r16
1000e124:	8160b03a 	or	r16,r16,r5
1000e128:	80c6b03a 	or	r3,r16,r3
1000e12c:	dfc00417 	ldw	ra,16(sp)
1000e130:	dcc00317 	ldw	r19,12(sp)
1000e134:	dc800217 	ldw	r18,8(sp)
1000e138:	dc400117 	ldw	r17,4(sp)
1000e13c:	dc000017 	ldw	r16,0(sp)
1000e140:	dec00504 	addi	sp,sp,20
1000e144:	f800283a 	ret
1000e148:	0101ffc4 	movi	r4,2047
1000e14c:	813fd626 	beq	r16,r4,1000e0a8 <__alt_data_end+0xf800e0a8>
1000e150:	18c02034 	orhi	r3,r3,128
1000e154:	01000e04 	movi	r4,56
1000e158:	2080a416 	blt	r4,r2,1000e3ec <__subdf3+0x3d0>
1000e15c:	010007c4 	movi	r4,31
1000e160:	2080c716 	blt	r4,r2,1000e480 <__subdf3+0x464>
1000e164:	01000804 	movi	r4,32
1000e168:	2089c83a 	sub	r4,r4,r2
1000e16c:	1910983a 	sll	r8,r3,r4
1000e170:	308ed83a 	srl	r7,r6,r2
1000e174:	3108983a 	sll	r4,r6,r4
1000e178:	1884d83a 	srl	r2,r3,r2
1000e17c:	41ccb03a 	or	r6,r8,r7
1000e180:	2008c03a 	cmpne	r4,r4,zero
1000e184:	310cb03a 	or	r6,r6,r4
1000e188:	898dc83a 	sub	r6,r17,r6
1000e18c:	89a3803a 	cmpltu	r17,r17,r6
1000e190:	288bc83a 	sub	r5,r5,r2
1000e194:	2c4bc83a 	sub	r5,r5,r17
1000e198:	3023883a 	mov	r17,r6
1000e19c:	2880202c 	andhi	r2,r5,128
1000e1a0:	10006b26 	beq	r2,zero,1000e350 <__subdf3+0x334>
1000e1a4:	04c02034 	movhi	r19,128
1000e1a8:	9cffffc4 	addi	r19,r19,-1
1000e1ac:	2ce6703a 	and	r19,r5,r19
1000e1b0:	98007c26 	beq	r19,zero,1000e3a4 <__subdf3+0x388>
1000e1b4:	9809883a 	mov	r4,r19
1000e1b8:	000eae80 	call	1000eae8 <__clzsi2>
1000e1bc:	10fffe04 	addi	r3,r2,-8
1000e1c0:	010007c4 	movi	r4,31
1000e1c4:	20c07d16 	blt	r4,r3,1000e3bc <__subdf3+0x3a0>
1000e1c8:	01400a04 	movi	r5,40
1000e1cc:	2885c83a 	sub	r2,r5,r2
1000e1d0:	888ad83a 	srl	r5,r17,r2
1000e1d4:	98e6983a 	sll	r19,r19,r3
1000e1d8:	88e2983a 	sll	r17,r17,r3
1000e1dc:	2ce6b03a 	or	r19,r5,r19
1000e1e0:	1c007a16 	blt	r3,r16,1000e3cc <__subdf3+0x3b0>
1000e1e4:	1c21c83a 	sub	r16,r3,r16
1000e1e8:	81400044 	addi	r5,r16,1
1000e1ec:	00c007c4 	movi	r3,31
1000e1f0:	19409616 	blt	r3,r5,1000e44c <__subdf3+0x430>
1000e1f4:	1c21c83a 	sub	r16,r3,r16
1000e1f8:	8c08983a 	sll	r4,r17,r16
1000e1fc:	8946d83a 	srl	r3,r17,r5
1000e200:	9c20983a 	sll	r16,r19,r16
1000e204:	2008c03a 	cmpne	r4,r4,zero
1000e208:	994ad83a 	srl	r5,r19,r5
1000e20c:	1c06b03a 	or	r3,r3,r16
1000e210:	1922b03a 	or	r17,r3,r4
1000e214:	0021883a 	mov	r16,zero
1000e218:	003fa306 	br	1000e0a8 <__alt_data_end+0xf800e0a8>
1000e21c:	2880202c 	andhi	r2,r5,128
1000e220:	9200004c 	andi	r8,r18,1
1000e224:	103fac1e 	bne	r2,zero,1000e0d8 <__alt_data_end+0xf800e0d8>
1000e228:	2804977a 	slli	r2,r5,29
1000e22c:	8822d0fa 	srli	r17,r17,3
1000e230:	00c1ffc4 	movi	r3,2047
1000e234:	280ad0fa 	srli	r5,r5,3
1000e238:	1444b03a 	or	r2,r2,r17
1000e23c:	80c02726 	beq	r16,r3,1000e2dc <__subdf3+0x2c0>
1000e240:	01000434 	movhi	r4,16
1000e244:	213fffc4 	addi	r4,r4,-1
1000e248:	80e0703a 	and	r16,r16,r3
1000e24c:	2908703a 	and	r4,r5,r4
1000e250:	003fad06 	br	1000e108 <__alt_data_end+0xf800e108>
1000e254:	0080690e 	bge	zero,r2,1000e3fc <__subdf3+0x3e0>
1000e258:	50002f26 	beq	r10,zero,1000e318 <__subdf3+0x2fc>
1000e25c:	0101ffc4 	movi	r4,2047
1000e260:	813f9126 	beq	r16,r4,1000e0a8 <__alt_data_end+0xf800e0a8>
1000e264:	18c02034 	orhi	r3,r3,128
1000e268:	01000e04 	movi	r4,56
1000e26c:	2080b00e 	bge	r4,r2,1000e530 <__subdf3+0x514>
1000e270:	198cb03a 	or	r6,r3,r6
1000e274:	300ec03a 	cmpne	r7,r6,zero
1000e278:	0005883a 	mov	r2,zero
1000e27c:	3c4f883a 	add	r7,r7,r17
1000e280:	3c63803a 	cmpltu	r17,r7,r17
1000e284:	114b883a 	add	r5,r2,r5
1000e288:	2c4b883a 	add	r5,r5,r17
1000e28c:	3823883a 	mov	r17,r7
1000e290:	2880202c 	andhi	r2,r5,128
1000e294:	10002e26 	beq	r2,zero,1000e350 <__subdf3+0x334>
1000e298:	84000044 	addi	r16,r16,1
1000e29c:	0081ffc4 	movi	r2,2047
1000e2a0:	8080de26 	beq	r16,r2,1000e61c <__subdf3+0x600>
1000e2a4:	00bfe034 	movhi	r2,65408
1000e2a8:	10bfffc4 	addi	r2,r2,-1
1000e2ac:	288a703a 	and	r5,r5,r2
1000e2b0:	880cd07a 	srli	r6,r17,1
1000e2b4:	280897fa 	slli	r4,r5,31
1000e2b8:	88c0004c 	andi	r3,r17,1
1000e2bc:	30e2b03a 	or	r17,r6,r3
1000e2c0:	280ad07a 	srli	r5,r5,1
1000e2c4:	8922b03a 	or	r17,r17,r4
1000e2c8:	003f7706 	br	1000e0a8 <__alt_data_end+0xf800e0a8>
1000e2cc:	1984b03a 	or	r2,r3,r6
1000e2d0:	103f6e26 	beq	r2,zero,1000e08c <__alt_data_end+0xf800e08c>
1000e2d4:	39c03fcc 	andi	r7,r7,255
1000e2d8:	003f6d06 	br	1000e090 <__alt_data_end+0xf800e090>
1000e2dc:	1146b03a 	or	r3,r2,r5
1000e2e0:	18003f26 	beq	r3,zero,1000e3e0 <__subdf3+0x3c4>
1000e2e4:	00c00434 	movhi	r3,16
1000e2e8:	29000234 	orhi	r4,r5,8
1000e2ec:	18ffffc4 	addi	r3,r3,-1
1000e2f0:	20c8703a 	and	r4,r4,r3
1000e2f4:	003f8406 	br	1000e108 <__alt_data_end+0xf800e108>
1000e2f8:	10bfffc4 	addi	r2,r2,-1
1000e2fc:	1000501e 	bne	r2,zero,1000e440 <__subdf3+0x424>
1000e300:	898fc83a 	sub	r7,r17,r6
1000e304:	89e3803a 	cmpltu	r17,r17,r7
1000e308:	28cbc83a 	sub	r5,r5,r3
1000e30c:	2c4bc83a 	sub	r5,r5,r17
1000e310:	3823883a 	mov	r17,r7
1000e314:	003fa106 	br	1000e19c <__alt_data_end+0xf800e19c>
1000e318:	1988b03a 	or	r4,r3,r6
1000e31c:	203f6226 	beq	r4,zero,1000e0a8 <__alt_data_end+0xf800e0a8>
1000e320:	10bfffc4 	addi	r2,r2,-1
1000e324:	10009b1e 	bne	r2,zero,1000e594 <__subdf3+0x578>
1000e328:	344d883a 	add	r6,r6,r17
1000e32c:	3463803a 	cmpltu	r17,r6,r17
1000e330:	194b883a 	add	r5,r3,r5
1000e334:	2c4b883a 	add	r5,r5,r17
1000e338:	3023883a 	mov	r17,r6
1000e33c:	003fd406 	br	1000e290 <__alt_data_end+0xf800e290>
1000e340:	1106b03a 	or	r3,r2,r4
1000e344:	1800b426 	beq	r3,zero,1000e618 <__subdf3+0x5fc>
1000e348:	100b883a 	mov	r5,r2
1000e34c:	2023883a 	mov	r17,r4
1000e350:	888001cc 	andi	r2,r17,7
1000e354:	103f561e 	bne	r2,zero,1000e0b0 <__alt_data_end+0xf800e0b0>
1000e358:	9200004c 	andi	r8,r18,1
1000e35c:	003fb206 	br	1000e228 <__alt_data_end+0xf800e228>
1000e360:	1000531e 	bne	r2,zero,1000e4b0 <__subdf3+0x494>
1000e364:	80800044 	addi	r2,r16,1
1000e368:	1081ffcc 	andi	r2,r2,2047
1000e36c:	01000044 	movi	r4,1
1000e370:	2080a00e 	bge	r4,r2,1000e5f4 <__subdf3+0x5d8>
1000e374:	8985c83a 	sub	r2,r17,r6
1000e378:	8889803a 	cmpltu	r4,r17,r2
1000e37c:	28e7c83a 	sub	r19,r5,r3
1000e380:	9927c83a 	sub	r19,r19,r4
1000e384:	9900202c 	andhi	r4,r19,128
1000e388:	20006226 	beq	r4,zero,1000e514 <__subdf3+0x4f8>
1000e38c:	3463c83a 	sub	r17,r6,r17
1000e390:	194bc83a 	sub	r5,r3,r5
1000e394:	344d803a 	cmpltu	r6,r6,r17
1000e398:	29a7c83a 	sub	r19,r5,r6
1000e39c:	3825883a 	mov	r18,r7
1000e3a0:	983f841e 	bne	r19,zero,1000e1b4 <__alt_data_end+0xf800e1b4>
1000e3a4:	8809883a 	mov	r4,r17
1000e3a8:	000eae80 	call	1000eae8 <__clzsi2>
1000e3ac:	10800804 	addi	r2,r2,32
1000e3b0:	10fffe04 	addi	r3,r2,-8
1000e3b4:	010007c4 	movi	r4,31
1000e3b8:	20ff830e 	bge	r4,r3,1000e1c8 <__alt_data_end+0xf800e1c8>
1000e3bc:	14fff604 	addi	r19,r2,-40
1000e3c0:	8ce6983a 	sll	r19,r17,r19
1000e3c4:	0023883a 	mov	r17,zero
1000e3c8:	1c3f860e 	bge	r3,r16,1000e1e4 <__alt_data_end+0xf800e1e4>
1000e3cc:	017fe034 	movhi	r5,65408
1000e3d0:	297fffc4 	addi	r5,r5,-1
1000e3d4:	80e1c83a 	sub	r16,r16,r3
1000e3d8:	994a703a 	and	r5,r19,r5
1000e3dc:	003f3206 	br	1000e0a8 <__alt_data_end+0xf800e0a8>
1000e3e0:	0009883a 	mov	r4,zero
1000e3e4:	0005883a 	mov	r2,zero
1000e3e8:	003f4706 	br	1000e108 <__alt_data_end+0xf800e108>
1000e3ec:	198cb03a 	or	r6,r3,r6
1000e3f0:	300cc03a 	cmpne	r6,r6,zero
1000e3f4:	0005883a 	mov	r2,zero
1000e3f8:	003f6306 	br	1000e188 <__alt_data_end+0xf800e188>
1000e3fc:	10009d1e 	bne	r2,zero,1000e674 <__subdf3+0x658>
1000e400:	81c00044 	addi	r7,r16,1
1000e404:	3881ffcc 	andi	r2,r7,2047
1000e408:	02400044 	movi	r9,1
1000e40c:	4880680e 	bge	r9,r2,1000e5b0 <__subdf3+0x594>
1000e410:	0081ffc4 	movi	r2,2047
1000e414:	3880ae26 	beq	r7,r2,1000e6d0 <__subdf3+0x6b4>
1000e418:	344d883a 	add	r6,r6,r17
1000e41c:	3463803a 	cmpltu	r17,r6,r17
1000e420:	194b883a 	add	r5,r3,r5
1000e424:	2c4b883a 	add	r5,r5,r17
1000e428:	282297fa 	slli	r17,r5,31
1000e42c:	300cd07a 	srli	r6,r6,1
1000e430:	280ad07a 	srli	r5,r5,1
1000e434:	3821883a 	mov	r16,r7
1000e438:	89a2b03a 	or	r17,r17,r6
1000e43c:	003f1a06 	br	1000e0a8 <__alt_data_end+0xf800e0a8>
1000e440:	0101ffc4 	movi	r4,2047
1000e444:	813f431e 	bne	r16,r4,1000e154 <__alt_data_end+0xf800e154>
1000e448:	003f1706 	br	1000e0a8 <__alt_data_end+0xf800e0a8>
1000e44c:	80bff844 	addi	r2,r16,-31
1000e450:	00c00804 	movi	r3,32
1000e454:	9884d83a 	srl	r2,r19,r2
1000e458:	28c05126 	beq	r5,r3,1000e5a0 <__subdf3+0x584>
1000e45c:	00c00fc4 	movi	r3,63
1000e460:	1c21c83a 	sub	r16,r3,r16
1000e464:	9c26983a 	sll	r19,r19,r16
1000e468:	9c62b03a 	or	r17,r19,r17
1000e46c:	8822c03a 	cmpne	r17,r17,zero
1000e470:	88a2b03a 	or	r17,r17,r2
1000e474:	000b883a 	mov	r5,zero
1000e478:	0021883a 	mov	r16,zero
1000e47c:	003fb406 	br	1000e350 <__alt_data_end+0xf800e350>
1000e480:	113ff804 	addi	r4,r2,-32
1000e484:	01c00804 	movi	r7,32
1000e488:	1908d83a 	srl	r4,r3,r4
1000e48c:	11c04626 	beq	r2,r7,1000e5a8 <__subdf3+0x58c>
1000e490:	01c01004 	movi	r7,64
1000e494:	3885c83a 	sub	r2,r7,r2
1000e498:	1884983a 	sll	r2,r3,r2
1000e49c:	118cb03a 	or	r6,r2,r6
1000e4a0:	300cc03a 	cmpne	r6,r6,zero
1000e4a4:	310cb03a 	or	r6,r6,r4
1000e4a8:	0005883a 	mov	r2,zero
1000e4ac:	003f3606 	br	1000e188 <__alt_data_end+0xf800e188>
1000e4b0:	80002b26 	beq	r16,zero,1000e560 <__subdf3+0x544>
1000e4b4:	0101ffc4 	movi	r4,2047
1000e4b8:	51006926 	beq	r10,r4,1000e660 <__subdf3+0x644>
1000e4bc:	0085c83a 	sub	r2,zero,r2
1000e4c0:	29402034 	orhi	r5,r5,128
1000e4c4:	01000e04 	movi	r4,56
1000e4c8:	20807d16 	blt	r4,r2,1000e6c0 <__subdf3+0x6a4>
1000e4cc:	010007c4 	movi	r4,31
1000e4d0:	2080d916 	blt	r4,r2,1000e838 <__subdf3+0x81c>
1000e4d4:	01000804 	movi	r4,32
1000e4d8:	2089c83a 	sub	r4,r4,r2
1000e4dc:	2912983a 	sll	r9,r5,r4
1000e4e0:	8890d83a 	srl	r8,r17,r2
1000e4e4:	8908983a 	sll	r4,r17,r4
1000e4e8:	2884d83a 	srl	r2,r5,r2
1000e4ec:	4a22b03a 	or	r17,r9,r8
1000e4f0:	2008c03a 	cmpne	r4,r4,zero
1000e4f4:	8922b03a 	or	r17,r17,r4
1000e4f8:	3463c83a 	sub	r17,r6,r17
1000e4fc:	1885c83a 	sub	r2,r3,r2
1000e500:	344d803a 	cmpltu	r6,r6,r17
1000e504:	118bc83a 	sub	r5,r2,r6
1000e508:	5021883a 	mov	r16,r10
1000e50c:	3825883a 	mov	r18,r7
1000e510:	003f2206 	br	1000e19c <__alt_data_end+0xf800e19c>
1000e514:	9886b03a 	or	r3,r19,r2
1000e518:	18001c1e 	bne	r3,zero,1000e58c <__subdf3+0x570>
1000e51c:	0011883a 	mov	r8,zero
1000e520:	000b883a 	mov	r5,zero
1000e524:	0023883a 	mov	r17,zero
1000e528:	0021883a 	mov	r16,zero
1000e52c:	003f3e06 	br	1000e228 <__alt_data_end+0xf800e228>
1000e530:	010007c4 	movi	r4,31
1000e534:	20803c16 	blt	r4,r2,1000e628 <__subdf3+0x60c>
1000e538:	01000804 	movi	r4,32
1000e53c:	2089c83a 	sub	r4,r4,r2
1000e540:	1912983a 	sll	r9,r3,r4
1000e544:	308ed83a 	srl	r7,r6,r2
1000e548:	3108983a 	sll	r4,r6,r4
1000e54c:	1884d83a 	srl	r2,r3,r2
1000e550:	49ceb03a 	or	r7,r9,r7
1000e554:	2008c03a 	cmpne	r4,r4,zero
1000e558:	390eb03a 	or	r7,r7,r4
1000e55c:	003f4706 	br	1000e27c <__alt_data_end+0xf800e27c>
1000e560:	2c48b03a 	or	r4,r5,r17
1000e564:	20003e26 	beq	r4,zero,1000e660 <__subdf3+0x644>
1000e568:	0084303a 	nor	r2,zero,r2
1000e56c:	10003a1e 	bne	r2,zero,1000e658 <__subdf3+0x63c>
1000e570:	3463c83a 	sub	r17,r6,r17
1000e574:	194bc83a 	sub	r5,r3,r5
1000e578:	344d803a 	cmpltu	r6,r6,r17
1000e57c:	298bc83a 	sub	r5,r5,r6
1000e580:	5021883a 	mov	r16,r10
1000e584:	3825883a 	mov	r18,r7
1000e588:	003f0406 	br	1000e19c <__alt_data_end+0xf800e19c>
1000e58c:	1023883a 	mov	r17,r2
1000e590:	003f0706 	br	1000e1b0 <__alt_data_end+0xf800e1b0>
1000e594:	0101ffc4 	movi	r4,2047
1000e598:	813f331e 	bne	r16,r4,1000e268 <__alt_data_end+0xf800e268>
1000e59c:	003ec206 	br	1000e0a8 <__alt_data_end+0xf800e0a8>
1000e5a0:	0027883a 	mov	r19,zero
1000e5a4:	003fb006 	br	1000e468 <__alt_data_end+0xf800e468>
1000e5a8:	0005883a 	mov	r2,zero
1000e5ac:	003fbb06 	br	1000e49c <__alt_data_end+0xf800e49c>
1000e5b0:	2c44b03a 	or	r2,r5,r17
1000e5b4:	80008b1e 	bne	r16,zero,1000e7e4 <__subdf3+0x7c8>
1000e5b8:	1000b526 	beq	r2,zero,1000e890 <__subdf3+0x874>
1000e5bc:	1984b03a 	or	r2,r3,r6
1000e5c0:	103eb926 	beq	r2,zero,1000e0a8 <__alt_data_end+0xf800e0a8>
1000e5c4:	3449883a 	add	r4,r6,r17
1000e5c8:	2463803a 	cmpltu	r17,r4,r17
1000e5cc:	194b883a 	add	r5,r3,r5
1000e5d0:	2c4b883a 	add	r5,r5,r17
1000e5d4:	2880202c 	andhi	r2,r5,128
1000e5d8:	2023883a 	mov	r17,r4
1000e5dc:	103f5c26 	beq	r2,zero,1000e350 <__alt_data_end+0xf800e350>
1000e5e0:	00bfe034 	movhi	r2,65408
1000e5e4:	10bfffc4 	addi	r2,r2,-1
1000e5e8:	4821883a 	mov	r16,r9
1000e5ec:	288a703a 	and	r5,r5,r2
1000e5f0:	003ead06 	br	1000e0a8 <__alt_data_end+0xf800e0a8>
1000e5f4:	2c44b03a 	or	r2,r5,r17
1000e5f8:	8000291e 	bne	r16,zero,1000e6a0 <__subdf3+0x684>
1000e5fc:	10004f1e 	bne	r2,zero,1000e73c <__subdf3+0x720>
1000e600:	1984b03a 	or	r2,r3,r6
1000e604:	10000426 	beq	r2,zero,1000e618 <__subdf3+0x5fc>
1000e608:	180b883a 	mov	r5,r3
1000e60c:	3023883a 	mov	r17,r6
1000e610:	3825883a 	mov	r18,r7
1000e614:	003ea406 	br	1000e0a8 <__alt_data_end+0xf800e0a8>
1000e618:	0011883a 	mov	r8,zero
1000e61c:	000b883a 	mov	r5,zero
1000e620:	0023883a 	mov	r17,zero
1000e624:	003f0006 	br	1000e228 <__alt_data_end+0xf800e228>
1000e628:	11fff804 	addi	r7,r2,-32
1000e62c:	19c8d83a 	srl	r4,r3,r7
1000e630:	01c00804 	movi	r7,32
1000e634:	11c07e26 	beq	r2,r7,1000e830 <__subdf3+0x814>
1000e638:	01c01004 	movi	r7,64
1000e63c:	3885c83a 	sub	r2,r7,r2
1000e640:	1884983a 	sll	r2,r3,r2
1000e644:	118cb03a 	or	r6,r2,r6
1000e648:	300ec03a 	cmpne	r7,r6,zero
1000e64c:	390eb03a 	or	r7,r7,r4
1000e650:	0005883a 	mov	r2,zero
1000e654:	003f0906 	br	1000e27c <__alt_data_end+0xf800e27c>
1000e658:	0101ffc4 	movi	r4,2047
1000e65c:	513f991e 	bne	r10,r4,1000e4c4 <__alt_data_end+0xf800e4c4>
1000e660:	180b883a 	mov	r5,r3
1000e664:	3023883a 	mov	r17,r6
1000e668:	5021883a 	mov	r16,r10
1000e66c:	3825883a 	mov	r18,r7
1000e670:	003e8d06 	br	1000e0a8 <__alt_data_end+0xf800e0a8>
1000e674:	80001a1e 	bne	r16,zero,1000e6e0 <__subdf3+0x6c4>
1000e678:	2c48b03a 	or	r4,r5,r17
1000e67c:	20005526 	beq	r4,zero,1000e7d4 <__subdf3+0x7b8>
1000e680:	0084303a 	nor	r2,zero,r2
1000e684:	1000511e 	bne	r2,zero,1000e7cc <__subdf3+0x7b0>
1000e688:	89a3883a 	add	r17,r17,r6
1000e68c:	194b883a 	add	r5,r3,r5
1000e690:	898d803a 	cmpltu	r6,r17,r6
1000e694:	298b883a 	add	r5,r5,r6
1000e698:	5021883a 	mov	r16,r10
1000e69c:	003efc06 	br	1000e290 <__alt_data_end+0xf800e290>
1000e6a0:	1000341e 	bne	r2,zero,1000e774 <__subdf3+0x758>
1000e6a4:	1984b03a 	or	r2,r3,r6
1000e6a8:	10006f26 	beq	r2,zero,1000e868 <__subdf3+0x84c>
1000e6ac:	180b883a 	mov	r5,r3
1000e6b0:	3023883a 	mov	r17,r6
1000e6b4:	3825883a 	mov	r18,r7
1000e6b8:	0401ffc4 	movi	r16,2047
1000e6bc:	003e7a06 	br	1000e0a8 <__alt_data_end+0xf800e0a8>
1000e6c0:	2c62b03a 	or	r17,r5,r17
1000e6c4:	8822c03a 	cmpne	r17,r17,zero
1000e6c8:	0005883a 	mov	r2,zero
1000e6cc:	003f8a06 	br	1000e4f8 <__alt_data_end+0xf800e4f8>
1000e6d0:	3821883a 	mov	r16,r7
1000e6d4:	000b883a 	mov	r5,zero
1000e6d8:	0023883a 	mov	r17,zero
1000e6dc:	003ed206 	br	1000e228 <__alt_data_end+0xf800e228>
1000e6e0:	0101ffc4 	movi	r4,2047
1000e6e4:	51003b26 	beq	r10,r4,1000e7d4 <__subdf3+0x7b8>
1000e6e8:	0085c83a 	sub	r2,zero,r2
1000e6ec:	29402034 	orhi	r5,r5,128
1000e6f0:	01000e04 	movi	r4,56
1000e6f4:	20806216 	blt	r4,r2,1000e880 <__subdf3+0x864>
1000e6f8:	010007c4 	movi	r4,31
1000e6fc:	20806b16 	blt	r4,r2,1000e8ac <__subdf3+0x890>
1000e700:	01000804 	movi	r4,32
1000e704:	2089c83a 	sub	r4,r4,r2
1000e708:	2912983a 	sll	r9,r5,r4
1000e70c:	888ed83a 	srl	r7,r17,r2
1000e710:	8908983a 	sll	r4,r17,r4
1000e714:	2884d83a 	srl	r2,r5,r2
1000e718:	49e2b03a 	or	r17,r9,r7
1000e71c:	2008c03a 	cmpne	r4,r4,zero
1000e720:	8922b03a 	or	r17,r17,r4
1000e724:	89a3883a 	add	r17,r17,r6
1000e728:	10c5883a 	add	r2,r2,r3
1000e72c:	898d803a 	cmpltu	r6,r17,r6
1000e730:	118b883a 	add	r5,r2,r6
1000e734:	5021883a 	mov	r16,r10
1000e738:	003ed506 	br	1000e290 <__alt_data_end+0xf800e290>
1000e73c:	1984b03a 	or	r2,r3,r6
1000e740:	103e5926 	beq	r2,zero,1000e0a8 <__alt_data_end+0xf800e0a8>
1000e744:	8989c83a 	sub	r4,r17,r6
1000e748:	8911803a 	cmpltu	r8,r17,r4
1000e74c:	28c5c83a 	sub	r2,r5,r3
1000e750:	1205c83a 	sub	r2,r2,r8
1000e754:	1200202c 	andhi	r8,r2,128
1000e758:	403ef926 	beq	r8,zero,1000e340 <__alt_data_end+0xf800e340>
1000e75c:	3463c83a 	sub	r17,r6,r17
1000e760:	194bc83a 	sub	r5,r3,r5
1000e764:	344d803a 	cmpltu	r6,r6,r17
1000e768:	298bc83a 	sub	r5,r5,r6
1000e76c:	3825883a 	mov	r18,r7
1000e770:	003e4d06 	br	1000e0a8 <__alt_data_end+0xf800e0a8>
1000e774:	1984b03a 	or	r2,r3,r6
1000e778:	10002b26 	beq	r2,zero,1000e828 <__subdf3+0x80c>
1000e77c:	2808d0fa 	srli	r4,r5,3
1000e780:	8822d0fa 	srli	r17,r17,3
1000e784:	280a977a 	slli	r5,r5,29
1000e788:	2080022c 	andhi	r2,r4,8
1000e78c:	2c62b03a 	or	r17,r5,r17
1000e790:	10000826 	beq	r2,zero,1000e7b4 <__subdf3+0x798>
1000e794:	1810d0fa 	srli	r8,r3,3
1000e798:	4080022c 	andhi	r2,r8,8
1000e79c:	1000051e 	bne	r2,zero,1000e7b4 <__subdf3+0x798>
1000e7a0:	300cd0fa 	srli	r6,r6,3
1000e7a4:	1804977a 	slli	r2,r3,29
1000e7a8:	4009883a 	mov	r4,r8
1000e7ac:	3825883a 	mov	r18,r7
1000e7b0:	11a2b03a 	or	r17,r2,r6
1000e7b4:	880ad77a 	srli	r5,r17,29
1000e7b8:	200890fa 	slli	r4,r4,3
1000e7bc:	882290fa 	slli	r17,r17,3
1000e7c0:	0401ffc4 	movi	r16,2047
1000e7c4:	290ab03a 	or	r5,r5,r4
1000e7c8:	003e3706 	br	1000e0a8 <__alt_data_end+0xf800e0a8>
1000e7cc:	0101ffc4 	movi	r4,2047
1000e7d0:	513fc71e 	bne	r10,r4,1000e6f0 <__alt_data_end+0xf800e6f0>
1000e7d4:	180b883a 	mov	r5,r3
1000e7d8:	3023883a 	mov	r17,r6
1000e7dc:	5021883a 	mov	r16,r10
1000e7e0:	003e3106 	br	1000e0a8 <__alt_data_end+0xf800e0a8>
1000e7e4:	10002d26 	beq	r2,zero,1000e89c <__subdf3+0x880>
1000e7e8:	1984b03a 	or	r2,r3,r6
1000e7ec:	10000e26 	beq	r2,zero,1000e828 <__subdf3+0x80c>
1000e7f0:	2808d0fa 	srli	r4,r5,3
1000e7f4:	8822d0fa 	srli	r17,r17,3
1000e7f8:	280a977a 	slli	r5,r5,29
1000e7fc:	2080022c 	andhi	r2,r4,8
1000e800:	2c62b03a 	or	r17,r5,r17
1000e804:	103feb26 	beq	r2,zero,1000e7b4 <__alt_data_end+0xf800e7b4>
1000e808:	180ed0fa 	srli	r7,r3,3
1000e80c:	3880022c 	andhi	r2,r7,8
1000e810:	103fe81e 	bne	r2,zero,1000e7b4 <__alt_data_end+0xf800e7b4>
1000e814:	300cd0fa 	srli	r6,r6,3
1000e818:	1804977a 	slli	r2,r3,29
1000e81c:	3809883a 	mov	r4,r7
1000e820:	11a2b03a 	or	r17,r2,r6
1000e824:	003fe306 	br	1000e7b4 <__alt_data_end+0xf800e7b4>
1000e828:	0401ffc4 	movi	r16,2047
1000e82c:	003e1e06 	br	1000e0a8 <__alt_data_end+0xf800e0a8>
1000e830:	0005883a 	mov	r2,zero
1000e834:	003f8306 	br	1000e644 <__alt_data_end+0xf800e644>
1000e838:	113ff804 	addi	r4,r2,-32
1000e83c:	02000804 	movi	r8,32
1000e840:	2908d83a 	srl	r4,r5,r4
1000e844:	12002526 	beq	r2,r8,1000e8dc <__subdf3+0x8c0>
1000e848:	02001004 	movi	r8,64
1000e84c:	4085c83a 	sub	r2,r8,r2
1000e850:	288a983a 	sll	r5,r5,r2
1000e854:	2c62b03a 	or	r17,r5,r17
1000e858:	8822c03a 	cmpne	r17,r17,zero
1000e85c:	8922b03a 	or	r17,r17,r4
1000e860:	0005883a 	mov	r2,zero
1000e864:	003f2406 	br	1000e4f8 <__alt_data_end+0xf800e4f8>
1000e868:	01402034 	movhi	r5,128
1000e86c:	0011883a 	mov	r8,zero
1000e870:	297fffc4 	addi	r5,r5,-1
1000e874:	047ffe04 	movi	r17,-8
1000e878:	0401ffc4 	movi	r16,2047
1000e87c:	003e6a06 	br	1000e228 <__alt_data_end+0xf800e228>
1000e880:	2c62b03a 	or	r17,r5,r17
1000e884:	8822c03a 	cmpne	r17,r17,zero
1000e888:	0005883a 	mov	r2,zero
1000e88c:	003fa506 	br	1000e724 <__alt_data_end+0xf800e724>
1000e890:	180b883a 	mov	r5,r3
1000e894:	3023883a 	mov	r17,r6
1000e898:	003e0306 	br	1000e0a8 <__alt_data_end+0xf800e0a8>
1000e89c:	180b883a 	mov	r5,r3
1000e8a0:	3023883a 	mov	r17,r6
1000e8a4:	0401ffc4 	movi	r16,2047
1000e8a8:	003dff06 	br	1000e0a8 <__alt_data_end+0xf800e0a8>
1000e8ac:	113ff804 	addi	r4,r2,-32
1000e8b0:	01c00804 	movi	r7,32
1000e8b4:	2908d83a 	srl	r4,r5,r4
1000e8b8:	11c00a26 	beq	r2,r7,1000e8e4 <__subdf3+0x8c8>
1000e8bc:	01c01004 	movi	r7,64
1000e8c0:	3885c83a 	sub	r2,r7,r2
1000e8c4:	288a983a 	sll	r5,r5,r2
1000e8c8:	2c62b03a 	or	r17,r5,r17
1000e8cc:	8822c03a 	cmpne	r17,r17,zero
1000e8d0:	8922b03a 	or	r17,r17,r4
1000e8d4:	0005883a 	mov	r2,zero
1000e8d8:	003f9206 	br	1000e724 <__alt_data_end+0xf800e724>
1000e8dc:	000b883a 	mov	r5,zero
1000e8e0:	003fdc06 	br	1000e854 <__alt_data_end+0xf800e854>
1000e8e4:	000b883a 	mov	r5,zero
1000e8e8:	003ff706 	br	1000e8c8 <__alt_data_end+0xf800e8c8>

1000e8ec <__fixdfsi>:
1000e8ec:	2806d53a 	srli	r3,r5,20
1000e8f0:	00800434 	movhi	r2,16
1000e8f4:	10bfffc4 	addi	r2,r2,-1
1000e8f8:	18c1ffcc 	andi	r3,r3,2047
1000e8fc:	0180ff84 	movi	r6,1022
1000e900:	2884703a 	and	r2,r5,r2
1000e904:	280ad7fa 	srli	r5,r5,31
1000e908:	30c0130e 	bge	r6,r3,1000e958 <__fixdfsi+0x6c>
1000e90c:	01810744 	movi	r6,1053
1000e910:	30c00d16 	blt	r6,r3,1000e948 <__fixdfsi+0x5c>
1000e914:	01810cc4 	movi	r6,1075
1000e918:	30cdc83a 	sub	r6,r6,r3
1000e91c:	01c007c4 	movi	r7,31
1000e920:	10800434 	orhi	r2,r2,16
1000e924:	39800e0e 	bge	r7,r6,1000e960 <__fixdfsi+0x74>
1000e928:	010104c4 	movi	r4,1043
1000e92c:	20c7c83a 	sub	r3,r4,r3
1000e930:	10c6d83a 	srl	r3,r2,r3
1000e934:	29403fcc 	andi	r5,r5,255
1000e938:	0145c83a 	sub	r2,zero,r5
1000e93c:	1884f03a 	xor	r2,r3,r2
1000e940:	1145883a 	add	r2,r2,r5
1000e944:	f800283a 	ret
1000e948:	00a00034 	movhi	r2,32768
1000e94c:	10bfffc4 	addi	r2,r2,-1
1000e950:	2885883a 	add	r2,r5,r2
1000e954:	f800283a 	ret
1000e958:	0005883a 	mov	r2,zero
1000e95c:	f800283a 	ret
1000e960:	18fefb44 	addi	r3,r3,-1043
1000e964:	2188d83a 	srl	r4,r4,r6
1000e968:	10c6983a 	sll	r3,r2,r3
1000e96c:	20c6b03a 	or	r3,r4,r3
1000e970:	003ff006 	br	1000e934 <__alt_data_end+0xf800e934>

1000e974 <__floatsidf>:
1000e974:	defffd04 	addi	sp,sp,-12
1000e978:	dc400115 	stw	r17,4(sp)
1000e97c:	dfc00215 	stw	ra,8(sp)
1000e980:	dc000015 	stw	r16,0(sp)
1000e984:	2023883a 	mov	r17,r4
1000e988:	20001426 	beq	r4,zero,1000e9dc <__floatsidf+0x68>
1000e98c:	2020d7fa 	srli	r16,r4,31
1000e990:	80000126 	beq	r16,zero,1000e998 <__floatsidf+0x24>
1000e994:	0123c83a 	sub	r17,zero,r4
1000e998:	8809883a 	mov	r4,r17
1000e99c:	000eae80 	call	1000eae8 <__clzsi2>
1000e9a0:	01410784 	movi	r5,1054
1000e9a4:	00c00284 	movi	r3,10
1000e9a8:	288bc83a 	sub	r5,r5,r2
1000e9ac:	18801c16 	blt	r3,r2,1000ea20 <__floatsidf+0xac>
1000e9b0:	00c002c4 	movi	r3,11
1000e9b4:	1887c83a 	sub	r3,r3,r2
1000e9b8:	88c8d83a 	srl	r4,r17,r3
1000e9bc:	00c00434 	movhi	r3,16
1000e9c0:	18ffffc4 	addi	r3,r3,-1
1000e9c4:	10800544 	addi	r2,r2,21
1000e9c8:	20c8703a 	and	r4,r4,r3
1000e9cc:	8884983a 	sll	r2,r17,r2
1000e9d0:	28c1ffcc 	andi	r3,r5,2047
1000e9d4:	800d883a 	mov	r6,r16
1000e9d8:	00000406 	br	1000e9ec <__floatsidf+0x78>
1000e9dc:	000d883a 	mov	r6,zero
1000e9e0:	0007883a 	mov	r3,zero
1000e9e4:	0009883a 	mov	r4,zero
1000e9e8:	0005883a 	mov	r2,zero
1000e9ec:	180a953a 	slli	r5,r3,20
1000e9f0:	31803fcc 	andi	r6,r6,255
1000e9f4:	00c00434 	movhi	r3,16
1000e9f8:	300c97fa 	slli	r6,r6,31
1000e9fc:	18ffffc4 	addi	r3,r3,-1
1000ea00:	20c6703a 	and	r3,r4,r3
1000ea04:	1946b03a 	or	r3,r3,r5
1000ea08:	1986b03a 	or	r3,r3,r6
1000ea0c:	dfc00217 	ldw	ra,8(sp)
1000ea10:	dc400117 	ldw	r17,4(sp)
1000ea14:	dc000017 	ldw	r16,0(sp)
1000ea18:	dec00304 	addi	sp,sp,12
1000ea1c:	f800283a 	ret
1000ea20:	10fffd44 	addi	r3,r2,-11
1000ea24:	88c8983a 	sll	r4,r17,r3
1000ea28:	00800434 	movhi	r2,16
1000ea2c:	10bfffc4 	addi	r2,r2,-1
1000ea30:	2088703a 	and	r4,r4,r2
1000ea34:	28c1ffcc 	andi	r3,r5,2047
1000ea38:	800d883a 	mov	r6,r16
1000ea3c:	0005883a 	mov	r2,zero
1000ea40:	003fea06 	br	1000e9ec <__alt_data_end+0xf800e9ec>

1000ea44 <__floatunsidf>:
1000ea44:	defffe04 	addi	sp,sp,-8
1000ea48:	dc000015 	stw	r16,0(sp)
1000ea4c:	dfc00115 	stw	ra,4(sp)
1000ea50:	2021883a 	mov	r16,r4
1000ea54:	20001026 	beq	r4,zero,1000ea98 <__floatunsidf+0x54>
1000ea58:	000eae80 	call	1000eae8 <__clzsi2>
1000ea5c:	01410784 	movi	r5,1054
1000ea60:	100d883a 	mov	r6,r2
1000ea64:	288bc83a 	sub	r5,r5,r2
1000ea68:	00800284 	movi	r2,10
1000ea6c:	11801616 	blt	r2,r6,1000eac8 <__floatunsidf+0x84>
1000ea70:	008002c4 	movi	r2,11
1000ea74:	1185c83a 	sub	r2,r2,r6
1000ea78:	8084d83a 	srl	r2,r16,r2
1000ea7c:	00c00434 	movhi	r3,16
1000ea80:	31c00544 	addi	r7,r6,21
1000ea84:	18ffffc4 	addi	r3,r3,-1
1000ea88:	81e0983a 	sll	r16,r16,r7
1000ea8c:	10cc703a 	and	r6,r2,r3
1000ea90:	2941ffcc 	andi	r5,r5,2047
1000ea94:	00000206 	br	1000eaa0 <__floatunsidf+0x5c>
1000ea98:	000b883a 	mov	r5,zero
1000ea9c:	000d883a 	mov	r6,zero
1000eaa0:	280a953a 	slli	r5,r5,20
1000eaa4:	00c00434 	movhi	r3,16
1000eaa8:	18ffffc4 	addi	r3,r3,-1
1000eaac:	30c6703a 	and	r3,r6,r3
1000eab0:	8005883a 	mov	r2,r16
1000eab4:	1946b03a 	or	r3,r3,r5
1000eab8:	dfc00117 	ldw	ra,4(sp)
1000eabc:	dc000017 	ldw	r16,0(sp)
1000eac0:	dec00204 	addi	sp,sp,8
1000eac4:	f800283a 	ret
1000eac8:	31bffd44 	addi	r6,r6,-11
1000eacc:	818c983a 	sll	r6,r16,r6
1000ead0:	00800434 	movhi	r2,16
1000ead4:	10bfffc4 	addi	r2,r2,-1
1000ead8:	2941ffcc 	andi	r5,r5,2047
1000eadc:	0021883a 	mov	r16,zero
1000eae0:	308c703a 	and	r6,r6,r2
1000eae4:	003fee06 	br	1000eaa0 <__alt_data_end+0xf800eaa0>

1000eae8 <__clzsi2>:
1000eae8:	00bfffd4 	movui	r2,65535
1000eaec:	11000b36 	bltu	r2,r4,1000eb1c <__clzsi2+0x34>
1000eaf0:	00803fc4 	movi	r2,255
1000eaf4:	1100122e 	bgeu	r2,r4,1000eb40 <__clzsi2+0x58>
1000eaf8:	00c00204 	movi	r3,8
1000eafc:	01400604 	movi	r5,24
1000eb00:	20c8d83a 	srl	r4,r4,r3
1000eb04:	00840074 	movhi	r2,4097
1000eb08:	10873f04 	addi	r2,r2,7420
1000eb0c:	1109883a 	add	r4,r2,r4
1000eb10:	20800003 	ldbu	r2,0(r4)
1000eb14:	2885c83a 	sub	r2,r5,r2
1000eb18:	f800283a 	ret
1000eb1c:	00804034 	movhi	r2,256
1000eb20:	10bfffc4 	addi	r2,r2,-1
1000eb24:	11000336 	bltu	r2,r4,1000eb34 <__clzsi2+0x4c>
1000eb28:	00c00404 	movi	r3,16
1000eb2c:	180b883a 	mov	r5,r3
1000eb30:	003ff306 	br	1000eb00 <__alt_data_end+0xf800eb00>
1000eb34:	00c00604 	movi	r3,24
1000eb38:	01400204 	movi	r5,8
1000eb3c:	003ff006 	br	1000eb00 <__alt_data_end+0xf800eb00>
1000eb40:	0007883a 	mov	r3,zero
1000eb44:	01400804 	movi	r5,32
1000eb48:	003fed06 	br	1000eb00 <__alt_data_end+0xf800eb00>

1000eb4c <alt_get_errno>:
#undef errno

extern int errno;

static ALT_INLINE int* alt_get_errno(void)
{
1000eb4c:	defffe04 	addi	sp,sp,-8
1000eb50:	dfc00115 	stw	ra,4(sp)
1000eb54:	df000015 	stw	fp,0(sp)
1000eb58:	d839883a 	mov	fp,sp
  return ((alt_errno) ? alt_errno() : &errno);
1000eb5c:	00840074 	movhi	r2,4097
1000eb60:	108e4304 	addi	r2,r2,14604
1000eb64:	10800017 	ldw	r2,0(r2)
1000eb68:	10000526 	beq	r2,zero,1000eb80 <alt_get_errno+0x34>
1000eb6c:	00840074 	movhi	r2,4097
1000eb70:	108e4304 	addi	r2,r2,14604
1000eb74:	10800017 	ldw	r2,0(r2)
1000eb78:	103ee83a 	callr	r2
1000eb7c:	00000206 	br	1000eb88 <alt_get_errno+0x3c>
1000eb80:	00840074 	movhi	r2,4097
1000eb84:	10950b04 	addi	r2,r2,21548
}
1000eb88:	e037883a 	mov	sp,fp
1000eb8c:	dfc00117 	ldw	ra,4(sp)
1000eb90:	df000017 	ldw	fp,0(sp)
1000eb94:	dec00204 	addi	sp,sp,8
1000eb98:	f800283a 	ret

1000eb9c <close>:
 *
 * ALT_CLOSE is mapped onto the close() system call in alt_syscall.h
 */
 
int ALT_CLOSE (int fildes)
{
1000eb9c:	defffb04 	addi	sp,sp,-20
1000eba0:	dfc00415 	stw	ra,16(sp)
1000eba4:	df000315 	stw	fp,12(sp)
1000eba8:	df000304 	addi	fp,sp,12
1000ebac:	e13fff15 	stw	r4,-4(fp)
   * A common error case is that when the file descriptor was created, the call
   * to open() failed resulting in a negative file descriptor. This is trapped
   * below so that we don't try and process an invalid file descriptor.
   */

  fd = (fildes < 0) ? NULL : &alt_fd_list[fildes];
1000ebb0:	e0bfff17 	ldw	r2,-4(fp)
1000ebb4:	10000816 	blt	r2,zero,1000ebd8 <close+0x3c>
1000ebb8:	e13fff17 	ldw	r4,-4(fp)
1000ebbc:	01400304 	movi	r5,12
1000ebc0:	000c3280 	call	1000c328 <__mulsi3>
1000ebc4:	1007883a 	mov	r3,r2
1000ebc8:	00840074 	movhi	r2,4097
1000ebcc:	1089bf04 	addi	r2,r2,9980
1000ebd0:	1885883a 	add	r2,r3,r2
1000ebd4:	00000106 	br	1000ebdc <close+0x40>
1000ebd8:	0005883a 	mov	r2,zero
1000ebdc:	e0bffd15 	stw	r2,-12(fp)

  if (fd)
1000ebe0:	e0bffd17 	ldw	r2,-12(fp)
1000ebe4:	10001926 	beq	r2,zero,1000ec4c <close+0xb0>
    /*
     * If the associated file system/device has a close function, call it so 
     * that any necessary cleanup code can run.
     */

    rval = (fd->dev->close) ? fd->dev->close(fd) : 0;
1000ebe8:	e0bffd17 	ldw	r2,-12(fp)
1000ebec:	10800017 	ldw	r2,0(r2)
1000ebf0:	10800417 	ldw	r2,16(r2)
1000ebf4:	10000626 	beq	r2,zero,1000ec10 <close+0x74>
1000ebf8:	e0bffd17 	ldw	r2,-12(fp)
1000ebfc:	10800017 	ldw	r2,0(r2)
1000ec00:	10800417 	ldw	r2,16(r2)
1000ec04:	e13ffd17 	ldw	r4,-12(fp)
1000ec08:	103ee83a 	callr	r2
1000ec0c:	00000106 	br	1000ec14 <close+0x78>
1000ec10:	0005883a 	mov	r2,zero
1000ec14:	e0bffe15 	stw	r2,-8(fp)

    /* Free the file descriptor structure and return. */

    alt_release_fd (fildes);
1000ec18:	e13fff17 	ldw	r4,-4(fp)
1000ec1c:	000f2c00 	call	1000f2c0 <alt_release_fd>
    if (rval < 0)
1000ec20:	e0bffe17 	ldw	r2,-8(fp)
1000ec24:	1000070e 	bge	r2,zero,1000ec44 <close+0xa8>
    {
      ALT_ERRNO = -rval;
1000ec28:	000eb4c0 	call	1000eb4c <alt_get_errno>
1000ec2c:	1007883a 	mov	r3,r2
1000ec30:	e0bffe17 	ldw	r2,-8(fp)
1000ec34:	0085c83a 	sub	r2,zero,r2
1000ec38:	18800015 	stw	r2,0(r3)
      return -1;
1000ec3c:	00bfffc4 	movi	r2,-1
1000ec40:	00000706 	br	1000ec60 <close+0xc4>
    }
    return 0;
1000ec44:	0005883a 	mov	r2,zero
1000ec48:	00000506 	br	1000ec60 <close+0xc4>
  }
  else
  {
    ALT_ERRNO = EBADFD;
1000ec4c:	000eb4c0 	call	1000eb4c <alt_get_errno>
1000ec50:	1007883a 	mov	r3,r2
1000ec54:	00801444 	movi	r2,81
1000ec58:	18800015 	stw	r2,0(r3)
    return -1;
1000ec5c:	00bfffc4 	movi	r2,-1
  }
}
1000ec60:	e037883a 	mov	sp,fp
1000ec64:	dfc00117 	ldw	ra,4(sp)
1000ec68:	df000017 	ldw	fp,0(sp)
1000ec6c:	dec00204 	addi	sp,sp,8
1000ec70:	f800283a 	ret

1000ec74 <alt_dev_null_write>:
 * by the alt_dev_null device. It simple discards all data passed to it, and
 * indicates that the data has been successfully transmitted.
 */

static int alt_dev_null_write (alt_fd* fd, const char* ptr, int len)
{
1000ec74:	defffc04 	addi	sp,sp,-16
1000ec78:	df000315 	stw	fp,12(sp)
1000ec7c:	df000304 	addi	fp,sp,12
1000ec80:	e13ffd15 	stw	r4,-12(fp)
1000ec84:	e17ffe15 	stw	r5,-8(fp)
1000ec88:	e1bfff15 	stw	r6,-4(fp)
  return len;
1000ec8c:	e0bfff17 	ldw	r2,-4(fp)
}
1000ec90:	e037883a 	mov	sp,fp
1000ec94:	df000017 	ldw	fp,0(sp)
1000ec98:	dec00104 	addi	sp,sp,4
1000ec9c:	f800283a 	ret

1000eca0 <alt_get_errno>:
#undef errno

extern int errno;

static ALT_INLINE int* alt_get_errno(void)
{
1000eca0:	defffe04 	addi	sp,sp,-8
1000eca4:	dfc00115 	stw	ra,4(sp)
1000eca8:	df000015 	stw	fp,0(sp)
1000ecac:	d839883a 	mov	fp,sp
  return ((alt_errno) ? alt_errno() : &errno);
1000ecb0:	00840074 	movhi	r2,4097
1000ecb4:	108e4304 	addi	r2,r2,14604
1000ecb8:	10800017 	ldw	r2,0(r2)
1000ecbc:	10000526 	beq	r2,zero,1000ecd4 <alt_get_errno+0x34>
1000ecc0:	00840074 	movhi	r2,4097
1000ecc4:	108e4304 	addi	r2,r2,14604
1000ecc8:	10800017 	ldw	r2,0(r2)
1000eccc:	103ee83a 	callr	r2
1000ecd0:	00000206 	br	1000ecdc <alt_get_errno+0x3c>
1000ecd4:	00840074 	movhi	r2,4097
1000ecd8:	10950b04 	addi	r2,r2,21548
}
1000ecdc:	e037883a 	mov	sp,fp
1000ece0:	dfc00117 	ldw	ra,4(sp)
1000ece4:	df000017 	ldw	fp,0(sp)
1000ece8:	dec00204 	addi	sp,sp,8
1000ecec:	f800283a 	ret

1000ecf0 <fstat>:
}

#else /* !ALT_USE_DIRECT_DRIVERS */

int ALT_FSTAT (int file, struct stat *st)
{
1000ecf0:	defffb04 	addi	sp,sp,-20
1000ecf4:	dfc00415 	stw	ra,16(sp)
1000ecf8:	df000315 	stw	fp,12(sp)
1000ecfc:	df000304 	addi	fp,sp,12
1000ed00:	e13ffe15 	stw	r4,-8(fp)
1000ed04:	e17fff15 	stw	r5,-4(fp)
   * A common error case is that when the file descriptor was created, the call
   * to open() failed resulting in a negative file descriptor. This is trapped
   * below so that we don't try and process an invalid file descriptor.
   */

  fd = (file < 0) ? NULL : &alt_fd_list[file];
1000ed08:	e0bffe17 	ldw	r2,-8(fp)
1000ed0c:	10000816 	blt	r2,zero,1000ed30 <fstat+0x40>
1000ed10:	e13ffe17 	ldw	r4,-8(fp)
1000ed14:	01400304 	movi	r5,12
1000ed18:	000c3280 	call	1000c328 <__mulsi3>
1000ed1c:	1007883a 	mov	r3,r2
1000ed20:	00840074 	movhi	r2,4097
1000ed24:	1089bf04 	addi	r2,r2,9980
1000ed28:	1885883a 	add	r2,r3,r2
1000ed2c:	00000106 	br	1000ed34 <fstat+0x44>
1000ed30:	0005883a 	mov	r2,zero
1000ed34:	e0bffd15 	stw	r2,-12(fp)
  
  if (fd)
1000ed38:	e0bffd17 	ldw	r2,-12(fp)
1000ed3c:	10001026 	beq	r2,zero,1000ed80 <fstat+0x90>
  {
    /* Call the drivers fstat() function to fill out the "st" structure. */

    if (fd->dev->fstat)
1000ed40:	e0bffd17 	ldw	r2,-12(fp)
1000ed44:	10800017 	ldw	r2,0(r2)
1000ed48:	10800817 	ldw	r2,32(r2)
1000ed4c:	10000726 	beq	r2,zero,1000ed6c <fstat+0x7c>
    {
      return fd->dev->fstat(fd, st);
1000ed50:	e0bffd17 	ldw	r2,-12(fp)
1000ed54:	10800017 	ldw	r2,0(r2)
1000ed58:	10800817 	ldw	r2,32(r2)
1000ed5c:	e13ffd17 	ldw	r4,-12(fp)
1000ed60:	e17fff17 	ldw	r5,-4(fp)
1000ed64:	103ee83a 	callr	r2
1000ed68:	00000a06 	br	1000ed94 <fstat+0xa4>
     * device.
     */
 
    else
    {
      st->st_mode = _IFCHR;
1000ed6c:	e0bfff17 	ldw	r2,-4(fp)
1000ed70:	00c80004 	movi	r3,8192
1000ed74:	10c00115 	stw	r3,4(r2)
      return 0;
1000ed78:	0005883a 	mov	r2,zero
1000ed7c:	00000506 	br	1000ed94 <fstat+0xa4>
    }
  }
  else
  {
    ALT_ERRNO = EBADFD;
1000ed80:	000eca00 	call	1000eca0 <alt_get_errno>
1000ed84:	1007883a 	mov	r3,r2
1000ed88:	00801444 	movi	r2,81
1000ed8c:	18800015 	stw	r2,0(r3)
    return -1;
1000ed90:	00bfffc4 	movi	r2,-1
  }
}
1000ed94:	e037883a 	mov	sp,fp
1000ed98:	dfc00117 	ldw	ra,4(sp)
1000ed9c:	df000017 	ldw	fp,0(sp)
1000eda0:	dec00204 	addi	sp,sp,8
1000eda4:	f800283a 	ret

1000eda8 <alt_get_errno>:
#undef errno

extern int errno;

static ALT_INLINE int* alt_get_errno(void)
{
1000eda8:	defffe04 	addi	sp,sp,-8
1000edac:	dfc00115 	stw	ra,4(sp)
1000edb0:	df000015 	stw	fp,0(sp)
1000edb4:	d839883a 	mov	fp,sp
  return ((alt_errno) ? alt_errno() : &errno);
1000edb8:	00840074 	movhi	r2,4097
1000edbc:	108e4304 	addi	r2,r2,14604
1000edc0:	10800017 	ldw	r2,0(r2)
1000edc4:	10000526 	beq	r2,zero,1000eddc <alt_get_errno+0x34>
1000edc8:	00840074 	movhi	r2,4097
1000edcc:	108e4304 	addi	r2,r2,14604
1000edd0:	10800017 	ldw	r2,0(r2)
1000edd4:	103ee83a 	callr	r2
1000edd8:	00000206 	br	1000ede4 <alt_get_errno+0x3c>
1000eddc:	00840074 	movhi	r2,4097
1000ede0:	10950b04 	addi	r2,r2,21548
}
1000ede4:	e037883a 	mov	sp,fp
1000ede8:	dfc00117 	ldw	ra,4(sp)
1000edec:	df000017 	ldw	fp,0(sp)
1000edf0:	dec00204 	addi	sp,sp,8
1000edf4:	f800283a 	ret

1000edf8 <isatty>:
 *
 * ALT_ISATTY is mapped onto the isatty() system call in alt_syscall.h
 */
 
int ALT_ISATTY (int file)
{
1000edf8:	deffed04 	addi	sp,sp,-76
1000edfc:	dfc01215 	stw	ra,72(sp)
1000ee00:	df001115 	stw	fp,68(sp)
1000ee04:	df001104 	addi	fp,sp,68
1000ee08:	e13fff15 	stw	r4,-4(fp)
   * A common error case is that when the file descriptor was created, the call
   * to open() failed resulting in a negative file descriptor. This is trapped
   * below so that we don't try and process an invalid file descriptor.
   */

  fd = (file < 0) ? NULL : &alt_fd_list[file];
1000ee0c:	e0bfff17 	ldw	r2,-4(fp)
1000ee10:	10000816 	blt	r2,zero,1000ee34 <isatty+0x3c>
1000ee14:	e13fff17 	ldw	r4,-4(fp)
1000ee18:	01400304 	movi	r5,12
1000ee1c:	000c3280 	call	1000c328 <__mulsi3>
1000ee20:	1007883a 	mov	r3,r2
1000ee24:	00840074 	movhi	r2,4097
1000ee28:	1089bf04 	addi	r2,r2,9980
1000ee2c:	1885883a 	add	r2,r3,r2
1000ee30:	00000106 	br	1000ee38 <isatty+0x40>
1000ee34:	0005883a 	mov	r2,zero
1000ee38:	e0bfef15 	stw	r2,-68(fp)
  
  if (fd)
1000ee3c:	e0bfef17 	ldw	r2,-68(fp)
1000ee40:	10000e26 	beq	r2,zero,1000ee7c <isatty+0x84>
    /*
     * If a device driver does not provide an fstat() function, then it is 
     * treated as a terminal device by default.
     */

    if (!fd->dev->fstat)
1000ee44:	e0bfef17 	ldw	r2,-68(fp)
1000ee48:	10800017 	ldw	r2,0(r2)
1000ee4c:	10800817 	ldw	r2,32(r2)
1000ee50:	1000021e 	bne	r2,zero,1000ee5c <isatty+0x64>
    {
      return 1;
1000ee54:	00800044 	movi	r2,1
1000ee58:	00000d06 	br	1000ee90 <isatty+0x98>
     * this is called so that the device can identify itself.
     */ 

    else
    {
      fstat (file, &stat);
1000ee5c:	e0bff004 	addi	r2,fp,-64
1000ee60:	e13fff17 	ldw	r4,-4(fp)
1000ee64:	100b883a 	mov	r5,r2
1000ee68:	000ecf00 	call	1000ecf0 <fstat>
      return (stat.st_mode == _IFCHR) ? 1 : 0;
1000ee6c:	e0bff117 	ldw	r2,-60(fp)
1000ee70:	10880020 	cmpeqi	r2,r2,8192
1000ee74:	10803fcc 	andi	r2,r2,255
1000ee78:	00000506 	br	1000ee90 <isatty+0x98>
    }
  }
  else
  {
    ALT_ERRNO = EBADFD;
1000ee7c:	000eda80 	call	1000eda8 <alt_get_errno>
1000ee80:	1007883a 	mov	r3,r2
1000ee84:	00801444 	movi	r2,81
1000ee88:	18800015 	stw	r2,0(r3)
    return 0;
1000ee8c:	0005883a 	mov	r2,zero
  }
}
1000ee90:	e037883a 	mov	sp,fp
1000ee94:	dfc00117 	ldw	ra,4(sp)
1000ee98:	df000017 	ldw	fp,0(sp)
1000ee9c:	dec00204 	addi	sp,sp,8
1000eea0:	f800283a 	ret

1000eea4 <alt_load_section>:
 */

static void ALT_INLINE alt_load_section (alt_u32* from, 
                                         alt_u32* to, 
                                         alt_u32* end)
{
1000eea4:	defffc04 	addi	sp,sp,-16
1000eea8:	df000315 	stw	fp,12(sp)
1000eeac:	df000304 	addi	fp,sp,12
1000eeb0:	e13ffd15 	stw	r4,-12(fp)
1000eeb4:	e17ffe15 	stw	r5,-8(fp)
1000eeb8:	e1bfff15 	stw	r6,-4(fp)
  if (to != from)
1000eebc:	e0fffe17 	ldw	r3,-8(fp)
1000eec0:	e0bffd17 	ldw	r2,-12(fp)
1000eec4:	18800c26 	beq	r3,r2,1000eef8 <alt_load_section+0x54>
  {
    while( to != end )
1000eec8:	00000806 	br	1000eeec <alt_load_section+0x48>
    {
      *to++ = *from++;
1000eecc:	e0bffe17 	ldw	r2,-8(fp)
1000eed0:	10c00104 	addi	r3,r2,4
1000eed4:	e0fffe15 	stw	r3,-8(fp)
1000eed8:	e0fffd17 	ldw	r3,-12(fp)
1000eedc:	19000104 	addi	r4,r3,4
1000eee0:	e13ffd15 	stw	r4,-12(fp)
1000eee4:	18c00017 	ldw	r3,0(r3)
1000eee8:	10c00015 	stw	r3,0(r2)
                                         alt_u32* to, 
                                         alt_u32* end)
{
  if (to != from)
  {
    while( to != end )
1000eeec:	e0fffe17 	ldw	r3,-8(fp)
1000eef0:	e0bfff17 	ldw	r2,-4(fp)
1000eef4:	18bff51e 	bne	r3,r2,1000eecc <__alt_data_end+0xf800eecc>
    {
      *to++ = *from++;
    }
  }
}
1000eef8:	e037883a 	mov	sp,fp
1000eefc:	df000017 	ldw	fp,0(sp)
1000ef00:	dec00104 	addi	sp,sp,4
1000ef04:	f800283a 	ret

1000ef08 <alt_load>:
 * there is no bootloader, so this application is responsible for loading to
 * RAM any sections that are required.
 */  

void alt_load (void)
{
1000ef08:	defffe04 	addi	sp,sp,-8
1000ef0c:	dfc00115 	stw	ra,4(sp)
1000ef10:	df000015 	stw	fp,0(sp)
1000ef14:	d839883a 	mov	fp,sp
  /* 
   * Copy the .rwdata section. 
   */

  alt_load_section (&__flash_rwdata_start, 
1000ef18:	01040074 	movhi	r4,4097
1000ef1c:	210e4804 	addi	r4,r4,14624
1000ef20:	01440074 	movhi	r5,4097
1000ef24:	29478c04 	addi	r5,r5,7728
1000ef28:	01840074 	movhi	r6,4097
1000ef2c:	318e4804 	addi	r6,r6,14624
1000ef30:	000eea40 	call	1000eea4 <alt_load_section>

  /*
   * Copy the exception handler.
   */

  alt_load_section (&__flash_exceptions_start, 
1000ef34:	01040034 	movhi	r4,4096
1000ef38:	21000804 	addi	r4,r4,32
1000ef3c:	01440034 	movhi	r5,4096
1000ef40:	29400804 	addi	r5,r5,32
1000ef44:	01840034 	movhi	r6,4096
1000ef48:	31806f04 	addi	r6,r6,444
1000ef4c:	000eea40 	call	1000eea4 <alt_load_section>

  /*
   * Copy the .rodata section.
   */

  alt_load_section (&__flash_rodata_start, 
1000ef50:	01040074 	movhi	r4,4097
1000ef54:	2104e404 	addi	r4,r4,5008
1000ef58:	01440074 	movhi	r5,4097
1000ef5c:	2944e404 	addi	r5,r5,5008
1000ef60:	01840074 	movhi	r6,4097
1000ef64:	31878c04 	addi	r6,r6,7728
1000ef68:	000eea40 	call	1000eea4 <alt_load_section>
  
  /*
   * Now ensure that the caches are in synch.
   */
  
  alt_dcache_flush_all();
1000ef6c:	00103080 	call	10010308 <alt_dcache_flush_all>
  alt_icache_flush_all();
1000ef70:	00104d00 	call	100104d0 <alt_icache_flush_all>
}
1000ef74:	e037883a 	mov	sp,fp
1000ef78:	dfc00117 	ldw	ra,4(sp)
1000ef7c:	df000017 	ldw	fp,0(sp)
1000ef80:	dec00204 	addi	sp,sp,8
1000ef84:	f800283a 	ret

1000ef88 <alt_get_errno>:
#undef errno

extern int errno;

static ALT_INLINE int* alt_get_errno(void)
{
1000ef88:	defffe04 	addi	sp,sp,-8
1000ef8c:	dfc00115 	stw	ra,4(sp)
1000ef90:	df000015 	stw	fp,0(sp)
1000ef94:	d839883a 	mov	fp,sp
  return ((alt_errno) ? alt_errno() : &errno);
1000ef98:	00840074 	movhi	r2,4097
1000ef9c:	108e4304 	addi	r2,r2,14604
1000efa0:	10800017 	ldw	r2,0(r2)
1000efa4:	10000526 	beq	r2,zero,1000efbc <alt_get_errno+0x34>
1000efa8:	00840074 	movhi	r2,4097
1000efac:	108e4304 	addi	r2,r2,14604
1000efb0:	10800017 	ldw	r2,0(r2)
1000efb4:	103ee83a 	callr	r2
1000efb8:	00000206 	br	1000efc4 <alt_get_errno+0x3c>
1000efbc:	00840074 	movhi	r2,4097
1000efc0:	10950b04 	addi	r2,r2,21548
}
1000efc4:	e037883a 	mov	sp,fp
1000efc8:	dfc00117 	ldw	ra,4(sp)
1000efcc:	df000017 	ldw	fp,0(sp)
1000efd0:	dec00204 	addi	sp,sp,8
1000efd4:	f800283a 	ret

1000efd8 <lseek>:
 * ALT_LSEEK is mapped onto the lseek() system call in alt_syscall.h
 *
 */

off_t ALT_LSEEK (int file, off_t ptr, int dir)
{
1000efd8:	defff904 	addi	sp,sp,-28
1000efdc:	dfc00615 	stw	ra,24(sp)
1000efe0:	df000515 	stw	fp,20(sp)
1000efe4:	df000504 	addi	fp,sp,20
1000efe8:	e13ffd15 	stw	r4,-12(fp)
1000efec:	e17ffe15 	stw	r5,-8(fp)
1000eff0:	e1bfff15 	stw	r6,-4(fp)
  alt_fd* fd;
  off_t   rc = 0; 
1000eff4:	e03ffb15 	stw	zero,-20(fp)
   * A common error case is that when the file descriptor was created, the call
   * to open() failed resulting in a negative file descriptor. This is trapped
   * below so that we don't try and process an invalid file descriptor.
   */

  fd = (file < 0) ? NULL : &alt_fd_list[file];
1000eff8:	e0bffd17 	ldw	r2,-12(fp)
1000effc:	10000816 	blt	r2,zero,1000f020 <lseek+0x48>
1000f000:	e13ffd17 	ldw	r4,-12(fp)
1000f004:	01400304 	movi	r5,12
1000f008:	000c3280 	call	1000c328 <__mulsi3>
1000f00c:	1007883a 	mov	r3,r2
1000f010:	00840074 	movhi	r2,4097
1000f014:	1089bf04 	addi	r2,r2,9980
1000f018:	1885883a 	add	r2,r3,r2
1000f01c:	00000106 	br	1000f024 <lseek+0x4c>
1000f020:	0005883a 	mov	r2,zero
1000f024:	e0bffc15 	stw	r2,-16(fp)
  
  if (fd) 
1000f028:	e0bffc17 	ldw	r2,-16(fp)
1000f02c:	10001026 	beq	r2,zero,1000f070 <lseek+0x98>
    /*
     * If the device driver provides an implementation of the lseek() function,
     * then call that to process the request.
     */
 
    if (fd->dev->lseek)
1000f030:	e0bffc17 	ldw	r2,-16(fp)
1000f034:	10800017 	ldw	r2,0(r2)
1000f038:	10800717 	ldw	r2,28(r2)
1000f03c:	10000926 	beq	r2,zero,1000f064 <lseek+0x8c>
    {
      rc = fd->dev->lseek(fd, ptr, dir);
1000f040:	e0bffc17 	ldw	r2,-16(fp)
1000f044:	10800017 	ldw	r2,0(r2)
1000f048:	10800717 	ldw	r2,28(r2)
1000f04c:	e13ffc17 	ldw	r4,-16(fp)
1000f050:	e17ffe17 	ldw	r5,-8(fp)
1000f054:	e1bfff17 	ldw	r6,-4(fp)
1000f058:	103ee83a 	callr	r2
1000f05c:	e0bffb15 	stw	r2,-20(fp)
1000f060:	00000506 	br	1000f078 <lseek+0xa0>
     * Otherwise return an error.
     */

    else
    {
      rc = -ENOTSUP;
1000f064:	00bfde84 	movi	r2,-134
1000f068:	e0bffb15 	stw	r2,-20(fp)
1000f06c:	00000206 	br	1000f078 <lseek+0xa0>
    }
  }
  else  
  {
    rc = -EBADFD;
1000f070:	00bfebc4 	movi	r2,-81
1000f074:	e0bffb15 	stw	r2,-20(fp)
  }

  if (rc < 0)
1000f078:	e0bffb17 	ldw	r2,-20(fp)
1000f07c:	1000070e 	bge	r2,zero,1000f09c <lseek+0xc4>
  {
    ALT_ERRNO = -rc;
1000f080:	000ef880 	call	1000ef88 <alt_get_errno>
1000f084:	1007883a 	mov	r3,r2
1000f088:	e0bffb17 	ldw	r2,-20(fp)
1000f08c:	0085c83a 	sub	r2,zero,r2
1000f090:	18800015 	stw	r2,0(r3)
    rc = -1;
1000f094:	00bfffc4 	movi	r2,-1
1000f098:	e0bffb15 	stw	r2,-20(fp)
  }

  return rc;
1000f09c:	e0bffb17 	ldw	r2,-20(fp)
}
1000f0a0:	e037883a 	mov	sp,fp
1000f0a4:	dfc00117 	ldw	ra,4(sp)
1000f0a8:	df000017 	ldw	fp,0(sp)
1000f0ac:	dec00204 	addi	sp,sp,8
1000f0b0:	f800283a 	ret

1000f0b4 <alt_main>:
 * devices/filesystems/components in the system; and call the entry point for
 * the users application, i.e. main().
 */

void alt_main (void)
{
1000f0b4:	defffd04 	addi	sp,sp,-12
1000f0b8:	dfc00215 	stw	ra,8(sp)
1000f0bc:	df000115 	stw	fp,4(sp)
1000f0c0:	df000104 	addi	fp,sp,4
#endif

  /* ALT LOG - please see HAL/sys/alt_log_printf.h for details */
  ALT_LOG_PRINT_BOOT("[alt_main.c] Entering alt_main, calling alt_irq_init.\r\n");
  /* Initialize the interrupt controller. */
  alt_irq_init (NULL);
1000f0c4:	0009883a 	mov	r4,zero
1000f0c8:	000f5a80 	call	1000f5a8 <alt_irq_init>

  /* Initialize the operating system */
  ALT_LOG_PRINT_BOOT("[alt_main.c] Done alt_irq_init, calling alt_os_init.\r\n");
  ALT_OS_INIT();
1000f0cc:	0001883a 	nop
  ALT_LOG_PRINT_BOOT("[alt_main.c] Done OS Init, calling alt_sem_create.\r\n");
  ALT_SEM_CREATE (&alt_fd_list_lock, 1);

  /* Initialize the device drivers/software components. */
  ALT_LOG_PRINT_BOOT("[alt_main.c] Calling alt_sys_init.\r\n");
  alt_sys_init();
1000f0d0:	000f5dc0 	call	1000f5dc <alt_sys_init>
   * devices be present (not equal to /dev/null) and if direct drivers
   * aren't being used.
   */

    ALT_LOG_PRINT_BOOT("[alt_main.c] Redirecting IO.\r\n");
    alt_io_redirect(ALT_STDOUT, ALT_STDIN, ALT_STDERR);
1000f0d4:	01040074 	movhi	r4,4097
1000f0d8:	21078204 	addi	r4,r4,7688
1000f0dc:	01440074 	movhi	r5,4097
1000f0e0:	29478204 	addi	r5,r5,7688
1000f0e4:	01840074 	movhi	r6,4097
1000f0e8:	31878204 	addi	r6,r6,7688
1000f0ec:	001089c0 	call	1001089c <alt_io_redirect>
  /* 
   * Call the C++ constructors 
   */

  ALT_LOG_PRINT_BOOT("[alt_main.c] Calling C++ constructors.\r\n");
  _do_ctors ();
1000f0f0:	00104180 	call	10010418 <_do_ctors>
   * redefined as _exit()). This is in the interest of reducing code footprint,
   * in that the atexit() overhead is removed when it's not needed.
   */

  ALT_LOG_PRINT_BOOT("[alt_main.c] Calling atexit.\r\n");
  atexit (_do_dtors);
1000f0f4:	01040074 	movhi	r4,4097
1000f0f8:	21011d04 	addi	r4,r4,1140
1000f0fc:	0010fec0 	call	10010fec <atexit>
  ALT_LOG_PRINT_BOOT("[alt_main.c] Calling main.\r\n");

#ifdef ALT_NO_EXIT
  main (alt_argc, alt_argv, alt_envp);
#else
  result = main (alt_argc, alt_argv, alt_envp);
1000f100:	d126d517 	ldw	r4,-25772(gp)
1000f104:	d0e6d617 	ldw	r3,-25768(gp)
1000f108:	d0a6d717 	ldw	r2,-25764(gp)
1000f10c:	180b883a 	mov	r5,r3
1000f110:	100d883a 	mov	r6,r2
1000f114:	000031c0 	call	1000031c <main>
1000f118:	e0bfff15 	stw	r2,-4(fp)
  close(STDOUT_FILENO);
1000f11c:	01000044 	movi	r4,1
1000f120:	000eb9c0 	call	1000eb9c <close>
  exit (result);
1000f124:	e13fff17 	ldw	r4,-4(fp)
1000f128:	00110000 	call	10011000 <exit>

1000f12c <__malloc_lock>:
 * configuration is single threaded, so there is nothing to do here. Note that 
 * this requires that malloc is never called by an interrupt service routine.
 */

void __malloc_lock ( struct _reent *_r )
{
1000f12c:	defffe04 	addi	sp,sp,-8
1000f130:	df000115 	stw	fp,4(sp)
1000f134:	df000104 	addi	fp,sp,4
1000f138:	e13fff15 	stw	r4,-4(fp)
}
1000f13c:	e037883a 	mov	sp,fp
1000f140:	df000017 	ldw	fp,0(sp)
1000f144:	dec00104 	addi	sp,sp,4
1000f148:	f800283a 	ret

1000f14c <__malloc_unlock>:
/*
 *
 */

void __malloc_unlock ( struct _reent *_r )
{
1000f14c:	defffe04 	addi	sp,sp,-8
1000f150:	df000115 	stw	fp,4(sp)
1000f154:	df000104 	addi	fp,sp,4
1000f158:	e13fff15 	stw	r4,-4(fp)
}
1000f15c:	e037883a 	mov	sp,fp
1000f160:	df000017 	ldw	fp,0(sp)
1000f164:	dec00104 	addi	sp,sp,4
1000f168:	f800283a 	ret

1000f16c <alt_get_errno>:
#undef errno

extern int errno;

static ALT_INLINE int* alt_get_errno(void)
{
1000f16c:	defffe04 	addi	sp,sp,-8
1000f170:	dfc00115 	stw	ra,4(sp)
1000f174:	df000015 	stw	fp,0(sp)
1000f178:	d839883a 	mov	fp,sp
  return ((alt_errno) ? alt_errno() : &errno);
1000f17c:	00840074 	movhi	r2,4097
1000f180:	108e4304 	addi	r2,r2,14604
1000f184:	10800017 	ldw	r2,0(r2)
1000f188:	10000526 	beq	r2,zero,1000f1a0 <alt_get_errno+0x34>
1000f18c:	00840074 	movhi	r2,4097
1000f190:	108e4304 	addi	r2,r2,14604
1000f194:	10800017 	ldw	r2,0(r2)
1000f198:	103ee83a 	callr	r2
1000f19c:	00000206 	br	1000f1a8 <alt_get_errno+0x3c>
1000f1a0:	00840074 	movhi	r2,4097
1000f1a4:	10950b04 	addi	r2,r2,21548
}
1000f1a8:	e037883a 	mov	sp,fp
1000f1ac:	dfc00117 	ldw	ra,4(sp)
1000f1b0:	df000017 	ldw	fp,0(sp)
1000f1b4:	dec00204 	addi	sp,sp,8
1000f1b8:	f800283a 	ret

1000f1bc <read>:
}

#else /* !ALT_USE_DIRECT_DRIVERS */

int ALT_READ (int file, void *ptr, size_t len)
{
1000f1bc:	defff904 	addi	sp,sp,-28
1000f1c0:	dfc00615 	stw	ra,24(sp)
1000f1c4:	df000515 	stw	fp,20(sp)
1000f1c8:	df000504 	addi	fp,sp,20
1000f1cc:	e13ffd15 	stw	r4,-12(fp)
1000f1d0:	e17ffe15 	stw	r5,-8(fp)
1000f1d4:	e1bfff15 	stw	r6,-4(fp)
   * A common error case is that when the file descriptor was created, the call
   * to open() failed resulting in a negative file descriptor. This is trapped
   * below so that we don't try and process an invalid file descriptor.
   */

  fd = (file < 0) ? NULL : &alt_fd_list[file];
1000f1d8:	e0bffd17 	ldw	r2,-12(fp)
1000f1dc:	10000816 	blt	r2,zero,1000f200 <read+0x44>
1000f1e0:	e13ffd17 	ldw	r4,-12(fp)
1000f1e4:	01400304 	movi	r5,12
1000f1e8:	000c3280 	call	1000c328 <__mulsi3>
1000f1ec:	1007883a 	mov	r3,r2
1000f1f0:	00840074 	movhi	r2,4097
1000f1f4:	1089bf04 	addi	r2,r2,9980
1000f1f8:	1885883a 	add	r2,r3,r2
1000f1fc:	00000106 	br	1000f204 <read+0x48>
1000f200:	0005883a 	mov	r2,zero
1000f204:	e0bffb15 	stw	r2,-20(fp)
  
  if (fd)
1000f208:	e0bffb17 	ldw	r2,-20(fp)
1000f20c:	10002226 	beq	r2,zero,1000f298 <read+0xdc>
     * If the file has not been opened with read access, or if the driver does
     * not provide an implementation of read(), generate an error. Otherwise
     * call the drivers read() function to process the request.
     */

    if (((fd->fd_flags & O_ACCMODE) != O_WRONLY) && 
1000f210:	e0bffb17 	ldw	r2,-20(fp)
1000f214:	10800217 	ldw	r2,8(r2)
1000f218:	108000cc 	andi	r2,r2,3
1000f21c:	10800060 	cmpeqi	r2,r2,1
1000f220:	1000181e 	bne	r2,zero,1000f284 <read+0xc8>
        (fd->dev->read))
1000f224:	e0bffb17 	ldw	r2,-20(fp)
1000f228:	10800017 	ldw	r2,0(r2)
1000f22c:	10800517 	ldw	r2,20(r2)
     * If the file has not been opened with read access, or if the driver does
     * not provide an implementation of read(), generate an error. Otherwise
     * call the drivers read() function to process the request.
     */

    if (((fd->fd_flags & O_ACCMODE) != O_WRONLY) && 
1000f230:	10001426 	beq	r2,zero,1000f284 <read+0xc8>
        (fd->dev->read))
      {
        if ((rval = fd->dev->read(fd, ptr, len)) < 0)
1000f234:	e0bffb17 	ldw	r2,-20(fp)
1000f238:	10800017 	ldw	r2,0(r2)
1000f23c:	10800517 	ldw	r2,20(r2)
1000f240:	e0ffff17 	ldw	r3,-4(fp)
1000f244:	e13ffb17 	ldw	r4,-20(fp)
1000f248:	e17ffe17 	ldw	r5,-8(fp)
1000f24c:	180d883a 	mov	r6,r3
1000f250:	103ee83a 	callr	r2
1000f254:	e0bffc15 	stw	r2,-16(fp)
1000f258:	e0bffc17 	ldw	r2,-16(fp)
1000f25c:	1000070e 	bge	r2,zero,1000f27c <read+0xc0>
        {
          ALT_ERRNO = -rval;
1000f260:	000f16c0 	call	1000f16c <alt_get_errno>
1000f264:	1007883a 	mov	r3,r2
1000f268:	e0bffc17 	ldw	r2,-16(fp)
1000f26c:	0085c83a 	sub	r2,zero,r2
1000f270:	18800015 	stw	r2,0(r3)
          return -1;
1000f274:	00bfffc4 	movi	r2,-1
1000f278:	00000c06 	br	1000f2ac <read+0xf0>
        }
        return rval;
1000f27c:	e0bffc17 	ldw	r2,-16(fp)
1000f280:	00000a06 	br	1000f2ac <read+0xf0>
      }
      else
      {
        ALT_ERRNO = EACCES;
1000f284:	000f16c0 	call	1000f16c <alt_get_errno>
1000f288:	1007883a 	mov	r3,r2
1000f28c:	00800344 	movi	r2,13
1000f290:	18800015 	stw	r2,0(r3)
1000f294:	00000406 	br	1000f2a8 <read+0xec>
      }
    }
  else
  {
    ALT_ERRNO = EBADFD;
1000f298:	000f16c0 	call	1000f16c <alt_get_errno>
1000f29c:	1007883a 	mov	r3,r2
1000f2a0:	00801444 	movi	r2,81
1000f2a4:	18800015 	stw	r2,0(r3)
  }
  return -1;
1000f2a8:	00bfffc4 	movi	r2,-1
}
1000f2ac:	e037883a 	mov	sp,fp
1000f2b0:	dfc00117 	ldw	ra,4(sp)
1000f2b4:	df000017 	ldw	fp,0(sp)
1000f2b8:	dec00204 	addi	sp,sp,8
1000f2bc:	f800283a 	ret

1000f2c0 <alt_release_fd>:
 * File descriptors correcponding to standard in, standard out and standard 
 * error cannont be released backed to the pool. They are always reserved.
 */

void alt_release_fd (int fd)
{
1000f2c0:	defffc04 	addi	sp,sp,-16
1000f2c4:	dfc00315 	stw	ra,12(sp)
1000f2c8:	df000215 	stw	fp,8(sp)
1000f2cc:	dc000115 	stw	r16,4(sp)
1000f2d0:	df000204 	addi	fp,sp,8
1000f2d4:	e13ffe15 	stw	r4,-8(fp)
  if (fd > 2)
1000f2d8:	e0bffe17 	ldw	r2,-8(fp)
1000f2dc:	108000d0 	cmplti	r2,r2,3
1000f2e0:	1000111e 	bne	r2,zero,1000f328 <alt_release_fd+0x68>
  {
    alt_fd_list[fd].fd_flags = 0;
1000f2e4:	04040074 	movhi	r16,4097
1000f2e8:	8409bf04 	addi	r16,r16,9980
1000f2ec:	e0bffe17 	ldw	r2,-8(fp)
1000f2f0:	1009883a 	mov	r4,r2
1000f2f4:	01400304 	movi	r5,12
1000f2f8:	000c3280 	call	1000c328 <__mulsi3>
1000f2fc:	8085883a 	add	r2,r16,r2
1000f300:	10800204 	addi	r2,r2,8
1000f304:	10000015 	stw	zero,0(r2)
    alt_fd_list[fd].dev      = 0;
1000f308:	04040074 	movhi	r16,4097
1000f30c:	8409bf04 	addi	r16,r16,9980
1000f310:	e0bffe17 	ldw	r2,-8(fp)
1000f314:	1009883a 	mov	r4,r2
1000f318:	01400304 	movi	r5,12
1000f31c:	000c3280 	call	1000c328 <__mulsi3>
1000f320:	8085883a 	add	r2,r16,r2
1000f324:	10000015 	stw	zero,0(r2)
  }
}
1000f328:	e6ffff04 	addi	sp,fp,-4
1000f32c:	dfc00217 	ldw	ra,8(sp)
1000f330:	df000117 	ldw	fp,4(sp)
1000f334:	dc000017 	ldw	r16,0(sp)
1000f338:	dec00304 	addi	sp,sp,12
1000f33c:	f800283a 	ret

1000f340 <sbrk>:
#endif
 
caddr_t ALT_SBRK (int incr) __attribute__ ((no_instrument_function ));

caddr_t ALT_SBRK (int incr)
{ 
1000f340:	defff904 	addi	sp,sp,-28
1000f344:	df000615 	stw	fp,24(sp)
1000f348:	df000604 	addi	fp,sp,24
1000f34c:	e13fff15 	stw	r4,-4(fp)
static ALT_INLINE alt_irq_context ALT_ALWAYS_INLINE 
       alt_irq_disable_all (void)
{
  alt_irq_context context;

  NIOS2_READ_STATUS (context);
1000f350:	0005303a 	rdctl	r2,status
1000f354:	e0bffc15 	stw	r2,-16(fp)

  NIOS2_WRITE_STATUS (context & ~NIOS2_STATUS_PIE_MSK);
1000f358:	e0fffc17 	ldw	r3,-16(fp)
1000f35c:	00bfff84 	movi	r2,-2
1000f360:	1884703a 	and	r2,r3,r2
1000f364:	1001703a 	wrctl	status,r2
  
  return context;
1000f368:	e0bffc17 	ldw	r2,-16(fp)
  alt_irq_context context;
  char *prev_heap_end; 

  context = alt_irq_disable_all();
1000f36c:	e0bffa15 	stw	r2,-24(fp)

  /* Always return data aligned on a word boundary */
  heap_end = (char *)(((unsigned int)heap_end + 3) & ~3);
1000f370:	d0a00d17 	ldw	r2,-32716(gp)
1000f374:	10c000c4 	addi	r3,r2,3
1000f378:	00bfff04 	movi	r2,-4
1000f37c:	1884703a 	and	r2,r3,r2
1000f380:	d0a00d15 	stw	r2,-32716(gp)
  if (((heap_end + incr) - __alt_heap_start) > ALT_MAX_HEAP_BYTES) {
    alt_irq_enable_all(context);
    return (caddr_t)-1;
  }
#else
  if ((heap_end + incr) > __alt_heap_limit) {
1000f384:	d0e00d17 	ldw	r3,-32716(gp)
1000f388:	e0bfff17 	ldw	r2,-4(fp)
1000f38c:	1887883a 	add	r3,r3,r2
1000f390:	00860034 	movhi	r2,6144
1000f394:	10800004 	addi	r2,r2,0
1000f398:	10c0062e 	bgeu	r2,r3,1000f3b4 <sbrk+0x74>
1000f39c:	e0bffa17 	ldw	r2,-24(fp)
1000f3a0:	e0bffd15 	stw	r2,-12(fp)
  status &= ~NIOS2_STATUS_PIE_MSK;
  status |= (context & NIOS2_STATUS_PIE_MSK);
  
  NIOS2_WRITE_STATUS (status);
#else
  NIOS2_WRITE_STATUS (context);
1000f3a4:	e0bffd17 	ldw	r2,-12(fp)
1000f3a8:	1001703a 	wrctl	status,r2
    alt_irq_enable_all(context);
    return (caddr_t)-1;
1000f3ac:	00bfffc4 	movi	r2,-1
1000f3b0:	00000b06 	br	1000f3e0 <sbrk+0xa0>
  }
#endif

  prev_heap_end = heap_end; 
1000f3b4:	d0a00d17 	ldw	r2,-32716(gp)
1000f3b8:	e0bffb15 	stw	r2,-20(fp)
  heap_end += incr; 
1000f3bc:	d0e00d17 	ldw	r3,-32716(gp)
1000f3c0:	e0bfff17 	ldw	r2,-4(fp)
1000f3c4:	1885883a 	add	r2,r3,r2
1000f3c8:	d0a00d15 	stw	r2,-32716(gp)
1000f3cc:	e0bffa17 	ldw	r2,-24(fp)
1000f3d0:	e0bffe15 	stw	r2,-8(fp)
1000f3d4:	e0bffe17 	ldw	r2,-8(fp)
1000f3d8:	1001703a 	wrctl	status,r2

#endif

  alt_irq_enable_all(context);

  return (caddr_t) prev_heap_end; 
1000f3dc:	e0bffb17 	ldw	r2,-20(fp)
} 
1000f3e0:	e037883a 	mov	sp,fp
1000f3e4:	df000017 	ldw	fp,0(sp)
1000f3e8:	dec00104 	addi	sp,sp,4
1000f3ec:	f800283a 	ret

1000f3f0 <usleep>:
#if defined (__GNUC__) && __GNUC__ >= 4
int ALT_USLEEP (useconds_t us)
#else
unsigned int ALT_USLEEP (unsigned int us)
#endif
{
1000f3f0:	defffd04 	addi	sp,sp,-12
1000f3f4:	dfc00215 	stw	ra,8(sp)
1000f3f8:	df000115 	stw	fp,4(sp)
1000f3fc:	df000104 	addi	fp,sp,4
1000f400:	e13fff15 	stw	r4,-4(fp)
  return alt_busy_sleep(us);
1000f404:	e13fff17 	ldw	r4,-4(fp)
1000f408:	00101b00 	call	100101b0 <alt_busy_sleep>
}
1000f40c:	e037883a 	mov	sp,fp
1000f410:	dfc00117 	ldw	ra,4(sp)
1000f414:	df000017 	ldw	fp,0(sp)
1000f418:	dec00204 	addi	sp,sp,8
1000f41c:	f800283a 	ret

1000f420 <alt_get_errno>:
#undef errno

extern int errno;

static ALT_INLINE int* alt_get_errno(void)
{
1000f420:	defffe04 	addi	sp,sp,-8
1000f424:	dfc00115 	stw	ra,4(sp)
1000f428:	df000015 	stw	fp,0(sp)
1000f42c:	d839883a 	mov	fp,sp
  return ((alt_errno) ? alt_errno() : &errno);
1000f430:	00840074 	movhi	r2,4097
1000f434:	108e4304 	addi	r2,r2,14604
1000f438:	10800017 	ldw	r2,0(r2)
1000f43c:	10000526 	beq	r2,zero,1000f454 <alt_get_errno+0x34>
1000f440:	00840074 	movhi	r2,4097
1000f444:	108e4304 	addi	r2,r2,14604
1000f448:	10800017 	ldw	r2,0(r2)
1000f44c:	103ee83a 	callr	r2
1000f450:	00000206 	br	1000f45c <alt_get_errno+0x3c>
1000f454:	00840074 	movhi	r2,4097
1000f458:	10950b04 	addi	r2,r2,21548
}
1000f45c:	e037883a 	mov	sp,fp
1000f460:	dfc00117 	ldw	ra,4(sp)
1000f464:	df000017 	ldw	fp,0(sp)
1000f468:	dec00204 	addi	sp,sp,8
1000f46c:	f800283a 	ret

1000f470 <write>:
}

#else /* !ALT_USE_DIRECT_DRIVERS */

int ALT_WRITE (int file, const void *ptr, size_t len)
{
1000f470:	defff904 	addi	sp,sp,-28
1000f474:	dfc00615 	stw	ra,24(sp)
1000f478:	df000515 	stw	fp,20(sp)
1000f47c:	df000504 	addi	fp,sp,20
1000f480:	e13ffd15 	stw	r4,-12(fp)
1000f484:	e17ffe15 	stw	r5,-8(fp)
1000f488:	e1bfff15 	stw	r6,-4(fp)
   * A common error case is that when the file descriptor was created, the call
   * to open() failed resulting in a negative file descriptor. This is trapped
   * below so that we don't try and process an invalid file descriptor.
   */

  fd = (file < 0) ? NULL : &alt_fd_list[file];
1000f48c:	e0bffd17 	ldw	r2,-12(fp)
1000f490:	10000816 	blt	r2,zero,1000f4b4 <write+0x44>
1000f494:	e13ffd17 	ldw	r4,-12(fp)
1000f498:	01400304 	movi	r5,12
1000f49c:	000c3280 	call	1000c328 <__mulsi3>
1000f4a0:	1007883a 	mov	r3,r2
1000f4a4:	00840074 	movhi	r2,4097
1000f4a8:	1089bf04 	addi	r2,r2,9980
1000f4ac:	1885883a 	add	r2,r3,r2
1000f4b0:	00000106 	br	1000f4b8 <write+0x48>
1000f4b4:	0005883a 	mov	r2,zero
1000f4b8:	e0bffb15 	stw	r2,-20(fp)
  
  if (fd)
1000f4bc:	e0bffb17 	ldw	r2,-20(fp)
1000f4c0:	10002126 	beq	r2,zero,1000f548 <write+0xd8>
     * If the file has not been opened with write access, or if the driver does
     * not provide an implementation of write(), generate an error. Otherwise
     * call the drivers write() function to process the request.
     */

    if (((fd->fd_flags & O_ACCMODE) != O_RDONLY) && fd->dev->write)
1000f4c4:	e0bffb17 	ldw	r2,-20(fp)
1000f4c8:	10800217 	ldw	r2,8(r2)
1000f4cc:	108000cc 	andi	r2,r2,3
1000f4d0:	10001826 	beq	r2,zero,1000f534 <write+0xc4>
1000f4d4:	e0bffb17 	ldw	r2,-20(fp)
1000f4d8:	10800017 	ldw	r2,0(r2)
1000f4dc:	10800617 	ldw	r2,24(r2)
1000f4e0:	10001426 	beq	r2,zero,1000f534 <write+0xc4>
    {
      
      /* ALT_LOG - see altera_hal/HAL/inc/sys/alt_log_printf.h */
      ALT_LOG_WRITE_FUNCTION(ptr,len);

      if ((rval = fd->dev->write(fd, ptr, len)) < 0)
1000f4e4:	e0bffb17 	ldw	r2,-20(fp)
1000f4e8:	10800017 	ldw	r2,0(r2)
1000f4ec:	10800617 	ldw	r2,24(r2)
1000f4f0:	e0ffff17 	ldw	r3,-4(fp)
1000f4f4:	e13ffb17 	ldw	r4,-20(fp)
1000f4f8:	e17ffe17 	ldw	r5,-8(fp)
1000f4fc:	180d883a 	mov	r6,r3
1000f500:	103ee83a 	callr	r2
1000f504:	e0bffc15 	stw	r2,-16(fp)
1000f508:	e0bffc17 	ldw	r2,-16(fp)
1000f50c:	1000070e 	bge	r2,zero,1000f52c <write+0xbc>
      {
        ALT_ERRNO = -rval;
1000f510:	000f4200 	call	1000f420 <alt_get_errno>
1000f514:	1007883a 	mov	r3,r2
1000f518:	e0bffc17 	ldw	r2,-16(fp)
1000f51c:	0085c83a 	sub	r2,zero,r2
1000f520:	18800015 	stw	r2,0(r3)
        return -1;
1000f524:	00bfffc4 	movi	r2,-1
1000f528:	00000c06 	br	1000f55c <write+0xec>
      }
      return rval;
1000f52c:	e0bffc17 	ldw	r2,-16(fp)
1000f530:	00000a06 	br	1000f55c <write+0xec>
    }
    else
    {
      ALT_ERRNO = EACCES;
1000f534:	000f4200 	call	1000f420 <alt_get_errno>
1000f538:	1007883a 	mov	r3,r2
1000f53c:	00800344 	movi	r2,13
1000f540:	18800015 	stw	r2,0(r3)
1000f544:	00000406 	br	1000f558 <write+0xe8>
    }
  }
  else  
  {
    ALT_ERRNO = EBADFD;
1000f548:	000f4200 	call	1000f420 <alt_get_errno>
1000f54c:	1007883a 	mov	r3,r2
1000f550:	00801444 	movi	r2,81
1000f554:	18800015 	stw	r2,0(r3)
  }
  return -1;
1000f558:	00bfffc4 	movi	r2,-1
}
1000f55c:	e037883a 	mov	sp,fp
1000f560:	dfc00117 	ldw	ra,4(sp)
1000f564:	df000017 	ldw	fp,0(sp)
1000f568:	dec00204 	addi	sp,sp,8
1000f56c:	f800283a 	ret

1000f570 <alt_dev_reg>:
 */

extern int alt_fs_reg  (alt_dev* dev); 

static ALT_INLINE int alt_dev_reg (alt_dev* dev)
{
1000f570:	defffd04 	addi	sp,sp,-12
1000f574:	dfc00215 	stw	ra,8(sp)
1000f578:	df000115 	stw	fp,4(sp)
1000f57c:	df000104 	addi	fp,sp,4
1000f580:	e13fff15 	stw	r4,-4(fp)
  extern alt_llist alt_dev_list;

  return alt_dev_llist_insert ((alt_dev_llist*) dev, &alt_dev_list);
1000f584:	e13fff17 	ldw	r4,-4(fp)
1000f588:	01440074 	movhi	r5,4097
1000f58c:	294e4004 	addi	r5,r5,14592
1000f590:	00103740 	call	10010374 <alt_dev_llist_insert>
}
1000f594:	e037883a 	mov	sp,fp
1000f598:	dfc00117 	ldw	ra,4(sp)
1000f59c:	df000017 	ldw	fp,0(sp)
1000f5a0:	dec00204 	addi	sp,sp,8
1000f5a4:	f800283a 	ret

1000f5a8 <alt_irq_init>:
 * The "base" parameter is ignored and only
 * present for backwards-compatibility.
 */

void alt_irq_init ( const void* base )
{
1000f5a8:	defffd04 	addi	sp,sp,-12
1000f5ac:	dfc00215 	stw	ra,8(sp)
1000f5b0:	df000115 	stw	fp,4(sp)
1000f5b4:	df000104 	addi	fp,sp,4
1000f5b8:	e13fff15 	stw	r4,-4(fp)
    ALTERA_NIOS2_GEN2_IRQ_INIT ( NIOS2_QSYS_0, nios2_qsys_0);
1000f5bc:	0010d540 	call	10010d54 <altera_nios2_gen2_irq_init>
 * alt_irq_cpu_enable_interrupts() enables the CPU to start taking interrupts.
 */
static ALT_INLINE void ALT_ALWAYS_INLINE 
       alt_irq_cpu_enable_interrupts (void)
{
    NIOS2_WRITE_STATUS(NIOS2_STATUS_PIE_MSK
1000f5c0:	00800044 	movi	r2,1
1000f5c4:	1001703a 	wrctl	status,r2
    alt_irq_cpu_enable_interrupts();
}
1000f5c8:	e037883a 	mov	sp,fp
1000f5cc:	dfc00117 	ldw	ra,4(sp)
1000f5d0:	df000017 	ldw	fp,0(sp)
1000f5d4:	dec00204 	addi	sp,sp,8
1000f5d8:	f800283a 	ret

1000f5dc <alt_sys_init>:
 * Initialize the non-interrupt controller devices.
 * Called after alt_irq_init().
 */

void alt_sys_init( void )
{
1000f5dc:	defffe04 	addi	sp,sp,-8
1000f5e0:	dfc00115 	stw	ra,4(sp)
1000f5e4:	df000015 	stw	fp,0(sp)
1000f5e8:	d839883a 	mov	fp,sp
    ALTERA_AVALON_JTAG_UART_INIT ( JTAG_UART_0, jtag_uart_0);
1000f5ec:	01040074 	movhi	r4,4097
1000f5f0:	210a2904 	addi	r4,r4,10404
1000f5f4:	000b883a 	mov	r5,zero
1000f5f8:	01800144 	movi	r6,5
1000f5fc:	000f7880 	call	1000f788 <altera_avalon_jtag_uart_init>
1000f600:	01040074 	movhi	r4,4097
1000f604:	210a1f04 	addi	r4,r4,10364
1000f608:	000f5700 	call	1000f570 <alt_dev_reg>
    ALTERA_AVALON_SYSID_QSYS_INIT ( SYSID_QSYS_0, sysid_qsys_0);
1000f60c:	0001883a 	nop
}
1000f610:	e037883a 	mov	sp,fp
1000f614:	dfc00117 	ldw	ra,4(sp)
1000f618:	df000017 	ldw	fp,0(sp)
1000f61c:	dec00204 	addi	sp,sp,8
1000f620:	f800283a 	ret

1000f624 <altera_avalon_jtag_uart_read_fd>:
 *
 */

int 
altera_avalon_jtag_uart_read_fd(alt_fd* fd, char* buffer, int space)
{
1000f624:	defffa04 	addi	sp,sp,-24
1000f628:	dfc00515 	stw	ra,20(sp)
1000f62c:	df000415 	stw	fp,16(sp)
1000f630:	df000404 	addi	fp,sp,16
1000f634:	e13ffd15 	stw	r4,-12(fp)
1000f638:	e17ffe15 	stw	r5,-8(fp)
1000f63c:	e1bfff15 	stw	r6,-4(fp)
    altera_avalon_jtag_uart_dev* dev = (altera_avalon_jtag_uart_dev*) fd->dev; 
1000f640:	e0bffd17 	ldw	r2,-12(fp)
1000f644:	10800017 	ldw	r2,0(r2)
1000f648:	e0bffc15 	stw	r2,-16(fp)

    return altera_avalon_jtag_uart_read(&dev->state, buffer, space,
1000f64c:	e0bffc17 	ldw	r2,-16(fp)
1000f650:	10c00a04 	addi	r3,r2,40
1000f654:	e0bffd17 	ldw	r2,-12(fp)
1000f658:	10800217 	ldw	r2,8(r2)
1000f65c:	1809883a 	mov	r4,r3
1000f660:	e17ffe17 	ldw	r5,-8(fp)
1000f664:	e1bfff17 	ldw	r6,-4(fp)
1000f668:	100f883a 	mov	r7,r2
1000f66c:	000fc4c0 	call	1000fc4c <altera_avalon_jtag_uart_read>
      fd->fd_flags);
}
1000f670:	e037883a 	mov	sp,fp
1000f674:	dfc00117 	ldw	ra,4(sp)
1000f678:	df000017 	ldw	fp,0(sp)
1000f67c:	dec00204 	addi	sp,sp,8
1000f680:	f800283a 	ret

1000f684 <altera_avalon_jtag_uart_write_fd>:

int 
altera_avalon_jtag_uart_write_fd(alt_fd* fd, const char* buffer, int space)
{
1000f684:	defffa04 	addi	sp,sp,-24
1000f688:	dfc00515 	stw	ra,20(sp)
1000f68c:	df000415 	stw	fp,16(sp)
1000f690:	df000404 	addi	fp,sp,16
1000f694:	e13ffd15 	stw	r4,-12(fp)
1000f698:	e17ffe15 	stw	r5,-8(fp)
1000f69c:	e1bfff15 	stw	r6,-4(fp)
    altera_avalon_jtag_uart_dev* dev = (altera_avalon_jtag_uart_dev*) fd->dev; 
1000f6a0:	e0bffd17 	ldw	r2,-12(fp)
1000f6a4:	10800017 	ldw	r2,0(r2)
1000f6a8:	e0bffc15 	stw	r2,-16(fp)

    return altera_avalon_jtag_uart_write(&dev->state, buffer, space,
1000f6ac:	e0bffc17 	ldw	r2,-16(fp)
1000f6b0:	10c00a04 	addi	r3,r2,40
1000f6b4:	e0bffd17 	ldw	r2,-12(fp)
1000f6b8:	10800217 	ldw	r2,8(r2)
1000f6bc:	1809883a 	mov	r4,r3
1000f6c0:	e17ffe17 	ldw	r5,-8(fp)
1000f6c4:	e1bfff17 	ldw	r6,-4(fp)
1000f6c8:	100f883a 	mov	r7,r2
1000f6cc:	000fe580 	call	1000fe58 <altera_avalon_jtag_uart_write>
      fd->fd_flags);
}
1000f6d0:	e037883a 	mov	sp,fp
1000f6d4:	dfc00117 	ldw	ra,4(sp)
1000f6d8:	df000017 	ldw	fp,0(sp)
1000f6dc:	dec00204 	addi	sp,sp,8
1000f6e0:	f800283a 	ret

1000f6e4 <altera_avalon_jtag_uart_close_fd>:

#ifndef ALTERA_AVALON_JTAG_UART_SMALL

int 
altera_avalon_jtag_uart_close_fd(alt_fd* fd)
{
1000f6e4:	defffc04 	addi	sp,sp,-16
1000f6e8:	dfc00315 	stw	ra,12(sp)
1000f6ec:	df000215 	stw	fp,8(sp)
1000f6f0:	df000204 	addi	fp,sp,8
1000f6f4:	e13fff15 	stw	r4,-4(fp)
    altera_avalon_jtag_uart_dev* dev = (altera_avalon_jtag_uart_dev*) fd->dev; 
1000f6f8:	e0bfff17 	ldw	r2,-4(fp)
1000f6fc:	10800017 	ldw	r2,0(r2)
1000f700:	e0bffe15 	stw	r2,-8(fp)

    return altera_avalon_jtag_uart_close(&dev->state, fd->fd_flags);
1000f704:	e0bffe17 	ldw	r2,-8(fp)
1000f708:	10c00a04 	addi	r3,r2,40
1000f70c:	e0bfff17 	ldw	r2,-4(fp)
1000f710:	10800217 	ldw	r2,8(r2)
1000f714:	1809883a 	mov	r4,r3
1000f718:	100b883a 	mov	r5,r2
1000f71c:	000faf80 	call	1000faf8 <altera_avalon_jtag_uart_close>
}
1000f720:	e037883a 	mov	sp,fp
1000f724:	dfc00117 	ldw	ra,4(sp)
1000f728:	df000017 	ldw	fp,0(sp)
1000f72c:	dec00204 	addi	sp,sp,8
1000f730:	f800283a 	ret

1000f734 <altera_avalon_jtag_uart_ioctl_fd>:

int 
altera_avalon_jtag_uart_ioctl_fd(alt_fd* fd, int req, void* arg)
{
1000f734:	defffa04 	addi	sp,sp,-24
1000f738:	dfc00515 	stw	ra,20(sp)
1000f73c:	df000415 	stw	fp,16(sp)
1000f740:	df000404 	addi	fp,sp,16
1000f744:	e13ffd15 	stw	r4,-12(fp)
1000f748:	e17ffe15 	stw	r5,-8(fp)
1000f74c:	e1bfff15 	stw	r6,-4(fp)
    altera_avalon_jtag_uart_dev* dev = (altera_avalon_jtag_uart_dev*) fd->dev;
1000f750:	e0bffd17 	ldw	r2,-12(fp)
1000f754:	10800017 	ldw	r2,0(r2)
1000f758:	e0bffc15 	stw	r2,-16(fp)

    return altera_avalon_jtag_uart_ioctl(&dev->state, req, arg);
1000f75c:	e0bffc17 	ldw	r2,-16(fp)
1000f760:	10800a04 	addi	r2,r2,40
1000f764:	1009883a 	mov	r4,r2
1000f768:	e17ffe17 	ldw	r5,-8(fp)
1000f76c:	e1bfff17 	ldw	r6,-4(fp)
1000f770:	000fb600 	call	1000fb60 <altera_avalon_jtag_uart_ioctl>
}
1000f774:	e037883a 	mov	sp,fp
1000f778:	dfc00117 	ldw	ra,4(sp)
1000f77c:	df000017 	ldw	fp,0(sp)
1000f780:	dec00204 	addi	sp,sp,8
1000f784:	f800283a 	ret

1000f788 <altera_avalon_jtag_uart_init>:
 * Return 1 on sucessful IRQ register and 0 on failure.
 */

void altera_avalon_jtag_uart_init(altera_avalon_jtag_uart_state* sp, 
                                  int irq_controller_id, int irq)
{
1000f788:	defffa04 	addi	sp,sp,-24
1000f78c:	dfc00515 	stw	ra,20(sp)
1000f790:	df000415 	stw	fp,16(sp)
1000f794:	df000404 	addi	fp,sp,16
1000f798:	e13ffd15 	stw	r4,-12(fp)
1000f79c:	e17ffe15 	stw	r5,-8(fp)
1000f7a0:	e1bfff15 	stw	r6,-4(fp)
  ALT_FLAG_CREATE(&sp->events, 0);
  ALT_SEM_CREATE(&sp->read_lock, 1);
  ALT_SEM_CREATE(&sp->write_lock, 1);

  /* enable read interrupts at the device */
  sp->irq_enable = ALTERA_AVALON_JTAG_UART_CONTROL_RE_MSK;
1000f7a4:	e0bffd17 	ldw	r2,-12(fp)
1000f7a8:	00c00044 	movi	r3,1
1000f7ac:	10c00815 	stw	r3,32(r2)

  IOWR_ALTERA_AVALON_JTAG_UART_CONTROL(sp->base, sp->irq_enable); 
1000f7b0:	e0bffd17 	ldw	r2,-12(fp)
1000f7b4:	10800017 	ldw	r2,0(r2)
1000f7b8:	10800104 	addi	r2,r2,4
1000f7bc:	1007883a 	mov	r3,r2
1000f7c0:	e0bffd17 	ldw	r2,-12(fp)
1000f7c4:	10800817 	ldw	r2,32(r2)
1000f7c8:	18800035 	stwio	r2,0(r3)
  
  /* register the interrupt handler */
#ifdef ALT_ENHANCED_INTERRUPT_API_PRESENT
  alt_ic_isr_register(irq_controller_id, irq, altera_avalon_jtag_uart_irq, 
1000f7cc:	e0fffe17 	ldw	r3,-8(fp)
1000f7d0:	e0bfff17 	ldw	r2,-4(fp)
1000f7d4:	d8000015 	stw	zero,0(sp)
1000f7d8:	1809883a 	mov	r4,r3
1000f7dc:	100b883a 	mov	r5,r2
1000f7e0:	01840074 	movhi	r6,4097
1000f7e4:	31be1304 	addi	r6,r6,-1972
1000f7e8:	e1fffd17 	ldw	r7,-12(fp)
1000f7ec:	00104ec0 	call	100104ec <alt_ic_isr_register>
#else
  alt_irq_register(irq, sp, altera_avalon_jtag_uart_irq);
#endif  

  /* Register an alarm to go off every second to check for presence of host */
  sp->host_inactive = 0;
1000f7f0:	e0bffd17 	ldw	r2,-12(fp)
1000f7f4:	10000915 	stw	zero,36(r2)

  if (alt_alarm_start(&sp->alarm, alt_ticks_per_second(), 
1000f7f8:	e0bffd17 	ldw	r2,-12(fp)
1000f7fc:	10c00204 	addi	r3,r2,8
 * Obtain the system clock rate in ticks/s. 
 */

static ALT_INLINE alt_u32 ALT_ALWAYS_INLINE alt_ticks_per_second (void)
{
  return _alt_tick_rate;
1000f800:	00840074 	movhi	r2,4097
1000f804:	10951004 	addi	r2,r2,21568
1000f808:	10800017 	ldw	r2,0(r2)
1000f80c:	1809883a 	mov	r4,r3
1000f810:	100b883a 	mov	r5,r2
1000f814:	01840074 	movhi	r6,4097
1000f818:	31be9404 	addi	r6,r6,-1456
1000f81c:	e1fffd17 	ldw	r7,-12(fp)
1000f820:	00100700 	call	10010070 <alt_alarm_start>
1000f824:	1000040e 	bge	r2,zero,1000f838 <altera_avalon_jtag_uart_init+0xb0>
    &altera_avalon_jtag_uart_timeout, sp) < 0)
  {
    /* If we can't set the alarm then record "don't know if host present" 
     * and behave as though the host is present.
     */
    sp->timeout = INT_MAX;
1000f828:	e0fffd17 	ldw	r3,-12(fp)
1000f82c:	00a00034 	movhi	r2,32768
1000f830:	10bfffc4 	addi	r2,r2,-1
1000f834:	18800115 	stw	r2,4(r3)
  }

  /* ALT_LOG - see altera_hal/HAL/inc/sys/alt_log_printf.h */ 
  ALT_LOG_JTAG_UART_ALARM_REGISTER(sp, sp->base);
}
1000f838:	e037883a 	mov	sp,fp
1000f83c:	dfc00117 	ldw	ra,4(sp)
1000f840:	df000017 	ldw	fp,0(sp)
1000f844:	dec00204 	addi	sp,sp,8
1000f848:	f800283a 	ret

1000f84c <altera_avalon_jtag_uart_irq>:
#ifdef ALT_ENHANCED_INTERRUPT_API_PRESENT
static void altera_avalon_jtag_uart_irq(void* context)
#else
static void altera_avalon_jtag_uart_irq(void* context, alt_u32 id)
#endif
{
1000f84c:	defff804 	addi	sp,sp,-32
1000f850:	df000715 	stw	fp,28(sp)
1000f854:	df000704 	addi	fp,sp,28
1000f858:	e13fff15 	stw	r4,-4(fp)
  altera_avalon_jtag_uart_state* sp = (altera_avalon_jtag_uart_state*) context;
1000f85c:	e0bfff17 	ldw	r2,-4(fp)
1000f860:	e0bffb15 	stw	r2,-20(fp)
  unsigned int base = sp->base;
1000f864:	e0bffb17 	ldw	r2,-20(fp)
1000f868:	10800017 	ldw	r2,0(r2)
1000f86c:	e0bffc15 	stw	r2,-16(fp)
  /* ALT_LOG - see altera_hal/HAL/inc/sys/alt_log_printf.h */ 
  ALT_LOG_JTAG_UART_ISR_FUNCTION(base, sp);

  for ( ; ; )
  {
    unsigned int control = IORD_ALTERA_AVALON_JTAG_UART_CONTROL(base);
1000f870:	e0bffc17 	ldw	r2,-16(fp)
1000f874:	10800104 	addi	r2,r2,4
1000f878:	10800037 	ldwio	r2,0(r2)
1000f87c:	e0bffd15 	stw	r2,-12(fp)

    /* Return once nothing more to do */
    if ((control & (ALTERA_AVALON_JTAG_UART_CONTROL_RI_MSK | ALTERA_AVALON_JTAG_UART_CONTROL_WI_MSK)) == 0)
1000f880:	e0bffd17 	ldw	r2,-12(fp)
1000f884:	1080c00c 	andi	r2,r2,768
1000f888:	1000011e 	bne	r2,zero,1000f890 <altera_avalon_jtag_uart_irq+0x44>
      break;
1000f88c:	00006c06 	br	1000fa40 <altera_avalon_jtag_uart_irq+0x1f4>

    if (control & ALTERA_AVALON_JTAG_UART_CONTROL_RI_MSK)
1000f890:	e0bffd17 	ldw	r2,-12(fp)
1000f894:	1080400c 	andi	r2,r2,256
1000f898:	10003426 	beq	r2,zero,1000f96c <altera_avalon_jtag_uart_irq+0x120>
    {
      /* process a read irq.  Start by assuming that there is data in the
       * receive FIFO (otherwise why would we have been interrupted?)
       */
      unsigned int data = 1 << ALTERA_AVALON_JTAG_UART_DATA_RAVAIL_OFST;
1000f89c:	00800074 	movhi	r2,1
1000f8a0:	e0bff915 	stw	r2,-28(fp)
      for ( ; ; )
      {
        /* Check whether there is space in the buffer.  If not then we must not
         * read any characters from the buffer as they will be lost.
         */
        unsigned int next = (sp->rx_in + 1) % ALTERA_AVALON_JTAG_UART_BUF_LEN;
1000f8a4:	e0bffb17 	ldw	r2,-20(fp)
1000f8a8:	10800a17 	ldw	r2,40(r2)
1000f8ac:	10800044 	addi	r2,r2,1
1000f8b0:	1081ffcc 	andi	r2,r2,2047
1000f8b4:	e0bffe15 	stw	r2,-8(fp)
        if (next == sp->rx_out)
1000f8b8:	e0bffb17 	ldw	r2,-20(fp)
1000f8bc:	10c00b17 	ldw	r3,44(r2)
1000f8c0:	e0bffe17 	ldw	r2,-8(fp)
1000f8c4:	1880011e 	bne	r3,r2,1000f8cc <altera_avalon_jtag_uart_irq+0x80>
          break;
1000f8c8:	00001606 	br	1000f924 <altera_avalon_jtag_uart_irq+0xd8>

        /* Try to remove a character from the FIFO and find out whether there
         * are any more characters remaining.
         */
        data = IORD_ALTERA_AVALON_JTAG_UART_DATA(base);
1000f8cc:	e0bffc17 	ldw	r2,-16(fp)
1000f8d0:	10800037 	ldwio	r2,0(r2)
1000f8d4:	e0bff915 	stw	r2,-28(fp)
        
        if ((data & ALTERA_AVALON_JTAG_UART_DATA_RVALID_MSK) == 0)
1000f8d8:	e0bff917 	ldw	r2,-28(fp)
1000f8dc:	10a0000c 	andi	r2,r2,32768
1000f8e0:	1000011e 	bne	r2,zero,1000f8e8 <altera_avalon_jtag_uart_irq+0x9c>
          break;
1000f8e4:	00000f06 	br	1000f924 <altera_avalon_jtag_uart_irq+0xd8>

        sp->rx_buf[sp->rx_in] = (data & ALTERA_AVALON_JTAG_UART_DATA_DATA_MSK) >> ALTERA_AVALON_JTAG_UART_DATA_DATA_OFST;
1000f8e8:	e0bffb17 	ldw	r2,-20(fp)
1000f8ec:	10800a17 	ldw	r2,40(r2)
1000f8f0:	e0fff917 	ldw	r3,-28(fp)
1000f8f4:	1809883a 	mov	r4,r3
1000f8f8:	e0fffb17 	ldw	r3,-20(fp)
1000f8fc:	1885883a 	add	r2,r3,r2
1000f900:	10800e04 	addi	r2,r2,56
1000f904:	11000005 	stb	r4,0(r2)
        sp->rx_in = (sp->rx_in + 1) % ALTERA_AVALON_JTAG_UART_BUF_LEN;
1000f908:	e0bffb17 	ldw	r2,-20(fp)
1000f90c:	10800a17 	ldw	r2,40(r2)
1000f910:	10800044 	addi	r2,r2,1
1000f914:	10c1ffcc 	andi	r3,r2,2047
1000f918:	e0bffb17 	ldw	r2,-20(fp)
1000f91c:	10c00a15 	stw	r3,40(r2)

        /* Post an event to notify jtag_uart_read that a character has been read */
        ALT_FLAG_POST (sp->events, ALT_JTAG_UART_READ_RDY, OS_FLAG_SET);
      }
1000f920:	003fe006 	br	1000f8a4 <__alt_data_end+0xf800f8a4>

      if (data & ALTERA_AVALON_JTAG_UART_DATA_RAVAIL_MSK)
1000f924:	e0bff917 	ldw	r2,-28(fp)
1000f928:	10bfffec 	andhi	r2,r2,65535
1000f92c:	10000f26 	beq	r2,zero,1000f96c <altera_avalon_jtag_uart_irq+0x120>
      {
        /* If there is still data available here then the buffer is full 
         * so turn off receive interrupts until some space becomes available.
         */
        sp->irq_enable &= ~ALTERA_AVALON_JTAG_UART_CONTROL_RE_MSK;
1000f930:	e0bffb17 	ldw	r2,-20(fp)
1000f934:	10c00817 	ldw	r3,32(r2)
1000f938:	00bfff84 	movi	r2,-2
1000f93c:	1886703a 	and	r3,r3,r2
1000f940:	e0bffb17 	ldw	r2,-20(fp)
1000f944:	10c00815 	stw	r3,32(r2)
        IOWR_ALTERA_AVALON_JTAG_UART_CONTROL(base, sp->irq_enable);
1000f948:	e0bffc17 	ldw	r2,-16(fp)
1000f94c:	10800104 	addi	r2,r2,4
1000f950:	1007883a 	mov	r3,r2
1000f954:	e0bffb17 	ldw	r2,-20(fp)
1000f958:	10800817 	ldw	r2,32(r2)
1000f95c:	18800035 	stwio	r2,0(r3)
        
        /* Dummy read to ensure IRQ is cleared prior to ISR completion */
        IORD_ALTERA_AVALON_JTAG_UART_CONTROL(base);
1000f960:	e0bffc17 	ldw	r2,-16(fp)
1000f964:	10800104 	addi	r2,r2,4
1000f968:	10800037 	ldwio	r2,0(r2)
      }
    }

    if (control & ALTERA_AVALON_JTAG_UART_CONTROL_WI_MSK)
1000f96c:	e0bffd17 	ldw	r2,-12(fp)
1000f970:	1080800c 	andi	r2,r2,512
1000f974:	10003126 	beq	r2,zero,1000fa3c <altera_avalon_jtag_uart_irq+0x1f0>
    {
      /* process a write irq */
      unsigned int space = (control & ALTERA_AVALON_JTAG_UART_CONTROL_WSPACE_MSK) >> ALTERA_AVALON_JTAG_UART_CONTROL_WSPACE_OFST;
1000f978:	e0bffd17 	ldw	r2,-12(fp)
1000f97c:	1004d43a 	srli	r2,r2,16
1000f980:	e0bffa15 	stw	r2,-24(fp)

      while (space > 0 && sp->tx_out != sp->tx_in)
1000f984:	00001406 	br	1000f9d8 <altera_avalon_jtag_uart_irq+0x18c>
      {
        IOWR_ALTERA_AVALON_JTAG_UART_DATA(base, sp->tx_buf[sp->tx_out]);
1000f988:	e0bffc17 	ldw	r2,-16(fp)
1000f98c:	e0fffb17 	ldw	r3,-20(fp)
1000f990:	18c00d17 	ldw	r3,52(r3)
1000f994:	e13ffb17 	ldw	r4,-20(fp)
1000f998:	20c7883a 	add	r3,r4,r3
1000f99c:	18c20e04 	addi	r3,r3,2104
1000f9a0:	18c00003 	ldbu	r3,0(r3)
1000f9a4:	18c03fcc 	andi	r3,r3,255
1000f9a8:	18c0201c 	xori	r3,r3,128
1000f9ac:	18ffe004 	addi	r3,r3,-128
1000f9b0:	10c00035 	stwio	r3,0(r2)

        sp->tx_out = (sp->tx_out + 1) % ALTERA_AVALON_JTAG_UART_BUF_LEN;
1000f9b4:	e0bffb17 	ldw	r2,-20(fp)
1000f9b8:	10800d17 	ldw	r2,52(r2)
1000f9bc:	10800044 	addi	r2,r2,1
1000f9c0:	10c1ffcc 	andi	r3,r2,2047
1000f9c4:	e0bffb17 	ldw	r2,-20(fp)
1000f9c8:	10c00d15 	stw	r3,52(r2)

        /* Post an event to notify jtag_uart_write that a character has been written */
        ALT_FLAG_POST (sp->events, ALT_JTAG_UART_WRITE_RDY, OS_FLAG_SET);

        space--;
1000f9cc:	e0bffa17 	ldw	r2,-24(fp)
1000f9d0:	10bfffc4 	addi	r2,r2,-1
1000f9d4:	e0bffa15 	stw	r2,-24(fp)
    if (control & ALTERA_AVALON_JTAG_UART_CONTROL_WI_MSK)
    {
      /* process a write irq */
      unsigned int space = (control & ALTERA_AVALON_JTAG_UART_CONTROL_WSPACE_MSK) >> ALTERA_AVALON_JTAG_UART_CONTROL_WSPACE_OFST;

      while (space > 0 && sp->tx_out != sp->tx_in)
1000f9d8:	e0bffa17 	ldw	r2,-24(fp)
1000f9dc:	10000526 	beq	r2,zero,1000f9f4 <altera_avalon_jtag_uart_irq+0x1a8>
1000f9e0:	e0bffb17 	ldw	r2,-20(fp)
1000f9e4:	10c00d17 	ldw	r3,52(r2)
1000f9e8:	e0bffb17 	ldw	r2,-20(fp)
1000f9ec:	10800c17 	ldw	r2,48(r2)
1000f9f0:	18bfe51e 	bne	r3,r2,1000f988 <__alt_data_end+0xf800f988>
        ALT_FLAG_POST (sp->events, ALT_JTAG_UART_WRITE_RDY, OS_FLAG_SET);

        space--;
      }

      if (space > 0)
1000f9f4:	e0bffa17 	ldw	r2,-24(fp)
1000f9f8:	10001026 	beq	r2,zero,1000fa3c <altera_avalon_jtag_uart_irq+0x1f0>
      {
        /* If we don't have any more data available then turn off the TX interrupt */
        sp->irq_enable &= ~ALTERA_AVALON_JTAG_UART_CONTROL_WE_MSK;
1000f9fc:	e0bffb17 	ldw	r2,-20(fp)
1000fa00:	10c00817 	ldw	r3,32(r2)
1000fa04:	00bfff44 	movi	r2,-3
1000fa08:	1886703a 	and	r3,r3,r2
1000fa0c:	e0bffb17 	ldw	r2,-20(fp)
1000fa10:	10c00815 	stw	r3,32(r2)
        IOWR_ALTERA_AVALON_JTAG_UART_CONTROL(sp->base, sp->irq_enable);
1000fa14:	e0bffb17 	ldw	r2,-20(fp)
1000fa18:	10800017 	ldw	r2,0(r2)
1000fa1c:	10800104 	addi	r2,r2,4
1000fa20:	1007883a 	mov	r3,r2
1000fa24:	e0bffb17 	ldw	r2,-20(fp)
1000fa28:	10800817 	ldw	r2,32(r2)
1000fa2c:	18800035 	stwio	r2,0(r3)
        
        /* Dummy read to ensure IRQ is cleared prior to ISR completion */
        IORD_ALTERA_AVALON_JTAG_UART_CONTROL(base);
1000fa30:	e0bffc17 	ldw	r2,-16(fp)
1000fa34:	10800104 	addi	r2,r2,4
1000fa38:	10800037 	ldwio	r2,0(r2)
      }
    }
  }
1000fa3c:	003f8c06 	br	1000f870 <__alt_data_end+0xf800f870>
}
1000fa40:	e037883a 	mov	sp,fp
1000fa44:	df000017 	ldw	fp,0(sp)
1000fa48:	dec00104 	addi	sp,sp,4
1000fa4c:	f800283a 	ret

1000fa50 <altera_avalon_jtag_uart_timeout>:
 * Timeout routine is called every second
 */

static alt_u32 
altera_avalon_jtag_uart_timeout(void* context) 
{
1000fa50:	defff804 	addi	sp,sp,-32
1000fa54:	df000715 	stw	fp,28(sp)
1000fa58:	df000704 	addi	fp,sp,28
1000fa5c:	e13ffb15 	stw	r4,-20(fp)
  altera_avalon_jtag_uart_state* sp = (altera_avalon_jtag_uart_state *) context;
1000fa60:	e0bffb17 	ldw	r2,-20(fp)
1000fa64:	e0bff915 	stw	r2,-28(fp)

  unsigned int control = IORD_ALTERA_AVALON_JTAG_UART_CONTROL(sp->base);
1000fa68:	e0bff917 	ldw	r2,-28(fp)
1000fa6c:	10800017 	ldw	r2,0(r2)
1000fa70:	10800104 	addi	r2,r2,4
1000fa74:	10800037 	ldwio	r2,0(r2)
1000fa78:	e0bffa15 	stw	r2,-24(fp)

  if (control & ALTERA_AVALON_JTAG_UART_CONTROL_AC_MSK)
1000fa7c:	e0bffa17 	ldw	r2,-24(fp)
1000fa80:	1081000c 	andi	r2,r2,1024
1000fa84:	10000b26 	beq	r2,zero,1000fab4 <altera_avalon_jtag_uart_timeout+0x64>
  {
    IOWR_ALTERA_AVALON_JTAG_UART_CONTROL(sp->base, sp->irq_enable | ALTERA_AVALON_JTAG_UART_CONTROL_AC_MSK);
1000fa88:	e0bff917 	ldw	r2,-28(fp)
1000fa8c:	10800017 	ldw	r2,0(r2)
1000fa90:	10800104 	addi	r2,r2,4
1000fa94:	1007883a 	mov	r3,r2
1000fa98:	e0bff917 	ldw	r2,-28(fp)
1000fa9c:	10800817 	ldw	r2,32(r2)
1000faa0:	10810014 	ori	r2,r2,1024
1000faa4:	18800035 	stwio	r2,0(r3)
    sp->host_inactive = 0;
1000faa8:	e0bff917 	ldw	r2,-28(fp)
1000faac:	10000915 	stw	zero,36(r2)
1000fab0:	00000a06 	br	1000fadc <altera_avalon_jtag_uart_timeout+0x8c>
  }
  else if (sp->host_inactive < INT_MAX - 2) {
1000fab4:	e0bff917 	ldw	r2,-28(fp)
1000fab8:	10c00917 	ldw	r3,36(r2)
1000fabc:	00a00034 	movhi	r2,32768
1000fac0:	10bfff04 	addi	r2,r2,-4
1000fac4:	10c00536 	bltu	r2,r3,1000fadc <altera_avalon_jtag_uart_timeout+0x8c>
    sp->host_inactive++;
1000fac8:	e0bff917 	ldw	r2,-28(fp)
1000facc:	10800917 	ldw	r2,36(r2)
1000fad0:	10c00044 	addi	r3,r2,1
1000fad4:	e0bff917 	ldw	r2,-28(fp)
1000fad8:	10c00915 	stw	r3,36(r2)
1000fadc:	00840074 	movhi	r2,4097
1000fae0:	10951004 	addi	r2,r2,21568
1000fae4:	10800017 	ldw	r2,0(r2)
      ALT_FLAG_POST (sp->events, ALT_JTAG_UART_TIMEOUT, OS_FLAG_SET);
    }
  }

  return alt_ticks_per_second();
}
1000fae8:	e037883a 	mov	sp,fp
1000faec:	df000017 	ldw	fp,0(sp)
1000faf0:	dec00104 	addi	sp,sp,4
1000faf4:	f800283a 	ret

1000faf8 <altera_avalon_jtag_uart_close>:
 * The close routine is not implemented for the small driver; instead it will
 * map to null. This is because the small driver simply waits while characters
 * are transmitted; there is no interrupt-serviced buffer to empty 
 */
int altera_avalon_jtag_uart_close(altera_avalon_jtag_uart_state* sp, int flags)
{
1000faf8:	defffd04 	addi	sp,sp,-12
1000fafc:	df000215 	stw	fp,8(sp)
1000fb00:	df000204 	addi	fp,sp,8
1000fb04:	e13ffe15 	stw	r4,-8(fp)
1000fb08:	e17fff15 	stw	r5,-4(fp)
  /* 
   * Wait for all transmit data to be emptied by the JTAG UART ISR, or
   * for a host-inactivity timeout, in which case transmit data will be lost
   */
  while ( (sp->tx_out != sp->tx_in) && (sp->host_inactive < sp->timeout) ) {
1000fb0c:	00000506 	br	1000fb24 <altera_avalon_jtag_uart_close+0x2c>
    if (flags & O_NONBLOCK) {
1000fb10:	e0bfff17 	ldw	r2,-4(fp)
1000fb14:	1090000c 	andi	r2,r2,16384
1000fb18:	10000226 	beq	r2,zero,1000fb24 <altera_avalon_jtag_uart_close+0x2c>
      return -EWOULDBLOCK; 
1000fb1c:	00bffd44 	movi	r2,-11
1000fb20:	00000b06 	br	1000fb50 <altera_avalon_jtag_uart_close+0x58>
{
  /* 
   * Wait for all transmit data to be emptied by the JTAG UART ISR, or
   * for a host-inactivity timeout, in which case transmit data will be lost
   */
  while ( (sp->tx_out != sp->tx_in) && (sp->host_inactive < sp->timeout) ) {
1000fb24:	e0bffe17 	ldw	r2,-8(fp)
1000fb28:	10c00d17 	ldw	r3,52(r2)
1000fb2c:	e0bffe17 	ldw	r2,-8(fp)
1000fb30:	10800c17 	ldw	r2,48(r2)
1000fb34:	18800526 	beq	r3,r2,1000fb4c <altera_avalon_jtag_uart_close+0x54>
1000fb38:	e0bffe17 	ldw	r2,-8(fp)
1000fb3c:	10c00917 	ldw	r3,36(r2)
1000fb40:	e0bffe17 	ldw	r2,-8(fp)
1000fb44:	10800117 	ldw	r2,4(r2)
1000fb48:	18bff136 	bltu	r3,r2,1000fb10 <__alt_data_end+0xf800fb10>
    if (flags & O_NONBLOCK) {
      return -EWOULDBLOCK; 
    }
  }

  return 0;
1000fb4c:	0005883a 	mov	r2,zero
}
1000fb50:	e037883a 	mov	sp,fp
1000fb54:	df000017 	ldw	fp,0(sp)
1000fb58:	dec00104 	addi	sp,sp,4
1000fb5c:	f800283a 	ret

1000fb60 <altera_avalon_jtag_uart_ioctl>:
/* ----------------------------------------------------------- */

int 
altera_avalon_jtag_uart_ioctl(altera_avalon_jtag_uart_state* sp, int req,
  void* arg)
{
1000fb60:	defffa04 	addi	sp,sp,-24
1000fb64:	df000515 	stw	fp,20(sp)
1000fb68:	df000504 	addi	fp,sp,20
1000fb6c:	e13ffd15 	stw	r4,-12(fp)
1000fb70:	e17ffe15 	stw	r5,-8(fp)
1000fb74:	e1bfff15 	stw	r6,-4(fp)
  int rc = -ENOTTY;
1000fb78:	00bff9c4 	movi	r2,-25
1000fb7c:	e0bffb15 	stw	r2,-20(fp)

  switch (req)
1000fb80:	e0bffe17 	ldw	r2,-8(fp)
1000fb84:	10da8060 	cmpeqi	r3,r2,27137
1000fb88:	1800031e 	bne	r3,zero,1000fb98 <altera_avalon_jtag_uart_ioctl+0x38>
1000fb8c:	109a80a0 	cmpeqi	r2,r2,27138
1000fb90:	1000191e 	bne	r2,zero,1000fbf8 <altera_avalon_jtag_uart_ioctl+0x98>
      rc = 0;
    }
    break;

  default:
    break;
1000fb94:	00002806 	br	1000fc38 <altera_avalon_jtag_uart_ioctl+0xd8>

  switch (req)
  {
  case TIOCSTIMEOUT:
    /* Set the time to wait until assuming host is not connected */
    if (sp->timeout != INT_MAX)
1000fb98:	e0bffd17 	ldw	r2,-12(fp)
1000fb9c:	10c00117 	ldw	r3,4(r2)
1000fba0:	00a00034 	movhi	r2,32768
1000fba4:	10bfffc4 	addi	r2,r2,-1
1000fba8:	18801226 	beq	r3,r2,1000fbf4 <altera_avalon_jtag_uart_ioctl+0x94>
    {
      int timeout = *((int *)arg);
1000fbac:	e0bfff17 	ldw	r2,-4(fp)
1000fbb0:	10800017 	ldw	r2,0(r2)
1000fbb4:	e0bffc15 	stw	r2,-16(fp)
      sp->timeout = (timeout >= 2 && timeout < INT_MAX) ? timeout : INT_MAX - 1;
1000fbb8:	e0bffc17 	ldw	r2,-16(fp)
1000fbbc:	10800090 	cmplti	r2,r2,2
1000fbc0:	1000061e 	bne	r2,zero,1000fbdc <altera_avalon_jtag_uart_ioctl+0x7c>
1000fbc4:	e0fffc17 	ldw	r3,-16(fp)
1000fbc8:	00a00034 	movhi	r2,32768
1000fbcc:	10bfffc4 	addi	r2,r2,-1
1000fbd0:	18800226 	beq	r3,r2,1000fbdc <altera_avalon_jtag_uart_ioctl+0x7c>
1000fbd4:	e0bffc17 	ldw	r2,-16(fp)
1000fbd8:	00000206 	br	1000fbe4 <altera_avalon_jtag_uart_ioctl+0x84>
1000fbdc:	00a00034 	movhi	r2,32768
1000fbe0:	10bfff84 	addi	r2,r2,-2
1000fbe4:	e0fffd17 	ldw	r3,-12(fp)
1000fbe8:	18800115 	stw	r2,4(r3)
      rc = 0;
1000fbec:	e03ffb15 	stw	zero,-20(fp)
    }
    break;
1000fbf0:	00001106 	br	1000fc38 <altera_avalon_jtag_uart_ioctl+0xd8>
1000fbf4:	00001006 	br	1000fc38 <altera_avalon_jtag_uart_ioctl+0xd8>

  case TIOCGCONNECTED:
    /* Find out whether host is connected */
    if (sp->timeout != INT_MAX)
1000fbf8:	e0bffd17 	ldw	r2,-12(fp)
1000fbfc:	10c00117 	ldw	r3,4(r2)
1000fc00:	00a00034 	movhi	r2,32768
1000fc04:	10bfffc4 	addi	r2,r2,-1
1000fc08:	18800a26 	beq	r3,r2,1000fc34 <altera_avalon_jtag_uart_ioctl+0xd4>
    {
      *((int *)arg) = (sp->host_inactive < sp->timeout) ? 1 : 0;
1000fc0c:	e0bffd17 	ldw	r2,-12(fp)
1000fc10:	10c00917 	ldw	r3,36(r2)
1000fc14:	e0bffd17 	ldw	r2,-12(fp)
1000fc18:	10800117 	ldw	r2,4(r2)
1000fc1c:	1885803a 	cmpltu	r2,r3,r2
1000fc20:	10c03fcc 	andi	r3,r2,255
1000fc24:	e0bfff17 	ldw	r2,-4(fp)
1000fc28:	10c00015 	stw	r3,0(r2)
      rc = 0;
1000fc2c:	e03ffb15 	stw	zero,-20(fp)
    }
    break;
1000fc30:	00000006 	br	1000fc34 <altera_avalon_jtag_uart_ioctl+0xd4>
1000fc34:	0001883a 	nop

  default:
    break;
  }

  return rc;
1000fc38:	e0bffb17 	ldw	r2,-20(fp)
}
1000fc3c:	e037883a 	mov	sp,fp
1000fc40:	df000017 	ldw	fp,0(sp)
1000fc44:	dec00104 	addi	sp,sp,4
1000fc48:	f800283a 	ret

1000fc4c <altera_avalon_jtag_uart_read>:
/* ----------------------------------------------------------- */

int 
altera_avalon_jtag_uart_read(altera_avalon_jtag_uart_state* sp, 
  char * buffer, int space, int flags)
{
1000fc4c:	defff304 	addi	sp,sp,-52
1000fc50:	dfc00c15 	stw	ra,48(sp)
1000fc54:	df000b15 	stw	fp,44(sp)
1000fc58:	df000b04 	addi	fp,sp,44
1000fc5c:	e13ffc15 	stw	r4,-16(fp)
1000fc60:	e17ffd15 	stw	r5,-12(fp)
1000fc64:	e1bffe15 	stw	r6,-8(fp)
1000fc68:	e1ffff15 	stw	r7,-4(fp)
  char * ptr = buffer;
1000fc6c:	e0bffd17 	ldw	r2,-12(fp)
1000fc70:	e0bff515 	stw	r2,-44(fp)
   * When running in a multi threaded environment, obtain the "read_lock"
   * semaphore. This ensures that reading from the device is thread-safe.
   */
  ALT_SEM_PEND (sp->read_lock, 0);

  while (space > 0)
1000fc74:	00004906 	br	1000fd9c <altera_avalon_jtag_uart_read+0x150>
    unsigned int in, out;

    /* Read as much data as possible */
    do
    {
      in  = sp->rx_in;
1000fc78:	e0bffc17 	ldw	r2,-16(fp)
1000fc7c:	10800a17 	ldw	r2,40(r2)
1000fc80:	e0bff715 	stw	r2,-36(fp)
      out = sp->rx_out;
1000fc84:	e0bffc17 	ldw	r2,-16(fp)
1000fc88:	10800b17 	ldw	r2,44(r2)
1000fc8c:	e0bff815 	stw	r2,-32(fp)

      if (in >= out)
1000fc90:	e0fff717 	ldw	r3,-36(fp)
1000fc94:	e0bff817 	ldw	r2,-32(fp)
1000fc98:	18800536 	bltu	r3,r2,1000fcb0 <altera_avalon_jtag_uart_read+0x64>
        n = in - out;
1000fc9c:	e0fff717 	ldw	r3,-36(fp)
1000fca0:	e0bff817 	ldw	r2,-32(fp)
1000fca4:	1885c83a 	sub	r2,r3,r2
1000fca8:	e0bff615 	stw	r2,-40(fp)
1000fcac:	00000406 	br	1000fcc0 <altera_avalon_jtag_uart_read+0x74>
      else
        n = ALTERA_AVALON_JTAG_UART_BUF_LEN - out;
1000fcb0:	00c20004 	movi	r3,2048
1000fcb4:	e0bff817 	ldw	r2,-32(fp)
1000fcb8:	1885c83a 	sub	r2,r3,r2
1000fcbc:	e0bff615 	stw	r2,-40(fp)

      if (n == 0)
1000fcc0:	e0bff617 	ldw	r2,-40(fp)
1000fcc4:	1000011e 	bne	r2,zero,1000fccc <altera_avalon_jtag_uart_read+0x80>
        break; /* No more data available */
1000fcc8:	00001d06 	br	1000fd40 <altera_avalon_jtag_uart_read+0xf4>

      if (n > space)
1000fccc:	e0fffe17 	ldw	r3,-8(fp)
1000fcd0:	e0bff617 	ldw	r2,-40(fp)
1000fcd4:	1880022e 	bgeu	r3,r2,1000fce0 <altera_avalon_jtag_uart_read+0x94>
        n = space;
1000fcd8:	e0bffe17 	ldw	r2,-8(fp)
1000fcdc:	e0bff615 	stw	r2,-40(fp)

      memcpy(ptr, sp->rx_buf + out, n);
1000fce0:	e0bff817 	ldw	r2,-32(fp)
1000fce4:	10800e04 	addi	r2,r2,56
1000fce8:	e0fffc17 	ldw	r3,-16(fp)
1000fcec:	1885883a 	add	r2,r3,r2
1000fcf0:	e13ff517 	ldw	r4,-44(fp)
1000fcf4:	100b883a 	mov	r5,r2
1000fcf8:	e1bff617 	ldw	r6,-40(fp)
1000fcfc:	0007ab00 	call	10007ab0 <memcpy>
      ptr   += n;
1000fd00:	e0fff517 	ldw	r3,-44(fp)
1000fd04:	e0bff617 	ldw	r2,-40(fp)
1000fd08:	1885883a 	add	r2,r3,r2
1000fd0c:	e0bff515 	stw	r2,-44(fp)
      space -= n;
1000fd10:	e0fffe17 	ldw	r3,-8(fp)
1000fd14:	e0bff617 	ldw	r2,-40(fp)
1000fd18:	1885c83a 	sub	r2,r3,r2
1000fd1c:	e0bffe15 	stw	r2,-8(fp)

      sp->rx_out = (out + n) % ALTERA_AVALON_JTAG_UART_BUF_LEN;
1000fd20:	e0fff817 	ldw	r3,-32(fp)
1000fd24:	e0bff617 	ldw	r2,-40(fp)
1000fd28:	1885883a 	add	r2,r3,r2
1000fd2c:	10c1ffcc 	andi	r3,r2,2047
1000fd30:	e0bffc17 	ldw	r2,-16(fp)
1000fd34:	10c00b15 	stw	r3,44(r2)
    }
    while (space > 0);
1000fd38:	e0bffe17 	ldw	r2,-8(fp)
1000fd3c:	00bfce16 	blt	zero,r2,1000fc78 <__alt_data_end+0xf800fc78>

    /* If we read any data then return it */
    if (ptr != buffer)
1000fd40:	e0fff517 	ldw	r3,-44(fp)
1000fd44:	e0bffd17 	ldw	r2,-12(fp)
1000fd48:	18800126 	beq	r3,r2,1000fd50 <altera_avalon_jtag_uart_read+0x104>
      break;
1000fd4c:	00001506 	br	1000fda4 <altera_avalon_jtag_uart_read+0x158>

    /* If in non-blocking mode then return error */
    if (flags & O_NONBLOCK)
1000fd50:	e0bfff17 	ldw	r2,-4(fp)
1000fd54:	1090000c 	andi	r2,r2,16384
1000fd58:	10000126 	beq	r2,zero,1000fd60 <altera_avalon_jtag_uart_read+0x114>
      break;
1000fd5c:	00001106 	br	1000fda4 <altera_avalon_jtag_uart_read+0x158>
      while (in == sp->rx_in && sp->host_inactive < sp->timeout)
        ;
    }
#else
    /* No OS: Always spin */
    while (in == sp->rx_in && sp->host_inactive < sp->timeout)
1000fd60:	0001883a 	nop
1000fd64:	e0bffc17 	ldw	r2,-16(fp)
1000fd68:	10c00a17 	ldw	r3,40(r2)
1000fd6c:	e0bff717 	ldw	r2,-36(fp)
1000fd70:	1880051e 	bne	r3,r2,1000fd88 <altera_avalon_jtag_uart_read+0x13c>
1000fd74:	e0bffc17 	ldw	r2,-16(fp)
1000fd78:	10c00917 	ldw	r3,36(r2)
1000fd7c:	e0bffc17 	ldw	r2,-16(fp)
1000fd80:	10800117 	ldw	r2,4(r2)
1000fd84:	18bff736 	bltu	r3,r2,1000fd64 <__alt_data_end+0xf800fd64>
      ;
#endif /* __ucosii__ */

    if (in == sp->rx_in)
1000fd88:	e0bffc17 	ldw	r2,-16(fp)
1000fd8c:	10c00a17 	ldw	r3,40(r2)
1000fd90:	e0bff717 	ldw	r2,-36(fp)
1000fd94:	1880011e 	bne	r3,r2,1000fd9c <altera_avalon_jtag_uart_read+0x150>
      break;
1000fd98:	00000206 	br	1000fda4 <altera_avalon_jtag_uart_read+0x158>
   * When running in a multi threaded environment, obtain the "read_lock"
   * semaphore. This ensures that reading from the device is thread-safe.
   */
  ALT_SEM_PEND (sp->read_lock, 0);

  while (space > 0)
1000fd9c:	e0bffe17 	ldw	r2,-8(fp)
1000fda0:	00bfb516 	blt	zero,r2,1000fc78 <__alt_data_end+0xf800fc78>
   * semaphore so that other threads can access the buffer.
   */

  ALT_SEM_POST (sp->read_lock);

  if (ptr != buffer)
1000fda4:	e0fff517 	ldw	r3,-44(fp)
1000fda8:	e0bffd17 	ldw	r2,-12(fp)
1000fdac:	18801826 	beq	r3,r2,1000fe10 <altera_avalon_jtag_uart_read+0x1c4>
static ALT_INLINE alt_irq_context ALT_ALWAYS_INLINE 
       alt_irq_disable_all (void)
{
  alt_irq_context context;

  NIOS2_READ_STATUS (context);
1000fdb0:	0005303a 	rdctl	r2,status
1000fdb4:	e0bffa15 	stw	r2,-24(fp)

  NIOS2_WRITE_STATUS (context & ~NIOS2_STATUS_PIE_MSK);
1000fdb8:	e0fffa17 	ldw	r3,-24(fp)
1000fdbc:	00bfff84 	movi	r2,-2
1000fdc0:	1884703a 	and	r2,r3,r2
1000fdc4:	1001703a 	wrctl	status,r2
  
  return context;
1000fdc8:	e0bffa17 	ldw	r2,-24(fp)
  {
    /* If we read any data then there is space in the buffer so enable interrupts */
    context = alt_irq_disable_all();
1000fdcc:	e0bff915 	stw	r2,-28(fp)
    sp->irq_enable |= ALTERA_AVALON_JTAG_UART_CONTROL_RE_MSK;
1000fdd0:	e0bffc17 	ldw	r2,-16(fp)
1000fdd4:	10800817 	ldw	r2,32(r2)
1000fdd8:	10c00054 	ori	r3,r2,1
1000fddc:	e0bffc17 	ldw	r2,-16(fp)
1000fde0:	10c00815 	stw	r3,32(r2)
    IOWR_ALTERA_AVALON_JTAG_UART_CONTROL(sp->base, sp->irq_enable);
1000fde4:	e0bffc17 	ldw	r2,-16(fp)
1000fde8:	10800017 	ldw	r2,0(r2)
1000fdec:	10800104 	addi	r2,r2,4
1000fdf0:	1007883a 	mov	r3,r2
1000fdf4:	e0bffc17 	ldw	r2,-16(fp)
1000fdf8:	10800817 	ldw	r2,32(r2)
1000fdfc:	18800035 	stwio	r2,0(r3)
1000fe00:	e0bff917 	ldw	r2,-28(fp)
1000fe04:	e0bffb15 	stw	r2,-20(fp)
  status &= ~NIOS2_STATUS_PIE_MSK;
  status |= (context & NIOS2_STATUS_PIE_MSK);
  
  NIOS2_WRITE_STATUS (status);
#else
  NIOS2_WRITE_STATUS (context);
1000fe08:	e0bffb17 	ldw	r2,-20(fp)
1000fe0c:	1001703a 	wrctl	status,r2
    alt_irq_enable_all(context);
  }

  if (ptr != buffer)
1000fe10:	e0fff517 	ldw	r3,-44(fp)
1000fe14:	e0bffd17 	ldw	r2,-12(fp)
1000fe18:	18800426 	beq	r3,r2,1000fe2c <altera_avalon_jtag_uart_read+0x1e0>
    return ptr - buffer;
1000fe1c:	e0fff517 	ldw	r3,-44(fp)
1000fe20:	e0bffd17 	ldw	r2,-12(fp)
1000fe24:	1885c83a 	sub	r2,r3,r2
1000fe28:	00000606 	br	1000fe44 <altera_avalon_jtag_uart_read+0x1f8>
  else if (flags & O_NONBLOCK)
1000fe2c:	e0bfff17 	ldw	r2,-4(fp)
1000fe30:	1090000c 	andi	r2,r2,16384
1000fe34:	10000226 	beq	r2,zero,1000fe40 <altera_avalon_jtag_uart_read+0x1f4>
    return -EWOULDBLOCK;
1000fe38:	00bffd44 	movi	r2,-11
1000fe3c:	00000106 	br	1000fe44 <altera_avalon_jtag_uart_read+0x1f8>
  else
    return -EIO;
1000fe40:	00bffec4 	movi	r2,-5
}
1000fe44:	e037883a 	mov	sp,fp
1000fe48:	dfc00117 	ldw	ra,4(sp)
1000fe4c:	df000017 	ldw	fp,0(sp)
1000fe50:	dec00204 	addi	sp,sp,8
1000fe54:	f800283a 	ret

1000fe58 <altera_avalon_jtag_uart_write>:
/* ----------------------------------------------------------- */

int 
altera_avalon_jtag_uart_write(altera_avalon_jtag_uart_state* sp, 
  const char * ptr, int count, int flags)
{
1000fe58:	defff304 	addi	sp,sp,-52
1000fe5c:	dfc00c15 	stw	ra,48(sp)
1000fe60:	df000b15 	stw	fp,44(sp)
1000fe64:	df000b04 	addi	fp,sp,44
1000fe68:	e13ffc15 	stw	r4,-16(fp)
1000fe6c:	e17ffd15 	stw	r5,-12(fp)
1000fe70:	e1bffe15 	stw	r6,-8(fp)
1000fe74:	e1ffff15 	stw	r7,-4(fp)
  /* Remove warning at optimisation level 03 by seting out to 0 */
  unsigned int in, out=0;
1000fe78:	e03ff515 	stw	zero,-44(fp)
  unsigned int n;
  alt_irq_context context;

  const char * start = ptr;
1000fe7c:	e0bffd17 	ldw	r2,-12(fp)
1000fe80:	e0bff715 	stw	r2,-36(fp)
  ALT_SEM_PEND (sp->write_lock, 0);

  do
  {
    /* Copy as much as we can into the transmit buffer */
    while (count > 0)
1000fe84:	00003806 	br	1000ff68 <altera_avalon_jtag_uart_write+0x110>
    {
      /* We need a stable value of the out pointer to calculate the space available */
      in  = sp->tx_in;
1000fe88:	e0bffc17 	ldw	r2,-16(fp)
1000fe8c:	10800c17 	ldw	r2,48(r2)
1000fe90:	e0bff815 	stw	r2,-32(fp)
      out = sp->tx_out;
1000fe94:	e0bffc17 	ldw	r2,-16(fp)
1000fe98:	10800d17 	ldw	r2,52(r2)
1000fe9c:	e0bff515 	stw	r2,-44(fp)

      if (in < out)
1000fea0:	e0fff817 	ldw	r3,-32(fp)
1000fea4:	e0bff517 	ldw	r2,-44(fp)
1000fea8:	1880062e 	bgeu	r3,r2,1000fec4 <altera_avalon_jtag_uart_write+0x6c>
        n = out - 1 - in;
1000feac:	e0fff517 	ldw	r3,-44(fp)
1000feb0:	e0bff817 	ldw	r2,-32(fp)
1000feb4:	1885c83a 	sub	r2,r3,r2
1000feb8:	10bfffc4 	addi	r2,r2,-1
1000febc:	e0bff615 	stw	r2,-40(fp)
1000fec0:	00000b06 	br	1000fef0 <altera_avalon_jtag_uart_write+0x98>
      else if (out > 0)
1000fec4:	e0bff517 	ldw	r2,-44(fp)
1000fec8:	10000526 	beq	r2,zero,1000fee0 <altera_avalon_jtag_uart_write+0x88>
        n = ALTERA_AVALON_JTAG_UART_BUF_LEN - in;
1000fecc:	00c20004 	movi	r3,2048
1000fed0:	e0bff817 	ldw	r2,-32(fp)
1000fed4:	1885c83a 	sub	r2,r3,r2
1000fed8:	e0bff615 	stw	r2,-40(fp)
1000fedc:	00000406 	br	1000fef0 <altera_avalon_jtag_uart_write+0x98>
      else
        n = ALTERA_AVALON_JTAG_UART_BUF_LEN - 1 - in;
1000fee0:	00c1ffc4 	movi	r3,2047
1000fee4:	e0bff817 	ldw	r2,-32(fp)
1000fee8:	1885c83a 	sub	r2,r3,r2
1000feec:	e0bff615 	stw	r2,-40(fp)

      if (n == 0)
1000fef0:	e0bff617 	ldw	r2,-40(fp)
1000fef4:	1000011e 	bne	r2,zero,1000fefc <altera_avalon_jtag_uart_write+0xa4>
        break;
1000fef8:	00001d06 	br	1000ff70 <altera_avalon_jtag_uart_write+0x118>

      if (n > count)
1000fefc:	e0fffe17 	ldw	r3,-8(fp)
1000ff00:	e0bff617 	ldw	r2,-40(fp)
1000ff04:	1880022e 	bgeu	r3,r2,1000ff10 <altera_avalon_jtag_uart_write+0xb8>
        n = count;
1000ff08:	e0bffe17 	ldw	r2,-8(fp)
1000ff0c:	e0bff615 	stw	r2,-40(fp)

      memcpy(sp->tx_buf + in, ptr, n);
1000ff10:	e0bff817 	ldw	r2,-32(fp)
1000ff14:	10820e04 	addi	r2,r2,2104
1000ff18:	e0fffc17 	ldw	r3,-16(fp)
1000ff1c:	1885883a 	add	r2,r3,r2
1000ff20:	1009883a 	mov	r4,r2
1000ff24:	e17ffd17 	ldw	r5,-12(fp)
1000ff28:	e1bff617 	ldw	r6,-40(fp)
1000ff2c:	0007ab00 	call	10007ab0 <memcpy>
      ptr   += n;
1000ff30:	e0fffd17 	ldw	r3,-12(fp)
1000ff34:	e0bff617 	ldw	r2,-40(fp)
1000ff38:	1885883a 	add	r2,r3,r2
1000ff3c:	e0bffd15 	stw	r2,-12(fp)
      count -= n;
1000ff40:	e0fffe17 	ldw	r3,-8(fp)
1000ff44:	e0bff617 	ldw	r2,-40(fp)
1000ff48:	1885c83a 	sub	r2,r3,r2
1000ff4c:	e0bffe15 	stw	r2,-8(fp)

      sp->tx_in = (in + n) % ALTERA_AVALON_JTAG_UART_BUF_LEN;
1000ff50:	e0fff817 	ldw	r3,-32(fp)
1000ff54:	e0bff617 	ldw	r2,-40(fp)
1000ff58:	1885883a 	add	r2,r3,r2
1000ff5c:	10c1ffcc 	andi	r3,r2,2047
1000ff60:	e0bffc17 	ldw	r2,-16(fp)
1000ff64:	10c00c15 	stw	r3,48(r2)
  ALT_SEM_PEND (sp->write_lock, 0);

  do
  {
    /* Copy as much as we can into the transmit buffer */
    while (count > 0)
1000ff68:	e0bffe17 	ldw	r2,-8(fp)
1000ff6c:	00bfc616 	blt	zero,r2,1000fe88 <__alt_data_end+0xf800fe88>
static ALT_INLINE alt_irq_context ALT_ALWAYS_INLINE 
       alt_irq_disable_all (void)
{
  alt_irq_context context;

  NIOS2_READ_STATUS (context);
1000ff70:	0005303a 	rdctl	r2,status
1000ff74:	e0bffa15 	stw	r2,-24(fp)

  NIOS2_WRITE_STATUS (context & ~NIOS2_STATUS_PIE_MSK);
1000ff78:	e0fffa17 	ldw	r3,-24(fp)
1000ff7c:	00bfff84 	movi	r2,-2
1000ff80:	1884703a 	and	r2,r3,r2
1000ff84:	1001703a 	wrctl	status,r2
  
  return context;
1000ff88:	e0bffa17 	ldw	r2,-24(fp)
     * to enable interrupts if there is no space left in the FIFO
     *
     * For now kick the interrupt routine every time to make it transmit 
     * the data 
     */
    context = alt_irq_disable_all();
1000ff8c:	e0bff915 	stw	r2,-28(fp)
    sp->irq_enable |= ALTERA_AVALON_JTAG_UART_CONTROL_WE_MSK;
1000ff90:	e0bffc17 	ldw	r2,-16(fp)
1000ff94:	10800817 	ldw	r2,32(r2)
1000ff98:	10c00094 	ori	r3,r2,2
1000ff9c:	e0bffc17 	ldw	r2,-16(fp)
1000ffa0:	10c00815 	stw	r3,32(r2)
    IOWR_ALTERA_AVALON_JTAG_UART_CONTROL(sp->base, sp->irq_enable);
1000ffa4:	e0bffc17 	ldw	r2,-16(fp)
1000ffa8:	10800017 	ldw	r2,0(r2)
1000ffac:	10800104 	addi	r2,r2,4
1000ffb0:	1007883a 	mov	r3,r2
1000ffb4:	e0bffc17 	ldw	r2,-16(fp)
1000ffb8:	10800817 	ldw	r2,32(r2)
1000ffbc:	18800035 	stwio	r2,0(r3)
1000ffc0:	e0bff917 	ldw	r2,-28(fp)
1000ffc4:	e0bffb15 	stw	r2,-20(fp)
  status &= ~NIOS2_STATUS_PIE_MSK;
  status |= (context & NIOS2_STATUS_PIE_MSK);
  
  NIOS2_WRITE_STATUS (status);
#else
  NIOS2_WRITE_STATUS (context);
1000ffc8:	e0bffb17 	ldw	r2,-20(fp)
1000ffcc:	1001703a 	wrctl	status,r2
    /* 
     * If there is any data left then either return now or block until 
     * some has been sent 
     */
    /* consider: test whether there is anything there while doing this and delay for at most 2s. */
    if (count > 0)
1000ffd0:	e0bffe17 	ldw	r2,-8(fp)
1000ffd4:	0080120e 	bge	zero,r2,10010020 <altera_avalon_jtag_uart_write+0x1c8>
    {
      if (flags & O_NONBLOCK)
1000ffd8:	e0bfff17 	ldw	r2,-4(fp)
1000ffdc:	1090000c 	andi	r2,r2,16384
1000ffe0:	10000126 	beq	r2,zero,1000ffe8 <altera_avalon_jtag_uart_write+0x190>
        break;
1000ffe4:	00001006 	br	10010028 <altera_avalon_jtag_uart_write+0x1d0>
      /*
       * No OS present: Always wait for data to be removed from buffer.  Once
       * the interrupt routine has removed some data then we will be able to
       * insert some more.
       */
      while (out == sp->tx_out && sp->host_inactive < sp->timeout)
1000ffe8:	0001883a 	nop
1000ffec:	e0bffc17 	ldw	r2,-16(fp)
1000fff0:	10c00d17 	ldw	r3,52(r2)
1000fff4:	e0bff517 	ldw	r2,-44(fp)
1000fff8:	1880051e 	bne	r3,r2,10010010 <altera_avalon_jtag_uart_write+0x1b8>
1000fffc:	e0bffc17 	ldw	r2,-16(fp)
10010000:	10c00917 	ldw	r3,36(r2)
10010004:	e0bffc17 	ldw	r2,-16(fp)
10010008:	10800117 	ldw	r2,4(r2)
1001000c:	18bff736 	bltu	r3,r2,1000ffec <__alt_data_end+0xf800ffec>
        ;
#endif /* __ucosii__ */

      if  (sp->host_inactive)
10010010:	e0bffc17 	ldw	r2,-16(fp)
10010014:	10800917 	ldw	r2,36(r2)
10010018:	10000126 	beq	r2,zero,10010020 <altera_avalon_jtag_uart_write+0x1c8>
         break;
1001001c:	00000206 	br	10010028 <altera_avalon_jtag_uart_write+0x1d0>
    }
  }
  while (count > 0);
10010020:	e0bffe17 	ldw	r2,-8(fp)
10010024:	00bf9716 	blt	zero,r2,1000fe84 <__alt_data_end+0xf800fe84>
   * Now that access to the circular buffer is complete, release the write
   * semaphore so that other threads can access the buffer.
   */
  ALT_SEM_POST (sp->write_lock);

  if (ptr != start)
10010028:	e0fffd17 	ldw	r3,-12(fp)
1001002c:	e0bff717 	ldw	r2,-36(fp)
10010030:	18800426 	beq	r3,r2,10010044 <altera_avalon_jtag_uart_write+0x1ec>
    return ptr - start;
10010034:	e0fffd17 	ldw	r3,-12(fp)
10010038:	e0bff717 	ldw	r2,-36(fp)
1001003c:	1885c83a 	sub	r2,r3,r2
10010040:	00000606 	br	1001005c <altera_avalon_jtag_uart_write+0x204>
  else if (flags & O_NONBLOCK)
10010044:	e0bfff17 	ldw	r2,-4(fp)
10010048:	1090000c 	andi	r2,r2,16384
1001004c:	10000226 	beq	r2,zero,10010058 <altera_avalon_jtag_uart_write+0x200>
    return -EWOULDBLOCK;
10010050:	00bffd44 	movi	r2,-11
10010054:	00000106 	br	1001005c <altera_avalon_jtag_uart_write+0x204>
    sp->tx_out = sp->tx_in = 0;
    return ptr - start + count;
  }
#endif
  else
    return -EIO; /* Host not connected */
10010058:	00bffec4 	movi	r2,-5
}
1001005c:	e037883a 	mov	sp,fp
10010060:	dfc00117 	ldw	ra,4(sp)
10010064:	df000017 	ldw	fp,0(sp)
10010068:	dec00204 	addi	sp,sp,8
1001006c:	f800283a 	ret

10010070 <alt_alarm_start>:
 */ 

int alt_alarm_start (alt_alarm* alarm, alt_u32 nticks,
                     alt_u32 (*callback) (void* context),
                     void* context)
{
10010070:	defff504 	addi	sp,sp,-44
10010074:	df000a15 	stw	fp,40(sp)
10010078:	df000a04 	addi	fp,sp,40
1001007c:	e13ffc15 	stw	r4,-16(fp)
10010080:	e17ffd15 	stw	r5,-12(fp)
10010084:	e1bffe15 	stw	r6,-8(fp)
10010088:	e1ffff15 	stw	r7,-4(fp)
  alt_irq_context irq_context;
  alt_u32 current_nticks = 0;
1001008c:	e03ff615 	stw	zero,-40(fp)
10010090:	00840074 	movhi	r2,4097
10010094:	10951004 	addi	r2,r2,21568
10010098:	10800017 	ldw	r2,0(r2)
  
  if (alt_ticks_per_second ())
1001009c:	10003f26 	beq	r2,zero,1001019c <alt_alarm_start+0x12c>
  {
    if (alarm)
100100a0:	e0bffc17 	ldw	r2,-16(fp)
100100a4:	10003b26 	beq	r2,zero,10010194 <alt_alarm_start+0x124>
    {
      alarm->callback = callback;
100100a8:	e0bffc17 	ldw	r2,-16(fp)
100100ac:	e0fffe17 	ldw	r3,-8(fp)
100100b0:	10c00315 	stw	r3,12(r2)
      alarm->context  = context;
100100b4:	e0bffc17 	ldw	r2,-16(fp)
100100b8:	e0ffff17 	ldw	r3,-4(fp)
100100bc:	10c00515 	stw	r3,20(r2)
static ALT_INLINE alt_irq_context ALT_ALWAYS_INLINE 
       alt_irq_disable_all (void)
{
  alt_irq_context context;

  NIOS2_READ_STATUS (context);
100100c0:	0005303a 	rdctl	r2,status
100100c4:	e0bff815 	stw	r2,-32(fp)

  NIOS2_WRITE_STATUS (context & ~NIOS2_STATUS_PIE_MSK);
100100c8:	e0fff817 	ldw	r3,-32(fp)
100100cc:	00bfff84 	movi	r2,-2
100100d0:	1884703a 	and	r2,r3,r2
100100d4:	1001703a 	wrctl	status,r2
  
  return context;
100100d8:	e0bff817 	ldw	r2,-32(fp)
 
      irq_context = alt_irq_disable_all ();
100100dc:	e0bff715 	stw	r2,-36(fp)
 * alt_nticks() returns the elapsed number of system clock ticks since reset.
 */

static ALT_INLINE alt_u32 ALT_ALWAYS_INLINE alt_nticks (void)
{
  return _alt_nticks;
100100e0:	00840074 	movhi	r2,4097
100100e4:	10951104 	addi	r2,r2,21572
100100e8:	10800017 	ldw	r2,0(r2)
      
      current_nticks = alt_nticks();
100100ec:	e0bff615 	stw	r2,-40(fp)
      
      alarm->time = nticks + current_nticks + 1; 
100100f0:	e0fffd17 	ldw	r3,-12(fp)
100100f4:	e0bff617 	ldw	r2,-40(fp)
100100f8:	1885883a 	add	r2,r3,r2
100100fc:	10c00044 	addi	r3,r2,1
10010100:	e0bffc17 	ldw	r2,-16(fp)
10010104:	10c00215 	stw	r3,8(r2)
      /* 
       * If the desired alarm time causes a roll-over, set the rollover
       * flag. This will prevent the subsequent tick event from causing
       * an alarm too early.
       */
      if(alarm->time < current_nticks)
10010108:	e0bffc17 	ldw	r2,-16(fp)
1001010c:	10c00217 	ldw	r3,8(r2)
10010110:	e0bff617 	ldw	r2,-40(fp)
10010114:	1880042e 	bgeu	r3,r2,10010128 <alt_alarm_start+0xb8>
      {
        alarm->rollover = 1;
10010118:	e0bffc17 	ldw	r2,-16(fp)
1001011c:	00c00044 	movi	r3,1
10010120:	10c00405 	stb	r3,16(r2)
10010124:	00000206 	br	10010130 <alt_alarm_start+0xc0>
      }
      else
      {
        alarm->rollover = 0;
10010128:	e0bffc17 	ldw	r2,-16(fp)
1001012c:	10000405 	stb	zero,16(r2)
      }
    
      alt_llist_insert (&alt_alarm_list, &alarm->llist);
10010130:	e0fffc17 	ldw	r3,-16(fp)
10010134:	00840074 	movhi	r2,4097
10010138:	108e4604 	addi	r2,r2,14616
1001013c:	e0bff915 	stw	r2,-28(fp)
10010140:	e0fffa15 	stw	r3,-24(fp)
 */

static ALT_INLINE void ALT_ALWAYS_INLINE alt_llist_insert(alt_llist* list, 
                alt_llist* entry)
{
  entry->previous = list;
10010144:	e0bffa17 	ldw	r2,-24(fp)
10010148:	e0fff917 	ldw	r3,-28(fp)
1001014c:	10c00115 	stw	r3,4(r2)
  entry->next     = list->next;
10010150:	e0bff917 	ldw	r2,-28(fp)
10010154:	10c00017 	ldw	r3,0(r2)
10010158:	e0bffa17 	ldw	r2,-24(fp)
1001015c:	10c00015 	stw	r3,0(r2)

  list->next->previous = entry;
10010160:	e0bff917 	ldw	r2,-28(fp)
10010164:	10800017 	ldw	r2,0(r2)
10010168:	e0fffa17 	ldw	r3,-24(fp)
1001016c:	10c00115 	stw	r3,4(r2)
  list->next           = entry;
10010170:	e0bff917 	ldw	r2,-28(fp)
10010174:	e0fffa17 	ldw	r3,-24(fp)
10010178:	10c00015 	stw	r3,0(r2)
1001017c:	e0bff717 	ldw	r2,-36(fp)
10010180:	e0bffb15 	stw	r2,-20(fp)
  status &= ~NIOS2_STATUS_PIE_MSK;
  status |= (context & NIOS2_STATUS_PIE_MSK);
  
  NIOS2_WRITE_STATUS (status);
#else
  NIOS2_WRITE_STATUS (context);
10010184:	e0bffb17 	ldw	r2,-20(fp)
10010188:	1001703a 	wrctl	status,r2
      alt_irq_enable_all (irq_context);

      return 0;
1001018c:	0005883a 	mov	r2,zero
10010190:	00000306 	br	100101a0 <alt_alarm_start+0x130>
    }
    else
    {
      return -EINVAL;
10010194:	00bffa84 	movi	r2,-22
10010198:	00000106 	br	100101a0 <alt_alarm_start+0x130>
    }
  }
  else
  {
    return -ENOTSUP;
1001019c:	00bfde84 	movi	r2,-134
  }
}
100101a0:	e037883a 	mov	sp,fp
100101a4:	df000017 	ldw	fp,0(sp)
100101a8:	dec00104 	addi	sp,sp,4
100101ac:	f800283a 	ret

100101b0 <alt_busy_sleep>:
#include "alt_types.h"

#include "priv/alt_busy_sleep.h"

unsigned int alt_busy_sleep (unsigned int us)
{
100101b0:	defffa04 	addi	sp,sp,-24
100101b4:	dfc00515 	stw	ra,20(sp)
100101b8:	df000415 	stw	fp,16(sp)
100101bc:	df000404 	addi	fp,sp,16
100101c0:	e13fff15 	stw	r4,-4(fp)
  int big_loops;
  alt_u32 cycles_per_loop;
  
  if (!strcmp(NIOS2_CPU_IMPLEMENTATION,"tiny"))
  {
    cycles_per_loop = 9;
100101c4:	00800244 	movi	r2,9
100101c8:	e0bffd15 	stw	r2,-12(fp)
    cycles_per_loop = 3;
  }
  

  big_loops = us / (INT_MAX/
  (ALT_CPU_FREQ/(cycles_per_loop * 1000000)));
100101cc:	e13ffd17 	ldw	r4,-12(fp)
100101d0:	014003f4 	movhi	r5,15
100101d4:	29509004 	addi	r5,r5,16960
100101d8:	000c3280 	call	1000c328 <__mulsi3>
100101dc:	0100bef4 	movhi	r4,763
100101e0:	213c2004 	addi	r4,r4,-3968
100101e4:	100b883a 	mov	r5,r2
100101e8:	000c3180 	call	1000c318 <__udivsi3>
  {
    cycles_per_loop = 3;
  }
  

  big_loops = us / (INT_MAX/
100101ec:	01200034 	movhi	r4,32768
100101f0:	213fffc4 	addi	r4,r4,-1
100101f4:	100b883a 	mov	r5,r2
100101f8:	000c3180 	call	1000c318 <__udivsi3>
100101fc:	e13fff17 	ldw	r4,-4(fp)
10010200:	100b883a 	mov	r5,r2
10010204:	000c3180 	call	1000c318 <__udivsi3>
10010208:	e0bffe15 	stw	r2,-8(fp)
  (ALT_CPU_FREQ/(cycles_per_loop * 1000000)));

  if (big_loops)
1001020c:	e0bffe17 	ldw	r2,-8(fp)
10010210:	10002a26 	beq	r2,zero,100102bc <alt_busy_sleep+0x10c>
  {
    for(i=0;i<big_loops;i++)
10010214:	e03ffc15 	stw	zero,-16(fp)
10010218:	00001706 	br	10010278 <alt_busy_sleep+0xc8>
      /*
      * Do NOT Try to single step the asm statement below 
      * (single step will never return)
      * Step out of this function or set a breakpoint after the asm statements
      */
      __asm__ volatile (
1001021c:	00a00034 	movhi	r2,32768
10010220:	10bfffc4 	addi	r2,r2,-1
10010224:	10bfffc4 	addi	r2,r2,-1
10010228:	103ffe1e 	bne	r2,zero,10010224 <__alt_data_end+0xf8010224>
        "\n\t.pushsection .debug_alt_sim_info"
        "\n\t.int 4, 0, 0b, 1b"
        "\n\t.popsection"
        :: "r" (INT_MAX));
      us -= (INT_MAX/(ALT_CPU_FREQ/
      (cycles_per_loop * 1000000)));
1001022c:	e13ffd17 	ldw	r4,-12(fp)
10010230:	014003f4 	movhi	r5,15
10010234:	29509004 	addi	r5,r5,16960
10010238:	000c3280 	call	1000c328 <__mulsi3>
        "\n1:"
        "\n\t.pushsection .debug_alt_sim_info"
        "\n\t.int 4, 0, 0b, 1b"
        "\n\t.popsection"
        :: "r" (INT_MAX));
      us -= (INT_MAX/(ALT_CPU_FREQ/
1001023c:	0100bef4 	movhi	r4,763
10010240:	213c2004 	addi	r4,r4,-3968
10010244:	100b883a 	mov	r5,r2
10010248:	000c3180 	call	1000c318 <__udivsi3>
1001024c:	01200034 	movhi	r4,32768
10010250:	213fffc4 	addi	r4,r4,-1
10010254:	100b883a 	mov	r5,r2
10010258:	000c3180 	call	1000c318 <__udivsi3>
1001025c:	1007883a 	mov	r3,r2
10010260:	e0bfff17 	ldw	r2,-4(fp)
10010264:	10c5c83a 	sub	r2,r2,r3
10010268:	e0bfff15 	stw	r2,-4(fp)
  big_loops = us / (INT_MAX/
  (ALT_CPU_FREQ/(cycles_per_loop * 1000000)));

  if (big_loops)
  {
    for(i=0;i<big_loops;i++)
1001026c:	e0bffc17 	ldw	r2,-16(fp)
10010270:	10800044 	addi	r2,r2,1
10010274:	e0bffc15 	stw	r2,-16(fp)
10010278:	e0fffc17 	ldw	r3,-16(fp)
1001027c:	e0bffe17 	ldw	r2,-8(fp)
10010280:	18bfe616 	blt	r3,r2,1001021c <__alt_data_end+0xf801021c>
      "\n\tbne %0,zero,0b"
      "\n1:"
      "\n\t.pushsection .debug_alt_sim_info"
      "\n\t.int 4, 0, 0b, 1b"
      "\n\t.popsection"
      :: "r" (us*(ALT_CPU_FREQ/(cycles_per_loop * 1000000))));
10010284:	e13ffd17 	ldw	r4,-12(fp)
10010288:	014003f4 	movhi	r5,15
1001028c:	29509004 	addi	r5,r5,16960
10010290:	000c3280 	call	1000c328 <__mulsi3>
10010294:	0100bef4 	movhi	r4,763
10010298:	213c2004 	addi	r4,r4,-3968
1001029c:	100b883a 	mov	r5,r2
100102a0:	000c3180 	call	1000c318 <__udivsi3>
100102a4:	1009883a 	mov	r4,r2
100102a8:	e17fff17 	ldw	r5,-4(fp)
100102ac:	000c3280 	call	1000c328 <__mulsi3>
    /*
    * Do NOT Try to single step the asm statement below 
    * (single step will never return)
    * Step out of this function or set a breakpoint after the asm statements
    */
    __asm__ volatile (
100102b0:	10bfffc4 	addi	r2,r2,-1
100102b4:	103ffe1e 	bne	r2,zero,100102b0 <__alt_data_end+0xf80102b0>
100102b8:	00000d06 	br	100102f0 <alt_busy_sleep+0x140>
      "\n\tbgt %0,zero,0b"
      "\n1:"
      "\n\t.pushsection .debug_alt_sim_info"
      "\n\t.int 4, 0, 0b, 1b"
      "\n\t.popsection"
      :: "r" (us*(ALT_CPU_FREQ/(cycles_per_loop * 1000000))));
100102bc:	e13ffd17 	ldw	r4,-12(fp)
100102c0:	014003f4 	movhi	r5,15
100102c4:	29509004 	addi	r5,r5,16960
100102c8:	000c3280 	call	1000c328 <__mulsi3>
100102cc:	0100bef4 	movhi	r4,763
100102d0:	213c2004 	addi	r4,r4,-3968
100102d4:	100b883a 	mov	r5,r2
100102d8:	000c3180 	call	1000c318 <__udivsi3>
100102dc:	1009883a 	mov	r4,r2
100102e0:	e17fff17 	ldw	r5,-4(fp)
100102e4:	000c3280 	call	1000c328 <__mulsi3>
    /*
    * Do NOT Try to single step the asm statement below 
    * (single step will never return)
    * Step out of this function or set a breakpoint after the asm statements
    */
    __asm__ volatile (
100102e8:	10bfffc4 	addi	r2,r2,-1
100102ec:	00bffe16 	blt	zero,r2,100102e8 <__alt_data_end+0xf80102e8>
      "\n\t.int 4, 0, 0b, 1b"
      "\n\t.popsection"
      :: "r" (us*(ALT_CPU_FREQ/(cycles_per_loop * 1000000))));
  }
#endif /* #ifndef ALT_SIM_OPTIMIZE */
  return 0;
100102f0:	0005883a 	mov	r2,zero
}
100102f4:	e037883a 	mov	sp,fp
100102f8:	dfc00117 	ldw	ra,4(sp)
100102fc:	df000017 	ldw	fp,0(sp)
10010300:	dec00204 	addi	sp,sp,8
10010304:	f800283a 	ret

10010308 <alt_dcache_flush_all>:
/*
 * alt_dcache_flush_all() is called to flush the entire data cache.
 */

void alt_dcache_flush_all (void)
{
10010308:	deffff04 	addi	sp,sp,-4
1001030c:	df000015 	stw	fp,0(sp)
10010310:	d839883a 	mov	fp,sp
  for (i = (char*) 0; i < (char*) NIOS2_DCACHE_SIZE; i+= NIOS2_DCACHE_LINE_SIZE)
  { 
    __asm__ volatile ("flushd (%0)" :: "r" (i));
  }
#endif /* NIOS2_DCACHE_SIZE > 0 */
}
10010314:	e037883a 	mov	sp,fp
10010318:	df000017 	ldw	fp,0(sp)
1001031c:	dec00104 	addi	sp,sp,4
10010320:	f800283a 	ret

10010324 <alt_get_errno>:
#undef errno

extern int errno;

static ALT_INLINE int* alt_get_errno(void)
{
10010324:	defffe04 	addi	sp,sp,-8
10010328:	dfc00115 	stw	ra,4(sp)
1001032c:	df000015 	stw	fp,0(sp)
10010330:	d839883a 	mov	fp,sp
  return ((alt_errno) ? alt_errno() : &errno);
10010334:	00840074 	movhi	r2,4097
10010338:	108e4304 	addi	r2,r2,14604
1001033c:	10800017 	ldw	r2,0(r2)
10010340:	10000526 	beq	r2,zero,10010358 <alt_get_errno+0x34>
10010344:	00840074 	movhi	r2,4097
10010348:	108e4304 	addi	r2,r2,14604
1001034c:	10800017 	ldw	r2,0(r2)
10010350:	103ee83a 	callr	r2
10010354:	00000206 	br	10010360 <alt_get_errno+0x3c>
10010358:	00840074 	movhi	r2,4097
1001035c:	10950b04 	addi	r2,r2,21548
}
10010360:	e037883a 	mov	sp,fp
10010364:	dfc00117 	ldw	ra,4(sp)
10010368:	df000017 	ldw	fp,0(sp)
1001036c:	dec00204 	addi	sp,sp,8
10010370:	f800283a 	ret

10010374 <alt_dev_llist_insert>:
/*
 *
 */

int alt_dev_llist_insert (alt_dev_llist* dev, alt_llist* list)
{
10010374:	defffa04 	addi	sp,sp,-24
10010378:	dfc00515 	stw	ra,20(sp)
1001037c:	df000415 	stw	fp,16(sp)
10010380:	df000404 	addi	fp,sp,16
10010384:	e13ffe15 	stw	r4,-8(fp)
10010388:	e17fff15 	stw	r5,-4(fp)
  /*
   * check that the device exists, and that it has a valid name.
   */

  if (!dev || !dev->name)
1001038c:	e0bffe17 	ldw	r2,-8(fp)
10010390:	10000326 	beq	r2,zero,100103a0 <alt_dev_llist_insert+0x2c>
10010394:	e0bffe17 	ldw	r2,-8(fp)
10010398:	10800217 	ldw	r2,8(r2)
1001039c:	1000061e 	bne	r2,zero,100103b8 <alt_dev_llist_insert+0x44>
  {
    ALT_ERRNO = EINVAL;
100103a0:	00103240 	call	10010324 <alt_get_errno>
100103a4:	1007883a 	mov	r3,r2
100103a8:	00800584 	movi	r2,22
100103ac:	18800015 	stw	r2,0(r3)
    return -EINVAL;
100103b0:	00bffa84 	movi	r2,-22
100103b4:	00001306 	br	10010404 <alt_dev_llist_insert+0x90>
  
  /*
   * register the device.
   */
  
  alt_llist_insert(list, &dev->llist);
100103b8:	e0bffe17 	ldw	r2,-8(fp)
100103bc:	e0ffff17 	ldw	r3,-4(fp)
100103c0:	e0fffc15 	stw	r3,-16(fp)
100103c4:	e0bffd15 	stw	r2,-12(fp)
 */

static ALT_INLINE void ALT_ALWAYS_INLINE alt_llist_insert(alt_llist* list, 
                alt_llist* entry)
{
  entry->previous = list;
100103c8:	e0bffd17 	ldw	r2,-12(fp)
100103cc:	e0fffc17 	ldw	r3,-16(fp)
100103d0:	10c00115 	stw	r3,4(r2)
  entry->next     = list->next;
100103d4:	e0bffc17 	ldw	r2,-16(fp)
100103d8:	10c00017 	ldw	r3,0(r2)
100103dc:	e0bffd17 	ldw	r2,-12(fp)
100103e0:	10c00015 	stw	r3,0(r2)

  list->next->previous = entry;
100103e4:	e0bffc17 	ldw	r2,-16(fp)
100103e8:	10800017 	ldw	r2,0(r2)
100103ec:	e0fffd17 	ldw	r3,-12(fp)
100103f0:	10c00115 	stw	r3,4(r2)
  list->next           = entry;
100103f4:	e0bffc17 	ldw	r2,-16(fp)
100103f8:	e0fffd17 	ldw	r3,-12(fp)
100103fc:	10c00015 	stw	r3,0(r2)

  return 0;  
10010400:	0005883a 	mov	r2,zero
}
10010404:	e037883a 	mov	sp,fp
10010408:	dfc00117 	ldw	ra,4(sp)
1001040c:	df000017 	ldw	fp,0(sp)
10010410:	dec00204 	addi	sp,sp,8
10010414:	f800283a 	ret

10010418 <_do_ctors>:
/*
 * Run the C++ static constructors.
 */

void _do_ctors(void)
{
10010418:	defffd04 	addi	sp,sp,-12
1001041c:	dfc00215 	stw	ra,8(sp)
10010420:	df000115 	stw	fp,4(sp)
10010424:	df000104 	addi	fp,sp,4
  constructor* ctor;

  for (ctor = &__CTOR_END__[-1]; ctor >= __CTOR_LIST__; ctor--)
10010428:	00840074 	movhi	r2,4097
1001042c:	1084e304 	addi	r2,r2,5004
10010430:	e0bfff15 	stw	r2,-4(fp)
10010434:	00000606 	br	10010450 <_do_ctors+0x38>
        (*ctor) (); 
10010438:	e0bfff17 	ldw	r2,-4(fp)
1001043c:	10800017 	ldw	r2,0(r2)
10010440:	103ee83a 	callr	r2

void _do_ctors(void)
{
  constructor* ctor;

  for (ctor = &__CTOR_END__[-1]; ctor >= __CTOR_LIST__; ctor--)
10010444:	e0bfff17 	ldw	r2,-4(fp)
10010448:	10bfff04 	addi	r2,r2,-4
1001044c:	e0bfff15 	stw	r2,-4(fp)
10010450:	e0ffff17 	ldw	r3,-4(fp)
10010454:	00840074 	movhi	r2,4097
10010458:	1084e404 	addi	r2,r2,5008
1001045c:	18bff62e 	bgeu	r3,r2,10010438 <__alt_data_end+0xf8010438>
        (*ctor) (); 
}
10010460:	e037883a 	mov	sp,fp
10010464:	dfc00117 	ldw	ra,4(sp)
10010468:	df000017 	ldw	fp,0(sp)
1001046c:	dec00204 	addi	sp,sp,8
10010470:	f800283a 	ret

10010474 <_do_dtors>:
/*
 * Run the C++ static destructors.
 */

void _do_dtors(void)
{
10010474:	defffd04 	addi	sp,sp,-12
10010478:	dfc00215 	stw	ra,8(sp)
1001047c:	df000115 	stw	fp,4(sp)
10010480:	df000104 	addi	fp,sp,4
  destructor* dtor;

  for (dtor = &__DTOR_END__[-1]; dtor >= __DTOR_LIST__; dtor--)
10010484:	00840074 	movhi	r2,4097
10010488:	1084e304 	addi	r2,r2,5004
1001048c:	e0bfff15 	stw	r2,-4(fp)
10010490:	00000606 	br	100104ac <_do_dtors+0x38>
        (*dtor) (); 
10010494:	e0bfff17 	ldw	r2,-4(fp)
10010498:	10800017 	ldw	r2,0(r2)
1001049c:	103ee83a 	callr	r2

void _do_dtors(void)
{
  destructor* dtor;

  for (dtor = &__DTOR_END__[-1]; dtor >= __DTOR_LIST__; dtor--)
100104a0:	e0bfff17 	ldw	r2,-4(fp)
100104a4:	10bfff04 	addi	r2,r2,-4
100104a8:	e0bfff15 	stw	r2,-4(fp)
100104ac:	e0ffff17 	ldw	r3,-4(fp)
100104b0:	00840074 	movhi	r2,4097
100104b4:	1084e404 	addi	r2,r2,5008
100104b8:	18bff62e 	bgeu	r3,r2,10010494 <__alt_data_end+0xf8010494>
        (*dtor) (); 
}
100104bc:	e037883a 	mov	sp,fp
100104c0:	dfc00117 	ldw	ra,4(sp)
100104c4:	df000017 	ldw	fp,0(sp)
100104c8:	dec00204 	addi	sp,sp,8
100104cc:	f800283a 	ret

100104d0 <alt_icache_flush_all>:
/*
 * alt_icache_flush_all() is called to flush the entire instruction cache.
 */

void alt_icache_flush_all (void)
{
100104d0:	deffff04 	addi	sp,sp,-4
100104d4:	df000015 	stw	fp,0(sp)
100104d8:	d839883a 	mov	fp,sp
#if NIOS2_ICACHE_SIZE > 0
  alt_icache_flush (0, NIOS2_ICACHE_SIZE);
#endif
}
100104dc:	e037883a 	mov	sp,fp
100104e0:	df000017 	ldw	fp,0(sp)
100104e4:	dec00104 	addi	sp,sp,4
100104e8:	f800283a 	ret

100104ec <alt_ic_isr_register>:
  * @param irq              IRQ number
  * @return                 0 if successful, else error (-1)
  */
int alt_ic_isr_register(alt_u32 ic_id, alt_u32 irq, alt_isr_func isr, 
  void *isr_context, void *flags)
{
100104ec:	defff904 	addi	sp,sp,-28
100104f0:	dfc00615 	stw	ra,24(sp)
100104f4:	df000515 	stw	fp,20(sp)
100104f8:	df000504 	addi	fp,sp,20
100104fc:	e13ffc15 	stw	r4,-16(fp)
10010500:	e17ffd15 	stw	r5,-12(fp)
10010504:	e1bffe15 	stw	r6,-8(fp)
10010508:	e1ffff15 	stw	r7,-4(fp)
    return alt_iic_isr_register(ic_id, irq, isr, isr_context, flags);
1001050c:	e0800217 	ldw	r2,8(fp)
10010510:	d8800015 	stw	r2,0(sp)
10010514:	e13ffc17 	ldw	r4,-16(fp)
10010518:	e17ffd17 	ldw	r5,-12(fp)
1001051c:	e1bffe17 	ldw	r6,-8(fp)
10010520:	e1ffff17 	ldw	r7,-4(fp)
10010524:	00106cc0 	call	100106cc <alt_iic_isr_register>
}  
10010528:	e037883a 	mov	sp,fp
1001052c:	dfc00117 	ldw	ra,4(sp)
10010530:	df000017 	ldw	fp,0(sp)
10010534:	dec00204 	addi	sp,sp,8
10010538:	f800283a 	ret

1001053c <alt_ic_irq_enable>:
  * @param ic_id            Ignored.
  * @param irq              IRQ number
  * @return                 0 if successful, else error (-1)
  */
int alt_ic_irq_enable (alt_u32 ic_id, alt_u32 irq)
{
1001053c:	defff904 	addi	sp,sp,-28
10010540:	df000615 	stw	fp,24(sp)
10010544:	df000604 	addi	fp,sp,24
10010548:	e13ffe15 	stw	r4,-8(fp)
1001054c:	e17fff15 	stw	r5,-4(fp)
10010550:	e0bfff17 	ldw	r2,-4(fp)
10010554:	e0bffa15 	stw	r2,-24(fp)
static ALT_INLINE alt_irq_context ALT_ALWAYS_INLINE 
       alt_irq_disable_all (void)
{
  alt_irq_context context;

  NIOS2_READ_STATUS (context);
10010558:	0005303a 	rdctl	r2,status
1001055c:	e0bffb15 	stw	r2,-20(fp)

  NIOS2_WRITE_STATUS (context & ~NIOS2_STATUS_PIE_MSK);
10010560:	e0fffb17 	ldw	r3,-20(fp)
10010564:	00bfff84 	movi	r2,-2
10010568:	1884703a 	and	r2,r3,r2
1001056c:	1001703a 	wrctl	status,r2
  
  return context;
10010570:	e0bffb17 	ldw	r2,-20(fp)
static ALT_INLINE int ALT_ALWAYS_INLINE alt_irq_enable (alt_u32 id)
{
  alt_irq_context  status;
  extern volatile alt_u32 alt_irq_active;

  status = alt_irq_disable_all ();
10010574:	e0bffc15 	stw	r2,-16(fp)

  alt_irq_active |= (1 << id);
10010578:	e0bffa17 	ldw	r2,-24(fp)
1001057c:	00c00044 	movi	r3,1
10010580:	1884983a 	sll	r2,r3,r2
10010584:	1007883a 	mov	r3,r2
10010588:	00840074 	movhi	r2,4097
1001058c:	10950f04 	addi	r2,r2,21564
10010590:	10800017 	ldw	r2,0(r2)
10010594:	1886b03a 	or	r3,r3,r2
10010598:	00840074 	movhi	r2,4097
1001059c:	10950f04 	addi	r2,r2,21564
100105a0:	10c00015 	stw	r3,0(r2)
  NIOS2_WRITE_IENABLE (alt_irq_active);
100105a4:	00840074 	movhi	r2,4097
100105a8:	10950f04 	addi	r2,r2,21564
100105ac:	10800017 	ldw	r2,0(r2)
100105b0:	100170fa 	wrctl	ienable,r2
100105b4:	e0bffc17 	ldw	r2,-16(fp)
100105b8:	e0bffd15 	stw	r2,-12(fp)
  status &= ~NIOS2_STATUS_PIE_MSK;
  status |= (context & NIOS2_STATUS_PIE_MSK);
  
  NIOS2_WRITE_STATUS (status);
#else
  NIOS2_WRITE_STATUS (context);
100105bc:	e0bffd17 	ldw	r2,-12(fp)
100105c0:	1001703a 	wrctl	status,r2

  alt_irq_enable_all(status);

  return 0;
100105c4:	0005883a 	mov	r2,zero
    return alt_irq_enable(irq);
100105c8:	0001883a 	nop
}
100105cc:	e037883a 	mov	sp,fp
100105d0:	df000017 	ldw	fp,0(sp)
100105d4:	dec00104 	addi	sp,sp,4
100105d8:	f800283a 	ret

100105dc <alt_ic_irq_disable>:
  * @param ic_id            Ignored.
  * @param irq              IRQ number
  * @return                 0 if successful, else error (-1)
  */
int alt_ic_irq_disable(alt_u32 ic_id, alt_u32 irq)
{
100105dc:	defff904 	addi	sp,sp,-28
100105e0:	df000615 	stw	fp,24(sp)
100105e4:	df000604 	addi	fp,sp,24
100105e8:	e13ffe15 	stw	r4,-8(fp)
100105ec:	e17fff15 	stw	r5,-4(fp)
100105f0:	e0bfff17 	ldw	r2,-4(fp)
100105f4:	e0bffa15 	stw	r2,-24(fp)
static ALT_INLINE alt_irq_context ALT_ALWAYS_INLINE 
       alt_irq_disable_all (void)
{
  alt_irq_context context;

  NIOS2_READ_STATUS (context);
100105f8:	0005303a 	rdctl	r2,status
100105fc:	e0bffb15 	stw	r2,-20(fp)

  NIOS2_WRITE_STATUS (context & ~NIOS2_STATUS_PIE_MSK);
10010600:	e0fffb17 	ldw	r3,-20(fp)
10010604:	00bfff84 	movi	r2,-2
10010608:	1884703a 	and	r2,r3,r2
1001060c:	1001703a 	wrctl	status,r2
  
  return context;
10010610:	e0bffb17 	ldw	r2,-20(fp)
static ALT_INLINE int ALT_ALWAYS_INLINE alt_irq_disable (alt_u32 id)
{
  alt_irq_context  status;
  extern volatile alt_u32 alt_irq_active;

  status = alt_irq_disable_all ();
10010614:	e0bffc15 	stw	r2,-16(fp)

  alt_irq_active &= ~(1 << id);
10010618:	e0bffa17 	ldw	r2,-24(fp)
1001061c:	00c00044 	movi	r3,1
10010620:	1884983a 	sll	r2,r3,r2
10010624:	0084303a 	nor	r2,zero,r2
10010628:	1007883a 	mov	r3,r2
1001062c:	00840074 	movhi	r2,4097
10010630:	10950f04 	addi	r2,r2,21564
10010634:	10800017 	ldw	r2,0(r2)
10010638:	1886703a 	and	r3,r3,r2
1001063c:	00840074 	movhi	r2,4097
10010640:	10950f04 	addi	r2,r2,21564
10010644:	10c00015 	stw	r3,0(r2)
  NIOS2_WRITE_IENABLE (alt_irq_active);
10010648:	00840074 	movhi	r2,4097
1001064c:	10950f04 	addi	r2,r2,21564
10010650:	10800017 	ldw	r2,0(r2)
10010654:	100170fa 	wrctl	ienable,r2
10010658:	e0bffc17 	ldw	r2,-16(fp)
1001065c:	e0bffd15 	stw	r2,-12(fp)
  status &= ~NIOS2_STATUS_PIE_MSK;
  status |= (context & NIOS2_STATUS_PIE_MSK);
  
  NIOS2_WRITE_STATUS (status);
#else
  NIOS2_WRITE_STATUS (context);
10010660:	e0bffd17 	ldw	r2,-12(fp)
10010664:	1001703a 	wrctl	status,r2

  alt_irq_enable_all(status);

  return 0;
10010668:	0005883a 	mov	r2,zero
    return alt_irq_disable(irq);
1001066c:	0001883a 	nop
}
10010670:	e037883a 	mov	sp,fp
10010674:	df000017 	ldw	fp,0(sp)
10010678:	dec00104 	addi	sp,sp,4
1001067c:	f800283a 	ret

10010680 <alt_ic_irq_enabled>:
  * @param irq              IRQ number
  * @return                 Zero if corresponding interrupt is disabled and
  *                         non-zero otherwise.
  */
alt_u32 alt_ic_irq_enabled(alt_u32 ic_id, alt_u32 irq)
{
10010680:	defffc04 	addi	sp,sp,-16
10010684:	df000315 	stw	fp,12(sp)
10010688:	df000304 	addi	fp,sp,12
1001068c:	e13ffe15 	stw	r4,-8(fp)
10010690:	e17fff15 	stw	r5,-4(fp)
    alt_u32 irq_enabled;

    NIOS2_READ_IENABLE(irq_enabled);
10010694:	000530fa 	rdctl	r2,ienable
10010698:	e0bffd15 	stw	r2,-12(fp)

    return (irq_enabled & (1 << irq)) ? 1: 0;
1001069c:	e0bfff17 	ldw	r2,-4(fp)
100106a0:	00c00044 	movi	r3,1
100106a4:	1884983a 	sll	r2,r3,r2
100106a8:	1007883a 	mov	r3,r2
100106ac:	e0bffd17 	ldw	r2,-12(fp)
100106b0:	1884703a 	and	r2,r3,r2
100106b4:	1004c03a 	cmpne	r2,r2,zero
100106b8:	10803fcc 	andi	r2,r2,255
}
100106bc:	e037883a 	mov	sp,fp
100106c0:	df000017 	ldw	fp,0(sp)
100106c4:	dec00104 	addi	sp,sp,4
100106c8:	f800283a 	ret

100106cc <alt_iic_isr_register>:
  * @param flags            
  * @return                 0 if successful, else error (-1)
  */
int alt_iic_isr_register(alt_u32 ic_id, alt_u32 irq, alt_isr_func isr, 
  void *isr_context, void *flags)
{
100106cc:	defff504 	addi	sp,sp,-44
100106d0:	dfc00a15 	stw	ra,40(sp)
100106d4:	df000915 	stw	fp,36(sp)
100106d8:	df000904 	addi	fp,sp,36
100106dc:	e13ffc15 	stw	r4,-16(fp)
100106e0:	e17ffd15 	stw	r5,-12(fp)
100106e4:	e1bffe15 	stw	r6,-8(fp)
100106e8:	e1ffff15 	stw	r7,-4(fp)
  int rc = -EINVAL;  
100106ec:	00bffa84 	movi	r2,-22
100106f0:	e0bff715 	stw	r2,-36(fp)
  int id = irq;             /* IRQ interpreted as the interrupt ID. */
100106f4:	e0bffd17 	ldw	r2,-12(fp)
100106f8:	e0bff815 	stw	r2,-32(fp)
  alt_irq_context status;

  if (id < ALT_NIRQ)
100106fc:	e0bff817 	ldw	r2,-32(fp)
10010700:	10800808 	cmpgei	r2,r2,32
10010704:	1000271e 	bne	r2,zero,100107a4 <alt_iic_isr_register+0xd8>
static ALT_INLINE alt_irq_context ALT_ALWAYS_INLINE 
       alt_irq_disable_all (void)
{
  alt_irq_context context;

  NIOS2_READ_STATUS (context);
10010708:	0005303a 	rdctl	r2,status
1001070c:	e0bffa15 	stw	r2,-24(fp)

  NIOS2_WRITE_STATUS (context & ~NIOS2_STATUS_PIE_MSK);
10010710:	e0fffa17 	ldw	r3,-24(fp)
10010714:	00bfff84 	movi	r2,-2
10010718:	1884703a 	and	r2,r3,r2
1001071c:	1001703a 	wrctl	status,r2
  
  return context;
10010720:	e0bffa17 	ldw	r2,-24(fp)
     * interrupts are disabled while the handler tables are updated to ensure
     * that an interrupt doesn't occur while the tables are in an inconsistant
     * state.
     */

    status = alt_irq_disable_all();
10010724:	e0bff915 	stw	r2,-28(fp)

    alt_irq[id].handler = isr;
10010728:	00840074 	movhi	r2,4097
1001072c:	10951c04 	addi	r2,r2,21616
10010730:	e0fff817 	ldw	r3,-32(fp)
10010734:	180690fa 	slli	r3,r3,3
10010738:	10c5883a 	add	r2,r2,r3
1001073c:	e0fffe17 	ldw	r3,-8(fp)
10010740:	10c00015 	stw	r3,0(r2)
    alt_irq[id].context = isr_context;
10010744:	00840074 	movhi	r2,4097
10010748:	10951c04 	addi	r2,r2,21616
1001074c:	e0fff817 	ldw	r3,-32(fp)
10010750:	180690fa 	slli	r3,r3,3
10010754:	10c5883a 	add	r2,r2,r3
10010758:	10800104 	addi	r2,r2,4
1001075c:	e0ffff17 	ldw	r3,-4(fp)
10010760:	10c00015 	stw	r3,0(r2)

    rc = (isr) ? alt_ic_irq_enable(ic_id, id) : alt_ic_irq_disable(ic_id, id);
10010764:	e0bffe17 	ldw	r2,-8(fp)
10010768:	10000526 	beq	r2,zero,10010780 <alt_iic_isr_register+0xb4>
1001076c:	e0bff817 	ldw	r2,-32(fp)
10010770:	e13ffc17 	ldw	r4,-16(fp)
10010774:	100b883a 	mov	r5,r2
10010778:	001053c0 	call	1001053c <alt_ic_irq_enable>
1001077c:	00000406 	br	10010790 <alt_iic_isr_register+0xc4>
10010780:	e0bff817 	ldw	r2,-32(fp)
10010784:	e13ffc17 	ldw	r4,-16(fp)
10010788:	100b883a 	mov	r5,r2
1001078c:	00105dc0 	call	100105dc <alt_ic_irq_disable>
10010790:	e0bff715 	stw	r2,-36(fp)
10010794:	e0bff917 	ldw	r2,-28(fp)
10010798:	e0bffb15 	stw	r2,-20(fp)
  status &= ~NIOS2_STATUS_PIE_MSK;
  status |= (context & NIOS2_STATUS_PIE_MSK);
  
  NIOS2_WRITE_STATUS (status);
#else
  NIOS2_WRITE_STATUS (context);
1001079c:	e0bffb17 	ldw	r2,-20(fp)
100107a0:	1001703a 	wrctl	status,r2

    alt_irq_enable_all(status);
  }

  return rc; 
100107a4:	e0bff717 	ldw	r2,-36(fp)
}
100107a8:	e037883a 	mov	sp,fp
100107ac:	dfc00117 	ldw	ra,4(sp)
100107b0:	df000017 	ldw	fp,0(sp)
100107b4:	dec00204 	addi	sp,sp,8
100107b8:	f800283a 	ret

100107bc <alt_open_fd>:
 * If the device can not be succesfully opened, then the input file descriptor
 * remains unchanged.
 */

static void alt_open_fd(alt_fd* fd, const char* name, int flags, int mode)
{
100107bc:	defff804 	addi	sp,sp,-32
100107c0:	dfc00715 	stw	ra,28(sp)
100107c4:	df000615 	stw	fp,24(sp)
100107c8:	dc000515 	stw	r16,20(sp)
100107cc:	df000604 	addi	fp,sp,24
100107d0:	e13ffb15 	stw	r4,-20(fp)
100107d4:	e17ffc15 	stw	r5,-16(fp)
100107d8:	e1bffd15 	stw	r6,-12(fp)
100107dc:	e1fffe15 	stw	r7,-8(fp)
  int old;

  old = open (name, flags, mode);
100107e0:	e13ffc17 	ldw	r4,-16(fp)
100107e4:	e17ffd17 	ldw	r5,-12(fp)
100107e8:	e1bffe17 	ldw	r6,-8(fp)
100107ec:	0010a580 	call	10010a58 <open>
100107f0:	e0bffa15 	stw	r2,-24(fp)

  if (old >= 0)
100107f4:	e0bffa17 	ldw	r2,-24(fp)
100107f8:	10002216 	blt	r2,zero,10010884 <alt_open_fd+0xc8>
  {
    fd->dev      = alt_fd_list[old].dev;
100107fc:	04040074 	movhi	r16,4097
10010800:	8409bf04 	addi	r16,r16,9980
10010804:	e0bffa17 	ldw	r2,-24(fp)
10010808:	1009883a 	mov	r4,r2
1001080c:	01400304 	movi	r5,12
10010810:	000c3280 	call	1000c328 <__mulsi3>
10010814:	8085883a 	add	r2,r16,r2
10010818:	10c00017 	ldw	r3,0(r2)
1001081c:	e0bffb17 	ldw	r2,-20(fp)
10010820:	10c00015 	stw	r3,0(r2)
    fd->priv     = alt_fd_list[old].priv;
10010824:	04040074 	movhi	r16,4097
10010828:	8409bf04 	addi	r16,r16,9980
1001082c:	e0bffa17 	ldw	r2,-24(fp)
10010830:	1009883a 	mov	r4,r2
10010834:	01400304 	movi	r5,12
10010838:	000c3280 	call	1000c328 <__mulsi3>
1001083c:	8085883a 	add	r2,r16,r2
10010840:	10800104 	addi	r2,r2,4
10010844:	10c00017 	ldw	r3,0(r2)
10010848:	e0bffb17 	ldw	r2,-20(fp)
1001084c:	10c00115 	stw	r3,4(r2)
    fd->fd_flags = alt_fd_list[old].fd_flags;
10010850:	04040074 	movhi	r16,4097
10010854:	8409bf04 	addi	r16,r16,9980
10010858:	e0bffa17 	ldw	r2,-24(fp)
1001085c:	1009883a 	mov	r4,r2
10010860:	01400304 	movi	r5,12
10010864:	000c3280 	call	1000c328 <__mulsi3>
10010868:	8085883a 	add	r2,r16,r2
1001086c:	10800204 	addi	r2,r2,8
10010870:	10c00017 	ldw	r3,0(r2)
10010874:	e0bffb17 	ldw	r2,-20(fp)
10010878:	10c00215 	stw	r3,8(r2)

    alt_release_fd (old);
1001087c:	e13ffa17 	ldw	r4,-24(fp)
10010880:	000f2c00 	call	1000f2c0 <alt_release_fd>
  }
} 
10010884:	e6ffff04 	addi	sp,fp,-4
10010888:	dfc00217 	ldw	ra,8(sp)
1001088c:	df000117 	ldw	fp,4(sp)
10010890:	dc000017 	ldw	r16,0(sp)
10010894:	dec00304 	addi	sp,sp,12
10010898:	f800283a 	ret

1001089c <alt_io_redirect>:
 */
 
void alt_io_redirect(const char* stdout_dev, 
                     const char* stdin_dev, 
                     const char* stderr_dev)
{
1001089c:	defffb04 	addi	sp,sp,-20
100108a0:	dfc00415 	stw	ra,16(sp)
100108a4:	df000315 	stw	fp,12(sp)
100108a8:	df000304 	addi	fp,sp,12
100108ac:	e13ffd15 	stw	r4,-12(fp)
100108b0:	e17ffe15 	stw	r5,-8(fp)
100108b4:	e1bfff15 	stw	r6,-4(fp)
  /* Redirect the channels */

  alt_open_fd (&alt_fd_list[STDOUT_FILENO], stdout_dev, O_WRONLY, 0777);
100108b8:	01040074 	movhi	r4,4097
100108bc:	2109c204 	addi	r4,r4,9992
100108c0:	e17ffd17 	ldw	r5,-12(fp)
100108c4:	01800044 	movi	r6,1
100108c8:	01c07fc4 	movi	r7,511
100108cc:	00107bc0 	call	100107bc <alt_open_fd>
  alt_open_fd (&alt_fd_list[STDIN_FILENO], stdin_dev, O_RDONLY, 0777);
100108d0:	01040074 	movhi	r4,4097
100108d4:	2109bf04 	addi	r4,r4,9980
100108d8:	e17ffe17 	ldw	r5,-8(fp)
100108dc:	000d883a 	mov	r6,zero
100108e0:	01c07fc4 	movi	r7,511
100108e4:	00107bc0 	call	100107bc <alt_open_fd>
  alt_open_fd (&alt_fd_list[STDERR_FILENO], stderr_dev, O_WRONLY, 0777);
100108e8:	01040074 	movhi	r4,4097
100108ec:	2109c504 	addi	r4,r4,10004
100108f0:	e17fff17 	ldw	r5,-4(fp)
100108f4:	01800044 	movi	r6,1
100108f8:	01c07fc4 	movi	r7,511
100108fc:	00107bc0 	call	100107bc <alt_open_fd>
}  
10010900:	e037883a 	mov	sp,fp
10010904:	dfc00117 	ldw	ra,4(sp)
10010908:	df000017 	ldw	fp,0(sp)
1001090c:	dec00204 	addi	sp,sp,8
10010910:	f800283a 	ret

10010914 <alt_get_errno>:
#undef errno

extern int errno;

static ALT_INLINE int* alt_get_errno(void)
{
10010914:	defffe04 	addi	sp,sp,-8
10010918:	dfc00115 	stw	ra,4(sp)
1001091c:	df000015 	stw	fp,0(sp)
10010920:	d839883a 	mov	fp,sp
  return ((alt_errno) ? alt_errno() : &errno);
10010924:	00840074 	movhi	r2,4097
10010928:	108e4304 	addi	r2,r2,14604
1001092c:	10800017 	ldw	r2,0(r2)
10010930:	10000526 	beq	r2,zero,10010948 <alt_get_errno+0x34>
10010934:	00840074 	movhi	r2,4097
10010938:	108e4304 	addi	r2,r2,14604
1001093c:	10800017 	ldw	r2,0(r2)
10010940:	103ee83a 	callr	r2
10010944:	00000206 	br	10010950 <alt_get_errno+0x3c>
10010948:	00840074 	movhi	r2,4097
1001094c:	10950b04 	addi	r2,r2,21548
}
10010950:	e037883a 	mov	sp,fp
10010954:	dfc00117 	ldw	ra,4(sp)
10010958:	df000017 	ldw	fp,0(sp)
1001095c:	dec00204 	addi	sp,sp,8
10010960:	f800283a 	ret

10010964 <alt_file_locked>:
 * performed for devices. Filesystems are required to handle the ioctl() call
 * themselves, and report the error from the filesystems open() function. 
 */ 

static int alt_file_locked (alt_fd* fd)
{
10010964:	defffb04 	addi	sp,sp,-20
10010968:	dfc00415 	stw	ra,16(sp)
1001096c:	df000315 	stw	fp,12(sp)
10010970:	dc000215 	stw	r16,8(sp)
10010974:	df000304 	addi	fp,sp,12
10010978:	e13ffe15 	stw	r4,-8(fp)

  /*
   * Mark the file descriptor as belonging to a device.
   */

  fd->fd_flags |= ALT_FD_DEV;
1001097c:	e0bffe17 	ldw	r2,-8(fp)
10010980:	10800217 	ldw	r2,8(r2)
10010984:	10d00034 	orhi	r3,r2,16384
10010988:	e0bffe17 	ldw	r2,-8(fp)
1001098c:	10c00215 	stw	r3,8(r2)
  /*
   * Loop through all current file descriptors searching for one that's locked
   * for exclusive access. If a match is found, generate an error.
   */

  for (i = 0; i <= alt_max_fd; i++)
10010990:	e03ffd15 	stw	zero,-12(fp)
10010994:	00002306 	br	10010a24 <alt_file_locked+0xc0>
  {
    if ((alt_fd_list[i].dev == fd->dev) &&
10010998:	04040074 	movhi	r16,4097
1001099c:	8409bf04 	addi	r16,r16,9980
100109a0:	e0bffd17 	ldw	r2,-12(fp)
100109a4:	1009883a 	mov	r4,r2
100109a8:	01400304 	movi	r5,12
100109ac:	000c3280 	call	1000c328 <__mulsi3>
100109b0:	8085883a 	add	r2,r16,r2
100109b4:	10c00017 	ldw	r3,0(r2)
100109b8:	e0bffe17 	ldw	r2,-8(fp)
100109bc:	10800017 	ldw	r2,0(r2)
100109c0:	1880151e 	bne	r3,r2,10010a18 <alt_file_locked+0xb4>
        (alt_fd_list[i].fd_flags & ALT_FD_EXCL) &&
100109c4:	04040074 	movhi	r16,4097
100109c8:	8409bf04 	addi	r16,r16,9980
100109cc:	e0bffd17 	ldw	r2,-12(fp)
100109d0:	1009883a 	mov	r4,r2
100109d4:	01400304 	movi	r5,12
100109d8:	000c3280 	call	1000c328 <__mulsi3>
100109dc:	8085883a 	add	r2,r16,r2
100109e0:	10800204 	addi	r2,r2,8
100109e4:	10800017 	ldw	r2,0(r2)
   * for exclusive access. If a match is found, generate an error.
   */

  for (i = 0; i <= alt_max_fd; i++)
  {
    if ((alt_fd_list[i].dev == fd->dev) &&
100109e8:	10000b0e 	bge	r2,zero,10010a18 <alt_file_locked+0xb4>
        (alt_fd_list[i].fd_flags & ALT_FD_EXCL) &&
        (&alt_fd_list[i] != fd))
100109ec:	e13ffd17 	ldw	r4,-12(fp)
100109f0:	01400304 	movi	r5,12
100109f4:	000c3280 	call	1000c328 <__mulsi3>
100109f8:	1007883a 	mov	r3,r2
100109fc:	00840074 	movhi	r2,4097
10010a00:	1089bf04 	addi	r2,r2,9980
10010a04:	1887883a 	add	r3,r3,r2
   */

  for (i = 0; i <= alt_max_fd; i++)
  {
    if ((alt_fd_list[i].dev == fd->dev) &&
        (alt_fd_list[i].fd_flags & ALT_FD_EXCL) &&
10010a08:	e0bffe17 	ldw	r2,-8(fp)
10010a0c:	18800226 	beq	r3,r2,10010a18 <alt_file_locked+0xb4>
        (&alt_fd_list[i] != fd))
    {
      return -EACCES;
10010a10:	00bffcc4 	movi	r2,-13
10010a14:	00000a06 	br	10010a40 <alt_file_locked+0xdc>
  /*
   * Loop through all current file descriptors searching for one that's locked
   * for exclusive access. If a match is found, generate an error.
   */

  for (i = 0; i <= alt_max_fd; i++)
10010a18:	e0bffd17 	ldw	r2,-12(fp)
10010a1c:	10800044 	addi	r2,r2,1
10010a20:	e0bffd15 	stw	r2,-12(fp)
10010a24:	00840074 	movhi	r2,4097
10010a28:	108e4204 	addi	r2,r2,14600
10010a2c:	10800017 	ldw	r2,0(r2)
10010a30:	1007883a 	mov	r3,r2
10010a34:	e0bffd17 	ldw	r2,-12(fp)
10010a38:	18bfd72e 	bgeu	r3,r2,10010998 <__alt_data_end+0xf8010998>
    }
  }
  
  /* The device is not locked */
 
  return 0;
10010a3c:	0005883a 	mov	r2,zero
}
10010a40:	e6ffff04 	addi	sp,fp,-4
10010a44:	dfc00217 	ldw	ra,8(sp)
10010a48:	df000117 	ldw	fp,4(sp)
10010a4c:	dc000017 	ldw	r16,0(sp)
10010a50:	dec00304 	addi	sp,sp,12
10010a54:	f800283a 	ret

10010a58 <open>:
 *
 * ALT_OPEN is mapped onto the open() system call in alt_syscall.h
 */
 
int ALT_OPEN (const char* file, int flags, int mode)
{ 
10010a58:	defff604 	addi	sp,sp,-40
10010a5c:	dfc00915 	stw	ra,36(sp)
10010a60:	df000815 	stw	fp,32(sp)
10010a64:	df000804 	addi	fp,sp,32
10010a68:	e13ffd15 	stw	r4,-12(fp)
10010a6c:	e17ffe15 	stw	r5,-8(fp)
10010a70:	e1bfff15 	stw	r6,-4(fp)
  alt_dev* dev;
  alt_fd*  fd;
  int index  = -1;
10010a74:	00bfffc4 	movi	r2,-1
10010a78:	e0bff915 	stw	r2,-28(fp)
  int status = -ENODEV;
10010a7c:	00bffb44 	movi	r2,-19
10010a80:	e0bffa15 	stw	r2,-24(fp)
  int isafs = 0;
10010a84:	e03ffb15 	stw	zero,-20(fp)
  /* 
   * Check the device list, to see if a device with a matching name is 
   * registered.
   */
  
  if (!(dev = alt_find_dev (file, &alt_dev_list)))
10010a88:	e13ffd17 	ldw	r4,-12(fp)
10010a8c:	01440074 	movhi	r5,4097
10010a90:	294e4004 	addi	r5,r5,14592
10010a94:	0010d740 	call	10010d74 <alt_find_dev>
10010a98:	e0bff815 	stw	r2,-32(fp)
10010a9c:	e0bff817 	ldw	r2,-32(fp)
10010aa0:	1000051e 	bne	r2,zero,10010ab8 <open+0x60>
  {
    /* No matching device, so try the filesystem list */

    dev   = alt_find_file (file);
10010aa4:	e13ffd17 	ldw	r4,-12(fp)
10010aa8:	0010e040 	call	10010e04 <alt_find_file>
10010aac:	e0bff815 	stw	r2,-32(fp)
    isafs = 1;
10010ab0:	00800044 	movi	r2,1
10010ab4:	e0bffb15 	stw	r2,-20(fp)

  /* 
   * If a matching device or filesystem is found, allocate a file descriptor. 
   */

  if (dev)
10010ab8:	e0bff817 	ldw	r2,-32(fp)
10010abc:	10002b26 	beq	r2,zero,10010b6c <open+0x114>
  {
    if ((index = alt_get_fd (dev)) < 0)
10010ac0:	e13ff817 	ldw	r4,-32(fp)
10010ac4:	0010f180 	call	10010f18 <alt_get_fd>
10010ac8:	e0bff915 	stw	r2,-28(fp)
10010acc:	e0bff917 	ldw	r2,-28(fp)
10010ad0:	1000030e 	bge	r2,zero,10010ae0 <open+0x88>
    {
      status = index;
10010ad4:	e0bff917 	ldw	r2,-28(fp)
10010ad8:	e0bffa15 	stw	r2,-24(fp)
10010adc:	00002506 	br	10010b74 <open+0x11c>
    }
    else
    {
      fd = &alt_fd_list[index];
10010ae0:	e13ff917 	ldw	r4,-28(fp)
10010ae4:	01400304 	movi	r5,12
10010ae8:	000c3280 	call	1000c328 <__mulsi3>
10010aec:	1007883a 	mov	r3,r2
10010af0:	00840074 	movhi	r2,4097
10010af4:	1089bf04 	addi	r2,r2,9980
10010af8:	1885883a 	add	r2,r3,r2
10010afc:	e0bffc15 	stw	r2,-16(fp)
      fd->fd_flags = (flags & ~ALT_FD_FLAGS_MASK);
10010b00:	e0fffe17 	ldw	r3,-8(fp)
10010b04:	00900034 	movhi	r2,16384
10010b08:	10bfffc4 	addi	r2,r2,-1
10010b0c:	1886703a 	and	r3,r3,r2
10010b10:	e0bffc17 	ldw	r2,-16(fp)
10010b14:	10c00215 	stw	r3,8(r2)
      
      /* If this is a device, ensure it isn't already locked */

      if (isafs || ((status = alt_file_locked (fd)) >= 0))
10010b18:	e0bffb17 	ldw	r2,-20(fp)
10010b1c:	1000051e 	bne	r2,zero,10010b34 <open+0xdc>
10010b20:	e13ffc17 	ldw	r4,-16(fp)
10010b24:	00109640 	call	10010964 <alt_file_locked>
10010b28:	e0bffa15 	stw	r2,-24(fp)
10010b2c:	e0bffa17 	ldw	r2,-24(fp)
10010b30:	10001016 	blt	r2,zero,10010b74 <open+0x11c>
        /* 
         * If the device or filesystem provides an open() callback function,
         * call it now to perform any device/filesystem specific operations.
         */
    
        status = (dev->open) ? dev->open(fd, file, flags, mode): 0;
10010b34:	e0bff817 	ldw	r2,-32(fp)
10010b38:	10800317 	ldw	r2,12(r2)
10010b3c:	10000826 	beq	r2,zero,10010b60 <open+0x108>
10010b40:	e0bff817 	ldw	r2,-32(fp)
10010b44:	10800317 	ldw	r2,12(r2)
10010b48:	e13ffc17 	ldw	r4,-16(fp)
10010b4c:	e17ffd17 	ldw	r5,-12(fp)
10010b50:	e1bffe17 	ldw	r6,-8(fp)
10010b54:	e1ffff17 	ldw	r7,-4(fp)
10010b58:	103ee83a 	callr	r2
10010b5c:	00000106 	br	10010b64 <open+0x10c>
10010b60:	0005883a 	mov	r2,zero
10010b64:	e0bffa15 	stw	r2,-24(fp)
10010b68:	00000206 	br	10010b74 <open+0x11c>
      }
    }
  }
  else
  {
    status = -ENODEV;
10010b6c:	00bffb44 	movi	r2,-19
10010b70:	e0bffa15 	stw	r2,-24(fp)
  }

  /* Allocation failed, so clean up and return an error */ 

  if (status < 0)
10010b74:	e0bffa17 	ldw	r2,-24(fp)
10010b78:	1000090e 	bge	r2,zero,10010ba0 <open+0x148>
  {
    alt_release_fd (index);  
10010b7c:	e13ff917 	ldw	r4,-28(fp)
10010b80:	000f2c00 	call	1000f2c0 <alt_release_fd>
    ALT_ERRNO = -status;
10010b84:	00109140 	call	10010914 <alt_get_errno>
10010b88:	1007883a 	mov	r3,r2
10010b8c:	e0bffa17 	ldw	r2,-24(fp)
10010b90:	0085c83a 	sub	r2,zero,r2
10010b94:	18800015 	stw	r2,0(r3)
    return -1;
10010b98:	00bfffc4 	movi	r2,-1
10010b9c:	00000106 	br	10010ba4 <open+0x14c>
  }
  
  /* return the reference upon success */

  return index;
10010ba0:	e0bff917 	ldw	r2,-28(fp)
}
10010ba4:	e037883a 	mov	sp,fp
10010ba8:	dfc00117 	ldw	ra,4(sp)
10010bac:	df000017 	ldw	fp,0(sp)
10010bb0:	dec00204 	addi	sp,sp,8
10010bb4:	f800283a 	ret

10010bb8 <alt_alarm_stop>:
 * alarms. Alternatively an alarm can unregister itself by returning zero when 
 * the alarm executes.
 */

void alt_alarm_stop (alt_alarm* alarm)
{
10010bb8:	defffa04 	addi	sp,sp,-24
10010bbc:	df000515 	stw	fp,20(sp)
10010bc0:	df000504 	addi	fp,sp,20
10010bc4:	e13fff15 	stw	r4,-4(fp)
static ALT_INLINE alt_irq_context ALT_ALWAYS_INLINE 
       alt_irq_disable_all (void)
{
  alt_irq_context context;

  NIOS2_READ_STATUS (context);
10010bc8:	0005303a 	rdctl	r2,status
10010bcc:	e0bffc15 	stw	r2,-16(fp)

  NIOS2_WRITE_STATUS (context & ~NIOS2_STATUS_PIE_MSK);
10010bd0:	e0fffc17 	ldw	r3,-16(fp)
10010bd4:	00bfff84 	movi	r2,-2
10010bd8:	1884703a 	and	r2,r3,r2
10010bdc:	1001703a 	wrctl	status,r2
  
  return context;
10010be0:	e0bffc17 	ldw	r2,-16(fp)
  alt_irq_context irq_context;

  irq_context = alt_irq_disable_all();
10010be4:	e0bffb15 	stw	r2,-20(fp)
  alt_llist_remove (&alarm->llist);
10010be8:	e0bfff17 	ldw	r2,-4(fp)
10010bec:	e0bffd15 	stw	r2,-12(fp)
 * input argument is the element to remove.
 */
     
static ALT_INLINE void ALT_ALWAYS_INLINE alt_llist_remove(alt_llist* entry)
{
  entry->next->previous = entry->previous;
10010bf0:	e0bffd17 	ldw	r2,-12(fp)
10010bf4:	10800017 	ldw	r2,0(r2)
10010bf8:	e0fffd17 	ldw	r3,-12(fp)
10010bfc:	18c00117 	ldw	r3,4(r3)
10010c00:	10c00115 	stw	r3,4(r2)
  entry->previous->next = entry->next;
10010c04:	e0bffd17 	ldw	r2,-12(fp)
10010c08:	10800117 	ldw	r2,4(r2)
10010c0c:	e0fffd17 	ldw	r3,-12(fp)
10010c10:	18c00017 	ldw	r3,0(r3)
10010c14:	10c00015 	stw	r3,0(r2)
  /* 
   * Set the entry to point to itself, so that any further calls to
   * alt_llist_remove() are harmless.
   */

  entry->previous = entry;
10010c18:	e0bffd17 	ldw	r2,-12(fp)
10010c1c:	e0fffd17 	ldw	r3,-12(fp)
10010c20:	10c00115 	stw	r3,4(r2)
  entry->next     = entry;
10010c24:	e0bffd17 	ldw	r2,-12(fp)
10010c28:	e0fffd17 	ldw	r3,-12(fp)
10010c2c:	10c00015 	stw	r3,0(r2)
10010c30:	e0bffb17 	ldw	r2,-20(fp)
10010c34:	e0bffe15 	stw	r2,-8(fp)
  status &= ~NIOS2_STATUS_PIE_MSK;
  status |= (context & NIOS2_STATUS_PIE_MSK);
  
  NIOS2_WRITE_STATUS (status);
#else
  NIOS2_WRITE_STATUS (context);
10010c38:	e0bffe17 	ldw	r2,-8(fp)
10010c3c:	1001703a 	wrctl	status,r2
  alt_irq_enable_all (irq_context);
}
10010c40:	e037883a 	mov	sp,fp
10010c44:	df000017 	ldw	fp,0(sp)
10010c48:	dec00104 	addi	sp,sp,4
10010c4c:	f800283a 	ret

10010c50 <alt_tick>:
 * 
 * alt_tick() is expected to run at interrupt level.
 */

void alt_tick (void)
{
10010c50:	defffb04 	addi	sp,sp,-20
10010c54:	dfc00415 	stw	ra,16(sp)
10010c58:	df000315 	stw	fp,12(sp)
10010c5c:	df000304 	addi	fp,sp,12
  alt_alarm* next;
  alt_alarm* alarm = (alt_alarm*) alt_alarm_list.next;
10010c60:	d0a00f17 	ldw	r2,-32708(gp)
10010c64:	e0bffd15 	stw	r2,-12(fp)

  alt_u32    next_callback;

  /* update the tick counter */

  _alt_nticks++;
10010c68:	d0a6da17 	ldw	r2,-25752(gp)
10010c6c:	10800044 	addi	r2,r2,1
10010c70:	d0a6da15 	stw	r2,-25752(gp)

  /* process the registered callbacks */

  while (alarm != (alt_alarm*) &alt_alarm_list)
10010c74:	00002e06 	br	10010d30 <alt_tick+0xe0>
  {
    next = (alt_alarm*) alarm->llist.next;
10010c78:	e0bffd17 	ldw	r2,-12(fp)
10010c7c:	10800017 	ldw	r2,0(r2)
10010c80:	e0bffe15 	stw	r2,-8(fp)
    /* 
     * Upon the tick-counter rolling over it is safe to clear the 
     * roll-over flag; once the flag is cleared this (or subsequnt)
     * tick events are enabled to generate an alarm event. 
     */
    if ((alarm->rollover) && (_alt_nticks == 0))
10010c84:	e0bffd17 	ldw	r2,-12(fp)
10010c88:	10800403 	ldbu	r2,16(r2)
10010c8c:	10803fcc 	andi	r2,r2,255
10010c90:	10000426 	beq	r2,zero,10010ca4 <alt_tick+0x54>
10010c94:	d0a6da17 	ldw	r2,-25752(gp)
10010c98:	1000021e 	bne	r2,zero,10010ca4 <alt_tick+0x54>
    {
      alarm->rollover = 0;
10010c9c:	e0bffd17 	ldw	r2,-12(fp)
10010ca0:	10000405 	stb	zero,16(r2)
    }
    
    /* if the alarm period has expired, make the callback */    
    if ((alarm->time <= _alt_nticks) && (alarm->rollover == 0))
10010ca4:	e0bffd17 	ldw	r2,-12(fp)
10010ca8:	10800217 	ldw	r2,8(r2)
10010cac:	d0e6da17 	ldw	r3,-25752(gp)
10010cb0:	18801d36 	bltu	r3,r2,10010d28 <alt_tick+0xd8>
10010cb4:	e0bffd17 	ldw	r2,-12(fp)
10010cb8:	10800403 	ldbu	r2,16(r2)
10010cbc:	10803fcc 	andi	r2,r2,255
10010cc0:	1000191e 	bne	r2,zero,10010d28 <alt_tick+0xd8>
    {
      next_callback = alarm->callback (alarm->context);
10010cc4:	e0bffd17 	ldw	r2,-12(fp)
10010cc8:	10800317 	ldw	r2,12(r2)
10010ccc:	e0fffd17 	ldw	r3,-12(fp)
10010cd0:	18c00517 	ldw	r3,20(r3)
10010cd4:	1809883a 	mov	r4,r3
10010cd8:	103ee83a 	callr	r2
10010cdc:	e0bfff15 	stw	r2,-4(fp)

      /* deactivate the alarm if the return value is zero */

      if (next_callback == 0)
10010ce0:	e0bfff17 	ldw	r2,-4(fp)
10010ce4:	1000031e 	bne	r2,zero,10010cf4 <alt_tick+0xa4>
      {
        alt_alarm_stop (alarm);
10010ce8:	e13ffd17 	ldw	r4,-12(fp)
10010cec:	0010bb80 	call	10010bb8 <alt_alarm_stop>
10010cf0:	00000d06 	br	10010d28 <alt_tick+0xd8>
      }
      else
      {
        alarm->time += next_callback;
10010cf4:	e0bffd17 	ldw	r2,-12(fp)
10010cf8:	10c00217 	ldw	r3,8(r2)
10010cfc:	e0bfff17 	ldw	r2,-4(fp)
10010d00:	1887883a 	add	r3,r3,r2
10010d04:	e0bffd17 	ldw	r2,-12(fp)
10010d08:	10c00215 	stw	r3,8(r2)
        /* 
         * If the desired alarm time causes a roll-over, set the rollover
         * flag. This will prevent the subsequent tick event from causing
         * an alarm too early.
         */
        if(alarm->time < _alt_nticks)
10010d0c:	e0bffd17 	ldw	r2,-12(fp)
10010d10:	10c00217 	ldw	r3,8(r2)
10010d14:	d0a6da17 	ldw	r2,-25752(gp)
10010d18:	1880032e 	bgeu	r3,r2,10010d28 <alt_tick+0xd8>
        {
          alarm->rollover = 1;
10010d1c:	e0bffd17 	ldw	r2,-12(fp)
10010d20:	00c00044 	movi	r3,1
10010d24:	10c00405 	stb	r3,16(r2)
        }
      }
    }
    alarm = next;
10010d28:	e0bffe17 	ldw	r2,-8(fp)
10010d2c:	e0bffd15 	stw	r2,-12(fp)

  _alt_nticks++;

  /* process the registered callbacks */

  while (alarm != (alt_alarm*) &alt_alarm_list)
10010d30:	e0fffd17 	ldw	r3,-12(fp)
10010d34:	d0a00f04 	addi	r2,gp,-32708
10010d38:	18bfcf1e 	bne	r3,r2,10010c78 <__alt_data_end+0xf8010c78>

  /* 
   * Update the operating system specific timer facilities.
   */

  ALT_OS_TIME_TICK();
10010d3c:	0001883a 	nop
}
10010d40:	e037883a 	mov	sp,fp
10010d44:	dfc00117 	ldw	ra,4(sp)
10010d48:	df000017 	ldw	fp,0(sp)
10010d4c:	dec00204 	addi	sp,sp,8
10010d50:	f800283a 	ret

10010d54 <altera_nios2_gen2_irq_init>:
/*
 * To initialize the internal interrupt controller, just clear the IENABLE
 * register so that all possible IRQs are disabled.
 */
void altera_nios2_gen2_irq_init(void) 
{
10010d54:	deffff04 	addi	sp,sp,-4
10010d58:	df000015 	stw	fp,0(sp)
10010d5c:	d839883a 	mov	fp,sp
    NIOS2_WRITE_IENABLE(0);
10010d60:	000170fa 	wrctl	ienable,zero
}
10010d64:	e037883a 	mov	sp,fp
10010d68:	df000017 	ldw	fp,0(sp)
10010d6c:	dec00104 	addi	sp,sp,4
10010d70:	f800283a 	ret

10010d74 <alt_find_dev>:
 * "name" must be an exact match for the devices registered name for a match to
 * be found.
 */
 
alt_dev* alt_find_dev(const char* name, alt_llist* llist)
{
10010d74:	defffa04 	addi	sp,sp,-24
10010d78:	dfc00515 	stw	ra,20(sp)
10010d7c:	df000415 	stw	fp,16(sp)
10010d80:	df000404 	addi	fp,sp,16
10010d84:	e13ffe15 	stw	r4,-8(fp)
10010d88:	e17fff15 	stw	r5,-4(fp)
  alt_dev* next = (alt_dev*) llist->next;
10010d8c:	e0bfff17 	ldw	r2,-4(fp)
10010d90:	10800017 	ldw	r2,0(r2)
10010d94:	e0bffc15 	stw	r2,-16(fp)
  alt_32 len;

  len  = strlen(name) + 1;
10010d98:	e13ffe17 	ldw	r4,-8(fp)
10010d9c:	000231c0 	call	1000231c <strlen>
10010da0:	10800044 	addi	r2,r2,1
10010da4:	e0bffd15 	stw	r2,-12(fp)
  /*
   * Check each list entry in turn, until a match is found, or we reach the
   * end of the list (i.e. next winds up pointing back to the list head).
   */ 

  while (next != (alt_dev*) llist)
10010da8:	00000d06 	br	10010de0 <alt_find_dev+0x6c>
    /* 
     * memcmp() is used here rather than strcmp() in order to reduce the size
     * of the executable.
     */

    if (!memcmp (next->name, name, len))
10010dac:	e0bffc17 	ldw	r2,-16(fp)
10010db0:	10c00217 	ldw	r3,8(r2)
10010db4:	e0bffd17 	ldw	r2,-12(fp)
10010db8:	1809883a 	mov	r4,r3
10010dbc:	e17ffe17 	ldw	r5,-8(fp)
10010dc0:	100d883a 	mov	r6,r2
10010dc4:	00110380 	call	10011038 <memcmp>
10010dc8:	1000021e 	bne	r2,zero,10010dd4 <alt_find_dev+0x60>
    {
      /* match found */

      return next;
10010dcc:	e0bffc17 	ldw	r2,-16(fp)
10010dd0:	00000706 	br	10010df0 <alt_find_dev+0x7c>
    }
    next = (alt_dev*) next->llist.next;
10010dd4:	e0bffc17 	ldw	r2,-16(fp)
10010dd8:	10800017 	ldw	r2,0(r2)
10010ddc:	e0bffc15 	stw	r2,-16(fp)
  /*
   * Check each list entry in turn, until a match is found, or we reach the
   * end of the list (i.e. next winds up pointing back to the list head).
   */ 

  while (next != (alt_dev*) llist)
10010de0:	e0fffc17 	ldw	r3,-16(fp)
10010de4:	e0bfff17 	ldw	r2,-4(fp)
10010de8:	18bff01e 	bne	r3,r2,10010dac <__alt_data_end+0xf8010dac>
    next = (alt_dev*) next->llist.next;
  }
  
  /* No match found */
  
  return NULL;
10010dec:	0005883a 	mov	r2,zero
}
10010df0:	e037883a 	mov	sp,fp
10010df4:	dfc00117 	ldw	ra,4(sp)
10010df8:	df000017 	ldw	fp,0(sp)
10010dfc:	dec00204 	addi	sp,sp,8
10010e00:	f800283a 	ret

10010e04 <alt_find_file>:
 * either '/' or '\0' is the prefix of the filename. For example the filename:
 * "/myfilesystem/junk.txt" would match: "/myfilesystem", but not: "/myfile". 
 */
 
alt_dev* alt_find_file (const char* name)
{
10010e04:	defffb04 	addi	sp,sp,-20
10010e08:	dfc00415 	stw	ra,16(sp)
10010e0c:	df000315 	stw	fp,12(sp)
10010e10:	df000304 	addi	fp,sp,12
10010e14:	e13fff15 	stw	r4,-4(fp)
  alt_dev* next = (alt_dev*) alt_fs_list.next;   
10010e18:	00840074 	movhi	r2,4097
10010e1c:	108e3e04 	addi	r2,r2,14584
10010e20:	10800017 	ldw	r2,0(r2)
10010e24:	e0bffd15 	stw	r2,-12(fp)
  /*
   * Check each list entry in turn, until a match is found, or we reach the
   * end of the list (i.e. next winds up pointing back to the list head).
   */ 
 
  while (next != (alt_dev*) &alt_fs_list)
10010e28:	00003106 	br	10010ef0 <alt_find_file+0xec>
  {
    len = strlen(next->name);
10010e2c:	e0bffd17 	ldw	r2,-12(fp)
10010e30:	10800217 	ldw	r2,8(r2)
10010e34:	1009883a 	mov	r4,r2
10010e38:	000231c0 	call	1000231c <strlen>
10010e3c:	e0bffe15 	stw	r2,-8(fp)
    
    if (next->name[len-1] == '/')
10010e40:	e0bffd17 	ldw	r2,-12(fp)
10010e44:	10c00217 	ldw	r3,8(r2)
10010e48:	e0bffe17 	ldw	r2,-8(fp)
10010e4c:	10bfffc4 	addi	r2,r2,-1
10010e50:	1885883a 	add	r2,r3,r2
10010e54:	10800003 	ldbu	r2,0(r2)
10010e58:	10803fcc 	andi	r2,r2,255
10010e5c:	1080201c 	xori	r2,r2,128
10010e60:	10bfe004 	addi	r2,r2,-128
10010e64:	10800bd8 	cmpnei	r2,r2,47
10010e68:	1000031e 	bne	r2,zero,10010e78 <alt_find_file+0x74>
    {
      len -= 1;
10010e6c:	e0bffe17 	ldw	r2,-8(fp)
10010e70:	10bfffc4 	addi	r2,r2,-1
10010e74:	e0bffe15 	stw	r2,-8(fp)
    }

    if (((name[len] == '/') || (name[len] == '\0')) && 
10010e78:	e0bffe17 	ldw	r2,-8(fp)
10010e7c:	e0ffff17 	ldw	r3,-4(fp)
10010e80:	1885883a 	add	r2,r3,r2
10010e84:	10800003 	ldbu	r2,0(r2)
10010e88:	10803fcc 	andi	r2,r2,255
10010e8c:	1080201c 	xori	r2,r2,128
10010e90:	10bfe004 	addi	r2,r2,-128
10010e94:	10800be0 	cmpeqi	r2,r2,47
10010e98:	1000081e 	bne	r2,zero,10010ebc <alt_find_file+0xb8>
10010e9c:	e0bffe17 	ldw	r2,-8(fp)
10010ea0:	e0ffff17 	ldw	r3,-4(fp)
10010ea4:	1885883a 	add	r2,r3,r2
10010ea8:	10800003 	ldbu	r2,0(r2)
10010eac:	10803fcc 	andi	r2,r2,255
10010eb0:	1080201c 	xori	r2,r2,128
10010eb4:	10bfe004 	addi	r2,r2,-128
10010eb8:	10000a1e 	bne	r2,zero,10010ee4 <alt_find_file+0xe0>
        !memcmp (next->name, name, len))
10010ebc:	e0bffd17 	ldw	r2,-12(fp)
10010ec0:	10c00217 	ldw	r3,8(r2)
10010ec4:	e0bffe17 	ldw	r2,-8(fp)
10010ec8:	1809883a 	mov	r4,r3
10010ecc:	e17fff17 	ldw	r5,-4(fp)
10010ed0:	100d883a 	mov	r6,r2
10010ed4:	00110380 	call	10011038 <memcmp>
    if (next->name[len-1] == '/')
    {
      len -= 1;
    }

    if (((name[len] == '/') || (name[len] == '\0')) && 
10010ed8:	1000021e 	bne	r2,zero,10010ee4 <alt_find_file+0xe0>
        !memcmp (next->name, name, len))
    {
      /* match found */

      return next;
10010edc:	e0bffd17 	ldw	r2,-12(fp)
10010ee0:	00000806 	br	10010f04 <alt_find_file+0x100>
    }
    next = (alt_dev*) next->llist.next;
10010ee4:	e0bffd17 	ldw	r2,-12(fp)
10010ee8:	10800017 	ldw	r2,0(r2)
10010eec:	e0bffd15 	stw	r2,-12(fp)
  /*
   * Check each list entry in turn, until a match is found, or we reach the
   * end of the list (i.e. next winds up pointing back to the list head).
   */ 
 
  while (next != (alt_dev*) &alt_fs_list)
10010ef0:	e0fffd17 	ldw	r3,-12(fp)
10010ef4:	00840074 	movhi	r2,4097
10010ef8:	108e3e04 	addi	r2,r2,14584
10010efc:	18bfcb1e 	bne	r3,r2,10010e2c <__alt_data_end+0xf8010e2c>
    next = (alt_dev*) next->llist.next;
  }
  
  /* No match found */
  
  return NULL;     
10010f00:	0005883a 	mov	r2,zero
}
10010f04:	e037883a 	mov	sp,fp
10010f08:	dfc00117 	ldw	ra,4(sp)
10010f0c:	df000017 	ldw	fp,0(sp)
10010f10:	dec00204 	addi	sp,sp,8
10010f14:	f800283a 	ret

10010f18 <alt_get_fd>:
 * the offset of the file descriptor within the file descriptor array). A
 * negative value indicates failure.
 */

int alt_get_fd (alt_dev* dev)
{
10010f18:	defffa04 	addi	sp,sp,-24
10010f1c:	dfc00515 	stw	ra,20(sp)
10010f20:	df000415 	stw	fp,16(sp)
10010f24:	dc000315 	stw	r16,12(sp)
10010f28:	df000404 	addi	fp,sp,16
10010f2c:	e13ffe15 	stw	r4,-8(fp)
  alt_32 i;
  int rc = -EMFILE;
10010f30:	00bffa04 	movi	r2,-24
10010f34:	e0bffd15 	stw	r2,-12(fp)
   * indicates the highest file descriptor ever allocated. This is used to
   * improve efficency when searching the file descriptor list, and 
   * therefore reduce contention on the alt_fd_list_lock semaphore. 
   */

  for (i = 0; i < ALT_MAX_FD; i++)
10010f38:	e03ffc15 	stw	zero,-16(fp)
10010f3c:	00002106 	br	10010fc4 <alt_get_fd+0xac>
  {
    if (!alt_fd_list[i].dev)
10010f40:	04040074 	movhi	r16,4097
10010f44:	8409bf04 	addi	r16,r16,9980
10010f48:	e0bffc17 	ldw	r2,-16(fp)
10010f4c:	1009883a 	mov	r4,r2
10010f50:	01400304 	movi	r5,12
10010f54:	000c3280 	call	1000c328 <__mulsi3>
10010f58:	8085883a 	add	r2,r16,r2
10010f5c:	10800017 	ldw	r2,0(r2)
10010f60:	1000151e 	bne	r2,zero,10010fb8 <alt_get_fd+0xa0>
    {
      alt_fd_list[i].dev = dev;
10010f64:	04040074 	movhi	r16,4097
10010f68:	8409bf04 	addi	r16,r16,9980
10010f6c:	e0bffc17 	ldw	r2,-16(fp)
10010f70:	1009883a 	mov	r4,r2
10010f74:	01400304 	movi	r5,12
10010f78:	000c3280 	call	1000c328 <__mulsi3>
10010f7c:	8085883a 	add	r2,r16,r2
10010f80:	e0fffe17 	ldw	r3,-8(fp)
10010f84:	10c00015 	stw	r3,0(r2)
      if (i > alt_max_fd)
10010f88:	00840074 	movhi	r2,4097
10010f8c:	108e4204 	addi	r2,r2,14600
10010f90:	10c00017 	ldw	r3,0(r2)
10010f94:	e0bffc17 	ldw	r2,-16(fp)
10010f98:	1880040e 	bge	r3,r2,10010fac <alt_get_fd+0x94>
      {
        alt_max_fd = i;
10010f9c:	00840074 	movhi	r2,4097
10010fa0:	108e4204 	addi	r2,r2,14600
10010fa4:	e0fffc17 	ldw	r3,-16(fp)
10010fa8:	10c00015 	stw	r3,0(r2)
      }
      rc = i;
10010fac:	e0bffc17 	ldw	r2,-16(fp)
10010fb0:	e0bffd15 	stw	r2,-12(fp)
      goto alt_get_fd_exit;
10010fb4:	00000606 	br	10010fd0 <alt_get_fd+0xb8>
   * indicates the highest file descriptor ever allocated. This is used to
   * improve efficency when searching the file descriptor list, and 
   * therefore reduce contention on the alt_fd_list_lock semaphore. 
   */

  for (i = 0; i < ALT_MAX_FD; i++)
10010fb8:	e0bffc17 	ldw	r2,-16(fp)
10010fbc:	10800044 	addi	r2,r2,1
10010fc0:	e0bffc15 	stw	r2,-16(fp)
10010fc4:	e0bffc17 	ldw	r2,-16(fp)
10010fc8:	10800810 	cmplti	r2,r2,32
10010fcc:	103fdc1e 	bne	r2,zero,10010f40 <__alt_data_end+0xf8010f40>
   * file descriptor pool.
   */

  ALT_SEM_POST(alt_fd_list_lock);

  return rc;
10010fd0:	e0bffd17 	ldw	r2,-12(fp)
}
10010fd4:	e6ffff04 	addi	sp,fp,-4
10010fd8:	dfc00217 	ldw	ra,8(sp)
10010fdc:	df000117 	ldw	fp,4(sp)
10010fe0:	dc000017 	ldw	r16,0(sp)
10010fe4:	dec00304 	addi	sp,sp,12
10010fe8:	f800283a 	ret

10010fec <atexit>:
10010fec:	200b883a 	mov	r5,r4
10010ff0:	000d883a 	mov	r6,zero
10010ff4:	0009883a 	mov	r4,zero
10010ff8:	000f883a 	mov	r7,zero
10010ffc:	00110b41 	jmpi	100110b4 <__register_exitproc>

10011000 <exit>:
10011000:	defffe04 	addi	sp,sp,-8
10011004:	000b883a 	mov	r5,zero
10011008:	dc000015 	stw	r16,0(sp)
1001100c:	dfc00115 	stw	ra,4(sp)
10011010:	2021883a 	mov	r16,r4
10011014:	00111c80 	call	100111c8 <__call_exitprocs>
10011018:	00840074 	movhi	r2,4097
1001101c:	108e3804 	addi	r2,r2,14560
10011020:	11000017 	ldw	r4,0(r2)
10011024:	20800f17 	ldw	r2,60(r4)
10011028:	10000126 	beq	r2,zero,10011030 <exit+0x30>
1001102c:	103ee83a 	callr	r2
10011030:	8009883a 	mov	r4,r16
10011034:	001135c0 	call	1001135c <_exit>

10011038 <memcmp>:
10011038:	01c000c4 	movi	r7,3
1001103c:	3980192e 	bgeu	r7,r6,100110a4 <memcmp+0x6c>
10011040:	2144b03a 	or	r2,r4,r5
10011044:	11c4703a 	and	r2,r2,r7
10011048:	10000f26 	beq	r2,zero,10011088 <memcmp+0x50>
1001104c:	20800003 	ldbu	r2,0(r4)
10011050:	28c00003 	ldbu	r3,0(r5)
10011054:	10c0151e 	bne	r2,r3,100110ac <memcmp+0x74>
10011058:	31bfff84 	addi	r6,r6,-2
1001105c:	01ffffc4 	movi	r7,-1
10011060:	00000406 	br	10011074 <memcmp+0x3c>
10011064:	20800003 	ldbu	r2,0(r4)
10011068:	28c00003 	ldbu	r3,0(r5)
1001106c:	31bfffc4 	addi	r6,r6,-1
10011070:	10c00e1e 	bne	r2,r3,100110ac <memcmp+0x74>
10011074:	21000044 	addi	r4,r4,1
10011078:	29400044 	addi	r5,r5,1
1001107c:	31fff91e 	bne	r6,r7,10011064 <__alt_data_end+0xf8011064>
10011080:	0005883a 	mov	r2,zero
10011084:	f800283a 	ret
10011088:	20c00017 	ldw	r3,0(r4)
1001108c:	28800017 	ldw	r2,0(r5)
10011090:	1880041e 	bne	r3,r2,100110a4 <memcmp+0x6c>
10011094:	31bfff04 	addi	r6,r6,-4
10011098:	21000104 	addi	r4,r4,4
1001109c:	29400104 	addi	r5,r5,4
100110a0:	39bff936 	bltu	r7,r6,10011088 <__alt_data_end+0xf8011088>
100110a4:	303fe91e 	bne	r6,zero,1001104c <__alt_data_end+0xf801104c>
100110a8:	003ff506 	br	10011080 <__alt_data_end+0xf8011080>
100110ac:	10c5c83a 	sub	r2,r2,r3
100110b0:	f800283a 	ret

100110b4 <__register_exitproc>:
100110b4:	00840074 	movhi	r2,4097
100110b8:	defffa04 	addi	sp,sp,-24
100110bc:	108e3804 	addi	r2,r2,14560
100110c0:	dc000315 	stw	r16,12(sp)
100110c4:	14000017 	ldw	r16,0(r2)
100110c8:	dc400415 	stw	r17,16(sp)
100110cc:	dfc00515 	stw	ra,20(sp)
100110d0:	80805217 	ldw	r2,328(r16)
100110d4:	2023883a 	mov	r17,r4
100110d8:	10003626 	beq	r2,zero,100111b4 <__register_exitproc+0x100>
100110dc:	10c00117 	ldw	r3,4(r2)
100110e0:	010007c4 	movi	r4,31
100110e4:	20c00e16 	blt	r4,r3,10011120 <__register_exitproc+0x6c>
100110e8:	1a400044 	addi	r9,r3,1
100110ec:	8800211e 	bne	r17,zero,10011174 <__register_exitproc+0xc0>
100110f0:	18c00084 	addi	r3,r3,2
100110f4:	18c7883a 	add	r3,r3,r3
100110f8:	18c7883a 	add	r3,r3,r3
100110fc:	12400115 	stw	r9,4(r2)
10011100:	10c7883a 	add	r3,r2,r3
10011104:	19400015 	stw	r5,0(r3)
10011108:	0005883a 	mov	r2,zero
1001110c:	dfc00517 	ldw	ra,20(sp)
10011110:	dc400417 	ldw	r17,16(sp)
10011114:	dc000317 	ldw	r16,12(sp)
10011118:	dec00604 	addi	sp,sp,24
1001111c:	f800283a 	ret
10011120:	00800034 	movhi	r2,0
10011124:	10800004 	addi	r2,r2,0
10011128:	10002526 	beq	r2,zero,100111c0 <__register_exitproc+0x10c>
1001112c:	01006404 	movi	r4,400
10011130:	d9400015 	stw	r5,0(sp)
10011134:	d9800115 	stw	r6,4(sp)
10011138:	d9c00215 	stw	r7,8(sp)
1001113c:	00000000 	call	10000000 <__reset>
10011140:	d9400017 	ldw	r5,0(sp)
10011144:	d9800117 	ldw	r6,4(sp)
10011148:	d9c00217 	ldw	r7,8(sp)
1001114c:	10001c26 	beq	r2,zero,100111c0 <__register_exitproc+0x10c>
10011150:	80c05217 	ldw	r3,328(r16)
10011154:	10000115 	stw	zero,4(r2)
10011158:	02400044 	movi	r9,1
1001115c:	10c00015 	stw	r3,0(r2)
10011160:	80805215 	stw	r2,328(r16)
10011164:	10006215 	stw	zero,392(r2)
10011168:	10006315 	stw	zero,396(r2)
1001116c:	0007883a 	mov	r3,zero
10011170:	883fdf26 	beq	r17,zero,100110f0 <__alt_data_end+0xf80110f0>
10011174:	18d1883a 	add	r8,r3,r3
10011178:	4211883a 	add	r8,r8,r8
1001117c:	1211883a 	add	r8,r2,r8
10011180:	41802215 	stw	r6,136(r8)
10011184:	01000044 	movi	r4,1
10011188:	11806217 	ldw	r6,392(r2)
1001118c:	20c8983a 	sll	r4,r4,r3
10011190:	310cb03a 	or	r6,r6,r4
10011194:	11806215 	stw	r6,392(r2)
10011198:	41c04215 	stw	r7,264(r8)
1001119c:	01800084 	movi	r6,2
100111a0:	89bfd31e 	bne	r17,r6,100110f0 <__alt_data_end+0xf80110f0>
100111a4:	11806317 	ldw	r6,396(r2)
100111a8:	3108b03a 	or	r4,r6,r4
100111ac:	11006315 	stw	r4,396(r2)
100111b0:	003fcf06 	br	100110f0 <__alt_data_end+0xf80110f0>
100111b4:	80805304 	addi	r2,r16,332
100111b8:	80805215 	stw	r2,328(r16)
100111bc:	003fc706 	br	100110dc <__alt_data_end+0xf80110dc>
100111c0:	00bfffc4 	movi	r2,-1
100111c4:	003fd106 	br	1001110c <__alt_data_end+0xf801110c>

100111c8 <__call_exitprocs>:
100111c8:	00840074 	movhi	r2,4097
100111cc:	108e3804 	addi	r2,r2,14560
100111d0:	10800017 	ldw	r2,0(r2)
100111d4:	defff404 	addi	sp,sp,-48
100111d8:	dd800815 	stw	r22,32(sp)
100111dc:	d8800015 	stw	r2,0(sp)
100111e0:	10805204 	addi	r2,r2,328
100111e4:	dd000615 	stw	r20,24(sp)
100111e8:	dc800415 	stw	r18,16(sp)
100111ec:	dfc00b15 	stw	ra,44(sp)
100111f0:	df000a15 	stw	fp,40(sp)
100111f4:	ddc00915 	stw	r23,36(sp)
100111f8:	dd400715 	stw	r21,28(sp)
100111fc:	dcc00515 	stw	r19,20(sp)
10011200:	dc400315 	stw	r17,12(sp)
10011204:	dc000215 	stw	r16,8(sp)
10011208:	2025883a 	mov	r18,r4
1001120c:	2829883a 	mov	r20,r5
10011210:	d8800115 	stw	r2,4(sp)
10011214:	05bfffc4 	movi	r22,-1
10011218:	d8800017 	ldw	r2,0(sp)
1001121c:	14c05217 	ldw	r19,328(r2)
10011220:	98001d26 	beq	r19,zero,10011298 <__call_exitprocs+0xd0>
10011224:	dd400117 	ldw	r21,4(sp)
10011228:	98800117 	ldw	r2,4(r19)
1001122c:	173fffc4 	addi	fp,r2,-1
10011230:	e0000d16 	blt	fp,zero,10011268 <__call_exitprocs+0xa0>
10011234:	14000044 	addi	r16,r2,1
10011238:	8421883a 	add	r16,r16,r16
1001123c:	8421883a 	add	r16,r16,r16
10011240:	84402004 	addi	r17,r16,128
10011244:	9c63883a 	add	r17,r19,r17
10011248:	9c21883a 	add	r16,r19,r16
1001124c:	a0001e26 	beq	r20,zero,100112c8 <__call_exitprocs+0x100>
10011250:	80804017 	ldw	r2,256(r16)
10011254:	15001c26 	beq	r2,r20,100112c8 <__call_exitprocs+0x100>
10011258:	e73fffc4 	addi	fp,fp,-1
1001125c:	843fff04 	addi	r16,r16,-4
10011260:	8c7fff04 	addi	r17,r17,-4
10011264:	e5bff91e 	bne	fp,r22,1001124c <__alt_data_end+0xf801124c>
10011268:	00800034 	movhi	r2,0
1001126c:	10800004 	addi	r2,r2,0
10011270:	10000926 	beq	r2,zero,10011298 <__call_exitprocs+0xd0>
10011274:	98800117 	ldw	r2,4(r19)
10011278:	1000311e 	bne	r2,zero,10011340 <__call_exitprocs+0x178>
1001127c:	98800017 	ldw	r2,0(r19)
10011280:	10003426 	beq	r2,zero,10011354 <__call_exitprocs+0x18c>
10011284:	9809883a 	mov	r4,r19
10011288:	a8800015 	stw	r2,0(r21)
1001128c:	00000000 	call	10000000 <__reset>
10011290:	acc00017 	ldw	r19,0(r21)
10011294:	983fe41e 	bne	r19,zero,10011228 <__alt_data_end+0xf8011228>
10011298:	dfc00b17 	ldw	ra,44(sp)
1001129c:	df000a17 	ldw	fp,40(sp)
100112a0:	ddc00917 	ldw	r23,36(sp)
100112a4:	dd800817 	ldw	r22,32(sp)
100112a8:	dd400717 	ldw	r21,28(sp)
100112ac:	dd000617 	ldw	r20,24(sp)
100112b0:	dcc00517 	ldw	r19,20(sp)
100112b4:	dc800417 	ldw	r18,16(sp)
100112b8:	dc400317 	ldw	r17,12(sp)
100112bc:	dc000217 	ldw	r16,8(sp)
100112c0:	dec00c04 	addi	sp,sp,48
100112c4:	f800283a 	ret
100112c8:	98800117 	ldw	r2,4(r19)
100112cc:	80c00017 	ldw	r3,0(r16)
100112d0:	10bfffc4 	addi	r2,r2,-1
100112d4:	17001526 	beq	r2,fp,1001132c <__call_exitprocs+0x164>
100112d8:	80000015 	stw	zero,0(r16)
100112dc:	183fde26 	beq	r3,zero,10011258 <__alt_data_end+0xf8011258>
100112e0:	00800044 	movi	r2,1
100112e4:	1708983a 	sll	r4,r2,fp
100112e8:	98806217 	ldw	r2,392(r19)
100112ec:	9dc00117 	ldw	r23,4(r19)
100112f0:	2084703a 	and	r2,r4,r2
100112f4:	1000061e 	bne	r2,zero,10011310 <__call_exitprocs+0x148>
100112f8:	183ee83a 	callr	r3
100112fc:	98800117 	ldw	r2,4(r19)
10011300:	15ffc51e 	bne	r2,r23,10011218 <__alt_data_end+0xf8011218>
10011304:	a8800017 	ldw	r2,0(r21)
10011308:	14ffd326 	beq	r2,r19,10011258 <__alt_data_end+0xf8011258>
1001130c:	003fc206 	br	10011218 <__alt_data_end+0xf8011218>
10011310:	98806317 	ldw	r2,396(r19)
10011314:	2084703a 	and	r2,r4,r2
10011318:	1000061e 	bne	r2,zero,10011334 <__call_exitprocs+0x16c>
1001131c:	89400017 	ldw	r5,0(r17)
10011320:	9009883a 	mov	r4,r18
10011324:	183ee83a 	callr	r3
10011328:	003ff406 	br	100112fc <__alt_data_end+0xf80112fc>
1001132c:	9f000115 	stw	fp,4(r19)
10011330:	003fea06 	br	100112dc <__alt_data_end+0xf80112dc>
10011334:	89000017 	ldw	r4,0(r17)
10011338:	183ee83a 	callr	r3
1001133c:	003fef06 	br	100112fc <__alt_data_end+0xf80112fc>
10011340:	98800017 	ldw	r2,0(r19)
10011344:	982b883a 	mov	r21,r19
10011348:	1027883a 	mov	r19,r2
1001134c:	983fb61e 	bne	r19,zero,10011228 <__alt_data_end+0xf8011228>
10011350:	003fd106 	br	10011298 <__alt_data_end+0xf8011298>
10011354:	0005883a 	mov	r2,zero
10011358:	003ffa06 	br	10011344 <__alt_data_end+0xf8011344>

1001135c <_exit>:
 *
 * ALT_EXIT is mapped onto the _exit() system call in alt_syscall.h
 */

void ALT_EXIT (int exit_code)
{
1001135c:	defffd04 	addi	sp,sp,-12
10011360:	df000215 	stw	fp,8(sp)
10011364:	df000204 	addi	fp,sp,8
10011368:	e13fff15 	stw	r4,-4(fp)
  ALT_LOG_PRINT_BOOT("[alt_exit.c] Entering _exit() function.\r\n");
  ALT_LOG_PRINT_BOOT("[alt_exit.c] Exit code from main was %d.\r\n",exit_code);
  /* Stop all other threads */

  ALT_LOG_PRINT_BOOT("[alt_exit.c] Calling ALT_OS_STOP().\r\n");
  ALT_OS_STOP();
1001136c:	0001883a 	nop
10011370:	e0bfff17 	ldw	r2,-4(fp)
10011374:	e0bffe15 	stw	r2,-8(fp)
/*
 * Routine called on exit.
 */
static ALT_INLINE ALT_ALWAYS_INLINE void alt_sim_halt(int exit_code)
{
  register int r2 asm ("r2") = exit_code;
10011378:	e0bffe17 	ldw	r2,-8(fp)
  __asm__ volatile ("\n0:\n\taddi %0,%0, -1\n\tbgt %0,zero,0b" : : "r" (ALT_CPU_FREQ/100) ); /* Delay for >30ms */

  __asm__ volatile ("break 2" : : "r"(r2), "r"(r3) ALT_GMON_DATA );

#else /* !DEBUG_STUB */
  if (r2) {
1001137c:	10000226 	beq	r2,zero,10011388 <_exit+0x2c>
    ALT_SIM_FAIL();
10011380:	002af070 	cmpltui	zero,zero,43969
10011384:	00000106 	br	1001138c <_exit+0x30>
  } else {
    ALT_SIM_PASS();
10011388:	002af0b0 	cmpltui	zero,zero,43970
  ALT_SIM_HALT(exit_code);

  /* spin forever, since there's no where to go back to */

  ALT_LOG_PRINT_BOOT("[alt_exit.c] Spinning forever.\r\n");
  while (1);
1001138c:	003fff06 	br	1001138c <__alt_data_end+0xf801138c>
